   1               		.file	"DeviceStandardReq.c"
   2               	__SP_H__ = 0x3e
   3               	__SP_L__ = 0x3d
   4               	__SREG__ = 0x3f
   5               	__tmp_reg__ = 0
   6               	__zero_reg__ = 1
   7               		.text
   8               	.Ltext0:
   9               		.cfi_sections	.debug_frame
  10               		.section	.text.USB_Device_ProcessControlRequest,"ax",@progbits
  11               	.global	USB_Device_ProcessControlRequest
  13               	USB_Device_ProcessControlRequest:
  14               	.LFB85:
  15               		.file 1 "/users/hunter/downloads/tmk_core/protocol/lufa/LUFA-git/LUFA/Drivers/USB/Core/DeviceStand
   1:/users/hunter/downloads/tmk_core/protocol/lufa/LUFA-git/LUFA/Drivers/USB/Core/DeviceStandardReq.c **** /*
   2:/users/hunter/downloads/tmk_core/protocol/lufa/LUFA-git/LUFA/Drivers/USB/Core/DeviceStandardReq.c ****              LUFA Library
   3:/users/hunter/downloads/tmk_core/protocol/lufa/LUFA-git/LUFA/Drivers/USB/Core/DeviceStandardReq.c ****      Copyright (C) Dean Camera, 2014.
   4:/users/hunter/downloads/tmk_core/protocol/lufa/LUFA-git/LUFA/Drivers/USB/Core/DeviceStandardReq.c **** 
   5:/users/hunter/downloads/tmk_core/protocol/lufa/LUFA-git/LUFA/Drivers/USB/Core/DeviceStandardReq.c ****   dean [at] fourwalledcubicle [dot] com
   6:/users/hunter/downloads/tmk_core/protocol/lufa/LUFA-git/LUFA/Drivers/USB/Core/DeviceStandardReq.c ****            www.lufa-lib.org
   7:/users/hunter/downloads/tmk_core/protocol/lufa/LUFA-git/LUFA/Drivers/USB/Core/DeviceStandardReq.c **** */
   8:/users/hunter/downloads/tmk_core/protocol/lufa/LUFA-git/LUFA/Drivers/USB/Core/DeviceStandardReq.c **** 
   9:/users/hunter/downloads/tmk_core/protocol/lufa/LUFA-git/LUFA/Drivers/USB/Core/DeviceStandardReq.c **** /*
  10:/users/hunter/downloads/tmk_core/protocol/lufa/LUFA-git/LUFA/Drivers/USB/Core/DeviceStandardReq.c ****   Copyright 2014  Dean Camera (dean [at] fourwalledcubicle [dot] com)
  11:/users/hunter/downloads/tmk_core/protocol/lufa/LUFA-git/LUFA/Drivers/USB/Core/DeviceStandardReq.c **** 
  12:/users/hunter/downloads/tmk_core/protocol/lufa/LUFA-git/LUFA/Drivers/USB/Core/DeviceStandardReq.c ****   Permission to use, copy, modify, distribute, and sell this
  13:/users/hunter/downloads/tmk_core/protocol/lufa/LUFA-git/LUFA/Drivers/USB/Core/DeviceStandardReq.c ****   software and its documentation for any purpose is hereby granted
  14:/users/hunter/downloads/tmk_core/protocol/lufa/LUFA-git/LUFA/Drivers/USB/Core/DeviceStandardReq.c ****   without fee, provided that the above copyright notice appear in
  15:/users/hunter/downloads/tmk_core/protocol/lufa/LUFA-git/LUFA/Drivers/USB/Core/DeviceStandardReq.c ****   all copies and that both that the copyright notice and this
  16:/users/hunter/downloads/tmk_core/protocol/lufa/LUFA-git/LUFA/Drivers/USB/Core/DeviceStandardReq.c ****   permission notice and warranty disclaimer appear in supporting
  17:/users/hunter/downloads/tmk_core/protocol/lufa/LUFA-git/LUFA/Drivers/USB/Core/DeviceStandardReq.c ****   documentation, and that the name of the author not be used in
  18:/users/hunter/downloads/tmk_core/protocol/lufa/LUFA-git/LUFA/Drivers/USB/Core/DeviceStandardReq.c ****   advertising or publicity pertaining to distribution of the
  19:/users/hunter/downloads/tmk_core/protocol/lufa/LUFA-git/LUFA/Drivers/USB/Core/DeviceStandardReq.c ****   software without specific, written prior permission.
  20:/users/hunter/downloads/tmk_core/protocol/lufa/LUFA-git/LUFA/Drivers/USB/Core/DeviceStandardReq.c **** 
  21:/users/hunter/downloads/tmk_core/protocol/lufa/LUFA-git/LUFA/Drivers/USB/Core/DeviceStandardReq.c ****   The author disclaims all warranties with regard to this
  22:/users/hunter/downloads/tmk_core/protocol/lufa/LUFA-git/LUFA/Drivers/USB/Core/DeviceStandardReq.c ****   software, including all implied warranties of merchantability
  23:/users/hunter/downloads/tmk_core/protocol/lufa/LUFA-git/LUFA/Drivers/USB/Core/DeviceStandardReq.c ****   and fitness.  In no event shall the author be liable for any
  24:/users/hunter/downloads/tmk_core/protocol/lufa/LUFA-git/LUFA/Drivers/USB/Core/DeviceStandardReq.c ****   special, indirect or consequential damages or any damages
  25:/users/hunter/downloads/tmk_core/protocol/lufa/LUFA-git/LUFA/Drivers/USB/Core/DeviceStandardReq.c ****   whatsoever resulting from loss of use, data or profits, whether
  26:/users/hunter/downloads/tmk_core/protocol/lufa/LUFA-git/LUFA/Drivers/USB/Core/DeviceStandardReq.c ****   in an action of contract, negligence or other tortious action,
  27:/users/hunter/downloads/tmk_core/protocol/lufa/LUFA-git/LUFA/Drivers/USB/Core/DeviceStandardReq.c ****   arising out of or in connection with the use or performance of
  28:/users/hunter/downloads/tmk_core/protocol/lufa/LUFA-git/LUFA/Drivers/USB/Core/DeviceStandardReq.c ****   this software.
  29:/users/hunter/downloads/tmk_core/protocol/lufa/LUFA-git/LUFA/Drivers/USB/Core/DeviceStandardReq.c **** */
  30:/users/hunter/downloads/tmk_core/protocol/lufa/LUFA-git/LUFA/Drivers/USB/Core/DeviceStandardReq.c **** 
  31:/users/hunter/downloads/tmk_core/protocol/lufa/LUFA-git/LUFA/Drivers/USB/Core/DeviceStandardReq.c **** #define  __INCLUDE_FROM_USB_DRIVER
  32:/users/hunter/downloads/tmk_core/protocol/lufa/LUFA-git/LUFA/Drivers/USB/Core/DeviceStandardReq.c **** #include "USBMode.h"
  33:/users/hunter/downloads/tmk_core/protocol/lufa/LUFA-git/LUFA/Drivers/USB/Core/DeviceStandardReq.c **** 
  34:/users/hunter/downloads/tmk_core/protocol/lufa/LUFA-git/LUFA/Drivers/USB/Core/DeviceStandardReq.c **** #if defined(USB_CAN_BE_DEVICE)
  35:/users/hunter/downloads/tmk_core/protocol/lufa/LUFA-git/LUFA/Drivers/USB/Core/DeviceStandardReq.c **** 
  36:/users/hunter/downloads/tmk_core/protocol/lufa/LUFA-git/LUFA/Drivers/USB/Core/DeviceStandardReq.c **** #define  __INCLUDE_FROM_DEVICESTDREQ_C
  37:/users/hunter/downloads/tmk_core/protocol/lufa/LUFA-git/LUFA/Drivers/USB/Core/DeviceStandardReq.c **** #include "DeviceStandardReq.h"
  38:/users/hunter/downloads/tmk_core/protocol/lufa/LUFA-git/LUFA/Drivers/USB/Core/DeviceStandardReq.c **** 
  39:/users/hunter/downloads/tmk_core/protocol/lufa/LUFA-git/LUFA/Drivers/USB/Core/DeviceStandardReq.c **** uint8_t USB_Device_ConfigurationNumber;
  40:/users/hunter/downloads/tmk_core/protocol/lufa/LUFA-git/LUFA/Drivers/USB/Core/DeviceStandardReq.c **** 
  41:/users/hunter/downloads/tmk_core/protocol/lufa/LUFA-git/LUFA/Drivers/USB/Core/DeviceStandardReq.c **** #if !defined(NO_DEVICE_SELF_POWER)
  42:/users/hunter/downloads/tmk_core/protocol/lufa/LUFA-git/LUFA/Drivers/USB/Core/DeviceStandardReq.c **** bool    USB_Device_CurrentlySelfPowered;
  43:/users/hunter/downloads/tmk_core/protocol/lufa/LUFA-git/LUFA/Drivers/USB/Core/DeviceStandardReq.c **** #endif
  44:/users/hunter/downloads/tmk_core/protocol/lufa/LUFA-git/LUFA/Drivers/USB/Core/DeviceStandardReq.c **** 
  45:/users/hunter/downloads/tmk_core/protocol/lufa/LUFA-git/LUFA/Drivers/USB/Core/DeviceStandardReq.c **** #if !defined(NO_DEVICE_REMOTE_WAKEUP)
  46:/users/hunter/downloads/tmk_core/protocol/lufa/LUFA-git/LUFA/Drivers/USB/Core/DeviceStandardReq.c **** bool    USB_Device_RemoteWakeupEnabled;
  47:/users/hunter/downloads/tmk_core/protocol/lufa/LUFA-git/LUFA/Drivers/USB/Core/DeviceStandardReq.c **** #endif
  48:/users/hunter/downloads/tmk_core/protocol/lufa/LUFA-git/LUFA/Drivers/USB/Core/DeviceStandardReq.c **** 
  49:/users/hunter/downloads/tmk_core/protocol/lufa/LUFA-git/LUFA/Drivers/USB/Core/DeviceStandardReq.c **** void USB_Device_ProcessControlRequest(void)
  50:/users/hunter/downloads/tmk_core/protocol/lufa/LUFA-git/LUFA/Drivers/USB/Core/DeviceStandardReq.c **** {
  16               		.loc 1 50 0
  17               		.cfi_startproc
  18 0000 1F93      		push r17
  19               	.LCFI0:
  20               		.cfi_def_cfa_offset 3
  21               		.cfi_offset 17, -2
  22 0002 CF93      		push r28
  23               	.LCFI1:
  24               		.cfi_def_cfa_offset 4
  25               		.cfi_offset 28, -3
  26 0004 DF93      		push r29
  27               	.LCFI2:
  28               		.cfi_def_cfa_offset 5
  29               		.cfi_offset 29, -4
  30 0006 CDB7      		in r28,__SP_L__
  31 0008 DEB7      		in r29,__SP_H__
  32               	.LCFI3:
  33               		.cfi_def_cfa_register 28
  34 000a AA97      		sbiw r28,42
  35               	.LCFI4:
  36               		.cfi_def_cfa_offset 47
  37 000c 0FB6      		in __tmp_reg__,__SREG__
  38 000e F894      		cli
  39 0010 DEBF      		out __SP_H__,r29
  40 0012 0FBE      		out __SREG__,__tmp_reg__
  41 0014 CDBF      		out __SP_L__,r28
  42               	/* prologue: function */
  43               	/* frame size = 42 */
  44               	/* stack size = 45 */
  45               	.L__stack_usage = 45
  46               	.LVL0:
  47 0016 E0E0      		ldi r30,lo8(USB_ControlRequest)
  48 0018 F0E0      		ldi r31,hi8(USB_ControlRequest)
  49               	.LVL1:
  50               	.L2:
  51               	.LBB170:
  52               	.LBB171:
  53               	.LBB172:
  54               		.file 2 "/users/hunter/downloads/tmk_core/protocol/lufa/LUFA-git/LUFA/Drivers/USB/Core/AVR8/../AVR
   1:/users/hunter/downloads/tmk_core/protocol/lufa/LUFA-git/LUFA/Drivers/USB/Core/AVR8/../AVR8/Endpoint_AVR8.h **** /*
   2:/users/hunter/downloads/tmk_core/protocol/lufa/LUFA-git/LUFA/Drivers/USB/Core/AVR8/../AVR8/Endpoint_AVR8.h ****              LUFA Library
   3:/users/hunter/downloads/tmk_core/protocol/lufa/LUFA-git/LUFA/Drivers/USB/Core/AVR8/../AVR8/Endpoint_AVR8.h ****      Copyright (C) Dean Camera, 2014.
   4:/users/hunter/downloads/tmk_core/protocol/lufa/LUFA-git/LUFA/Drivers/USB/Core/AVR8/../AVR8/Endpoint_AVR8.h **** 
   5:/users/hunter/downloads/tmk_core/protocol/lufa/LUFA-git/LUFA/Drivers/USB/Core/AVR8/../AVR8/Endpoint_AVR8.h ****   dean [at] fourwalledcubicle [dot] com
   6:/users/hunter/downloads/tmk_core/protocol/lufa/LUFA-git/LUFA/Drivers/USB/Core/AVR8/../AVR8/Endpoint_AVR8.h ****            www.lufa-lib.org
   7:/users/hunter/downloads/tmk_core/protocol/lufa/LUFA-git/LUFA/Drivers/USB/Core/AVR8/../AVR8/Endpoint_AVR8.h **** */
   8:/users/hunter/downloads/tmk_core/protocol/lufa/LUFA-git/LUFA/Drivers/USB/Core/AVR8/../AVR8/Endpoint_AVR8.h **** 
   9:/users/hunter/downloads/tmk_core/protocol/lufa/LUFA-git/LUFA/Drivers/USB/Core/AVR8/../AVR8/Endpoint_AVR8.h **** /*
  10:/users/hunter/downloads/tmk_core/protocol/lufa/LUFA-git/LUFA/Drivers/USB/Core/AVR8/../AVR8/Endpoint_AVR8.h ****   Copyright 2014  Dean Camera (dean [at] fourwalledcubicle [dot] com)
  11:/users/hunter/downloads/tmk_core/protocol/lufa/LUFA-git/LUFA/Drivers/USB/Core/AVR8/../AVR8/Endpoint_AVR8.h **** 
  12:/users/hunter/downloads/tmk_core/protocol/lufa/LUFA-git/LUFA/Drivers/USB/Core/AVR8/../AVR8/Endpoint_AVR8.h ****   Permission to use, copy, modify, distribute, and sell this
  13:/users/hunter/downloads/tmk_core/protocol/lufa/LUFA-git/LUFA/Drivers/USB/Core/AVR8/../AVR8/Endpoint_AVR8.h ****   software and its documentation for any purpose is hereby granted
  14:/users/hunter/downloads/tmk_core/protocol/lufa/LUFA-git/LUFA/Drivers/USB/Core/AVR8/../AVR8/Endpoint_AVR8.h ****   without fee, provided that the above copyright notice appear in
  15:/users/hunter/downloads/tmk_core/protocol/lufa/LUFA-git/LUFA/Drivers/USB/Core/AVR8/../AVR8/Endpoint_AVR8.h ****   all copies and that both that the copyright notice and this
  16:/users/hunter/downloads/tmk_core/protocol/lufa/LUFA-git/LUFA/Drivers/USB/Core/AVR8/../AVR8/Endpoint_AVR8.h ****   permission notice and warranty disclaimer appear in supporting
  17:/users/hunter/downloads/tmk_core/protocol/lufa/LUFA-git/LUFA/Drivers/USB/Core/AVR8/../AVR8/Endpoint_AVR8.h ****   documentation, and that the name of the author not be used in
  18:/users/hunter/downloads/tmk_core/protocol/lufa/LUFA-git/LUFA/Drivers/USB/Core/AVR8/../AVR8/Endpoint_AVR8.h ****   advertising or publicity pertaining to distribution of the
  19:/users/hunter/downloads/tmk_core/protocol/lufa/LUFA-git/LUFA/Drivers/USB/Core/AVR8/../AVR8/Endpoint_AVR8.h ****   software without specific, written prior permission.
  20:/users/hunter/downloads/tmk_core/protocol/lufa/LUFA-git/LUFA/Drivers/USB/Core/AVR8/../AVR8/Endpoint_AVR8.h **** 
  21:/users/hunter/downloads/tmk_core/protocol/lufa/LUFA-git/LUFA/Drivers/USB/Core/AVR8/../AVR8/Endpoint_AVR8.h ****   The author disclaims all warranties with regard to this
  22:/users/hunter/downloads/tmk_core/protocol/lufa/LUFA-git/LUFA/Drivers/USB/Core/AVR8/../AVR8/Endpoint_AVR8.h ****   software, including all implied warranties of merchantability
  23:/users/hunter/downloads/tmk_core/protocol/lufa/LUFA-git/LUFA/Drivers/USB/Core/AVR8/../AVR8/Endpoint_AVR8.h ****   and fitness.  In no event shall the author be liable for any
  24:/users/hunter/downloads/tmk_core/protocol/lufa/LUFA-git/LUFA/Drivers/USB/Core/AVR8/../AVR8/Endpoint_AVR8.h ****   special, indirect or consequential damages or any damages
  25:/users/hunter/downloads/tmk_core/protocol/lufa/LUFA-git/LUFA/Drivers/USB/Core/AVR8/../AVR8/Endpoint_AVR8.h ****   whatsoever resulting from loss of use, data or profits, whether
  26:/users/hunter/downloads/tmk_core/protocol/lufa/LUFA-git/LUFA/Drivers/USB/Core/AVR8/../AVR8/Endpoint_AVR8.h ****   in an action of contract, negligence or other tortious action,
  27:/users/hunter/downloads/tmk_core/protocol/lufa/LUFA-git/LUFA/Drivers/USB/Core/AVR8/../AVR8/Endpoint_AVR8.h ****   arising out of or in connection with the use or performance of
  28:/users/hunter/downloads/tmk_core/protocol/lufa/LUFA-git/LUFA/Drivers/USB/Core/AVR8/../AVR8/Endpoint_AVR8.h ****   this software.
  29:/users/hunter/downloads/tmk_core/protocol/lufa/LUFA-git/LUFA/Drivers/USB/Core/AVR8/../AVR8/Endpoint_AVR8.h **** */
  30:/users/hunter/downloads/tmk_core/protocol/lufa/LUFA-git/LUFA/Drivers/USB/Core/AVR8/../AVR8/Endpoint_AVR8.h **** 
  31:/users/hunter/downloads/tmk_core/protocol/lufa/LUFA-git/LUFA/Drivers/USB/Core/AVR8/../AVR8/Endpoint_AVR8.h **** /** \file
  32:/users/hunter/downloads/tmk_core/protocol/lufa/LUFA-git/LUFA/Drivers/USB/Core/AVR8/../AVR8/Endpoint_AVR8.h ****  *  \brief USB Endpoint definitions for the AVR8 microcontrollers.
  33:/users/hunter/downloads/tmk_core/protocol/lufa/LUFA-git/LUFA/Drivers/USB/Core/AVR8/../AVR8/Endpoint_AVR8.h ****  *  \copydetails Group_EndpointManagement_AVR8
  34:/users/hunter/downloads/tmk_core/protocol/lufa/LUFA-git/LUFA/Drivers/USB/Core/AVR8/../AVR8/Endpoint_AVR8.h ****  *
  35:/users/hunter/downloads/tmk_core/protocol/lufa/LUFA-git/LUFA/Drivers/USB/Core/AVR8/../AVR8/Endpoint_AVR8.h ****  *  \note This file should not be included directly. It is automatically included as needed by the 
  36:/users/hunter/downloads/tmk_core/protocol/lufa/LUFA-git/LUFA/Drivers/USB/Core/AVR8/../AVR8/Endpoint_AVR8.h ****  *        dispatch header located in LUFA/Drivers/USB/USB.h.
  37:/users/hunter/downloads/tmk_core/protocol/lufa/LUFA-git/LUFA/Drivers/USB/Core/AVR8/../AVR8/Endpoint_AVR8.h ****  */
  38:/users/hunter/downloads/tmk_core/protocol/lufa/LUFA-git/LUFA/Drivers/USB/Core/AVR8/../AVR8/Endpoint_AVR8.h **** 
  39:/users/hunter/downloads/tmk_core/protocol/lufa/LUFA-git/LUFA/Drivers/USB/Core/AVR8/../AVR8/Endpoint_AVR8.h **** /** \ingroup Group_EndpointRW
  40:/users/hunter/downloads/tmk_core/protocol/lufa/LUFA-git/LUFA/Drivers/USB/Core/AVR8/../AVR8/Endpoint_AVR8.h ****  *  \defgroup Group_EndpointRW_AVR8 Endpoint Data Reading and Writing (AVR8)
  41:/users/hunter/downloads/tmk_core/protocol/lufa/LUFA-git/LUFA/Drivers/USB/Core/AVR8/../AVR8/Endpoint_AVR8.h ****  *  \brief Endpoint data read/write definitions for the Atmel AVR8 architecture.
  42:/users/hunter/downloads/tmk_core/protocol/lufa/LUFA-git/LUFA/Drivers/USB/Core/AVR8/../AVR8/Endpoint_AVR8.h ****  *
  43:/users/hunter/downloads/tmk_core/protocol/lufa/LUFA-git/LUFA/Drivers/USB/Core/AVR8/../AVR8/Endpoint_AVR8.h ****  *  Functions, macros, variables, enums and types related to data reading and writing from and to e
  44:/users/hunter/downloads/tmk_core/protocol/lufa/LUFA-git/LUFA/Drivers/USB/Core/AVR8/../AVR8/Endpoint_AVR8.h ****  */
  45:/users/hunter/downloads/tmk_core/protocol/lufa/LUFA-git/LUFA/Drivers/USB/Core/AVR8/../AVR8/Endpoint_AVR8.h **** 
  46:/users/hunter/downloads/tmk_core/protocol/lufa/LUFA-git/LUFA/Drivers/USB/Core/AVR8/../AVR8/Endpoint_AVR8.h **** /** \ingroup Group_EndpointPrimitiveRW
  47:/users/hunter/downloads/tmk_core/protocol/lufa/LUFA-git/LUFA/Drivers/USB/Core/AVR8/../AVR8/Endpoint_AVR8.h ****  *  \defgroup Group_EndpointPrimitiveRW_AVR8 Read/Write of Primitive Data Types (AVR8)
  48:/users/hunter/downloads/tmk_core/protocol/lufa/LUFA-git/LUFA/Drivers/USB/Core/AVR8/../AVR8/Endpoint_AVR8.h ****  *  \brief Endpoint primitive read/write definitions for the Atmel AVR8 architecture.
  49:/users/hunter/downloads/tmk_core/protocol/lufa/LUFA-git/LUFA/Drivers/USB/Core/AVR8/../AVR8/Endpoint_AVR8.h ****  *
  50:/users/hunter/downloads/tmk_core/protocol/lufa/LUFA-git/LUFA/Drivers/USB/Core/AVR8/../AVR8/Endpoint_AVR8.h ****  *  Functions, macros, variables, enums and types related to data reading and writing of primitive 
  51:/users/hunter/downloads/tmk_core/protocol/lufa/LUFA-git/LUFA/Drivers/USB/Core/AVR8/../AVR8/Endpoint_AVR8.h ****  *  from and to endpoints.
  52:/users/hunter/downloads/tmk_core/protocol/lufa/LUFA-git/LUFA/Drivers/USB/Core/AVR8/../AVR8/Endpoint_AVR8.h ****  */
  53:/users/hunter/downloads/tmk_core/protocol/lufa/LUFA-git/LUFA/Drivers/USB/Core/AVR8/../AVR8/Endpoint_AVR8.h **** 
  54:/users/hunter/downloads/tmk_core/protocol/lufa/LUFA-git/LUFA/Drivers/USB/Core/AVR8/../AVR8/Endpoint_AVR8.h **** /** \ingroup Group_EndpointPacketManagement
  55:/users/hunter/downloads/tmk_core/protocol/lufa/LUFA-git/LUFA/Drivers/USB/Core/AVR8/../AVR8/Endpoint_AVR8.h ****  *  \defgroup Group_EndpointPacketManagement_AVR8 Endpoint Packet Management (AVR8)
  56:/users/hunter/downloads/tmk_core/protocol/lufa/LUFA-git/LUFA/Drivers/USB/Core/AVR8/../AVR8/Endpoint_AVR8.h ****  *  \brief Endpoint packet management definitions for the Atmel AVR8 architecture.
  57:/users/hunter/downloads/tmk_core/protocol/lufa/LUFA-git/LUFA/Drivers/USB/Core/AVR8/../AVR8/Endpoint_AVR8.h ****  *
  58:/users/hunter/downloads/tmk_core/protocol/lufa/LUFA-git/LUFA/Drivers/USB/Core/AVR8/../AVR8/Endpoint_AVR8.h ****  *  Functions, macros, variables, enums and types related to packet management of endpoints.
  59:/users/hunter/downloads/tmk_core/protocol/lufa/LUFA-git/LUFA/Drivers/USB/Core/AVR8/../AVR8/Endpoint_AVR8.h ****  */
  60:/users/hunter/downloads/tmk_core/protocol/lufa/LUFA-git/LUFA/Drivers/USB/Core/AVR8/../AVR8/Endpoint_AVR8.h **** 
  61:/users/hunter/downloads/tmk_core/protocol/lufa/LUFA-git/LUFA/Drivers/USB/Core/AVR8/../AVR8/Endpoint_AVR8.h **** /** \ingroup Group_EndpointManagement
  62:/users/hunter/downloads/tmk_core/protocol/lufa/LUFA-git/LUFA/Drivers/USB/Core/AVR8/../AVR8/Endpoint_AVR8.h ****  *  \defgroup Group_EndpointManagement_AVR8 Endpoint Management (AVR8)
  63:/users/hunter/downloads/tmk_core/protocol/lufa/LUFA-git/LUFA/Drivers/USB/Core/AVR8/../AVR8/Endpoint_AVR8.h ****  *  \brief Endpoint management definitions for the Atmel AVR8 architecture.
  64:/users/hunter/downloads/tmk_core/protocol/lufa/LUFA-git/LUFA/Drivers/USB/Core/AVR8/../AVR8/Endpoint_AVR8.h ****  *
  65:/users/hunter/downloads/tmk_core/protocol/lufa/LUFA-git/LUFA/Drivers/USB/Core/AVR8/../AVR8/Endpoint_AVR8.h ****  *  Functions, macros and enums related to endpoint management when in USB Device mode. This
  66:/users/hunter/downloads/tmk_core/protocol/lufa/LUFA-git/LUFA/Drivers/USB/Core/AVR8/../AVR8/Endpoint_AVR8.h ****  *  module contains the endpoint management macros, as well as endpoint interrupt and data
  67:/users/hunter/downloads/tmk_core/protocol/lufa/LUFA-git/LUFA/Drivers/USB/Core/AVR8/../AVR8/Endpoint_AVR8.h ****  *  send/receive functions for various data types.
  68:/users/hunter/downloads/tmk_core/protocol/lufa/LUFA-git/LUFA/Drivers/USB/Core/AVR8/../AVR8/Endpoint_AVR8.h ****  *
  69:/users/hunter/downloads/tmk_core/protocol/lufa/LUFA-git/LUFA/Drivers/USB/Core/AVR8/../AVR8/Endpoint_AVR8.h ****  *  @{
  70:/users/hunter/downloads/tmk_core/protocol/lufa/LUFA-git/LUFA/Drivers/USB/Core/AVR8/../AVR8/Endpoint_AVR8.h ****  */
  71:/users/hunter/downloads/tmk_core/protocol/lufa/LUFA-git/LUFA/Drivers/USB/Core/AVR8/../AVR8/Endpoint_AVR8.h **** 
  72:/users/hunter/downloads/tmk_core/protocol/lufa/LUFA-git/LUFA/Drivers/USB/Core/AVR8/../AVR8/Endpoint_AVR8.h **** #ifndef __ENDPOINT_AVR8_H__
  73:/users/hunter/downloads/tmk_core/protocol/lufa/LUFA-git/LUFA/Drivers/USB/Core/AVR8/../AVR8/Endpoint_AVR8.h **** #define __ENDPOINT_AVR8_H__
  74:/users/hunter/downloads/tmk_core/protocol/lufa/LUFA-git/LUFA/Drivers/USB/Core/AVR8/../AVR8/Endpoint_AVR8.h **** 
  75:/users/hunter/downloads/tmk_core/protocol/lufa/LUFA-git/LUFA/Drivers/USB/Core/AVR8/../AVR8/Endpoint_AVR8.h **** 	/* Includes: */
  76:/users/hunter/downloads/tmk_core/protocol/lufa/LUFA-git/LUFA/Drivers/USB/Core/AVR8/../AVR8/Endpoint_AVR8.h **** 		#include "../../../../Common/Common.h"
  77:/users/hunter/downloads/tmk_core/protocol/lufa/LUFA-git/LUFA/Drivers/USB/Core/AVR8/../AVR8/Endpoint_AVR8.h **** 		#include "../USBTask.h"
  78:/users/hunter/downloads/tmk_core/protocol/lufa/LUFA-git/LUFA/Drivers/USB/Core/AVR8/../AVR8/Endpoint_AVR8.h **** 		#include "../USBInterrupt.h"
  79:/users/hunter/downloads/tmk_core/protocol/lufa/LUFA-git/LUFA/Drivers/USB/Core/AVR8/../AVR8/Endpoint_AVR8.h **** 
  80:/users/hunter/downloads/tmk_core/protocol/lufa/LUFA-git/LUFA/Drivers/USB/Core/AVR8/../AVR8/Endpoint_AVR8.h **** 	/* Enable C linkage for C++ Compilers: */
  81:/users/hunter/downloads/tmk_core/protocol/lufa/LUFA-git/LUFA/Drivers/USB/Core/AVR8/../AVR8/Endpoint_AVR8.h **** 		#if defined(__cplusplus)
  82:/users/hunter/downloads/tmk_core/protocol/lufa/LUFA-git/LUFA/Drivers/USB/Core/AVR8/../AVR8/Endpoint_AVR8.h **** 			extern "C" {
  83:/users/hunter/downloads/tmk_core/protocol/lufa/LUFA-git/LUFA/Drivers/USB/Core/AVR8/../AVR8/Endpoint_AVR8.h **** 		#endif
  84:/users/hunter/downloads/tmk_core/protocol/lufa/LUFA-git/LUFA/Drivers/USB/Core/AVR8/../AVR8/Endpoint_AVR8.h **** 
  85:/users/hunter/downloads/tmk_core/protocol/lufa/LUFA-git/LUFA/Drivers/USB/Core/AVR8/../AVR8/Endpoint_AVR8.h **** 	/* Preprocessor Checks: */
  86:/users/hunter/downloads/tmk_core/protocol/lufa/LUFA-git/LUFA/Drivers/USB/Core/AVR8/../AVR8/Endpoint_AVR8.h **** 		#if !defined(__INCLUDE_FROM_USB_DRIVER)
  87:/users/hunter/downloads/tmk_core/protocol/lufa/LUFA-git/LUFA/Drivers/USB/Core/AVR8/../AVR8/Endpoint_AVR8.h **** 			#error Do not include this file directly. Include LUFA/Drivers/USB/USB.h instead.
  88:/users/hunter/downloads/tmk_core/protocol/lufa/LUFA-git/LUFA/Drivers/USB/Core/AVR8/../AVR8/Endpoint_AVR8.h **** 		#endif
  89:/users/hunter/downloads/tmk_core/protocol/lufa/LUFA-git/LUFA/Drivers/USB/Core/AVR8/../AVR8/Endpoint_AVR8.h **** 
  90:/users/hunter/downloads/tmk_core/protocol/lufa/LUFA-git/LUFA/Drivers/USB/Core/AVR8/../AVR8/Endpoint_AVR8.h **** 	/* Private Interface - For use in library only: */
  91:/users/hunter/downloads/tmk_core/protocol/lufa/LUFA-git/LUFA/Drivers/USB/Core/AVR8/../AVR8/Endpoint_AVR8.h **** 	#if !defined(__DOXYGEN__)
  92:/users/hunter/downloads/tmk_core/protocol/lufa/LUFA-git/LUFA/Drivers/USB/Core/AVR8/../AVR8/Endpoint_AVR8.h **** 		/* Inline Functions: */
  93:/users/hunter/downloads/tmk_core/protocol/lufa/LUFA-git/LUFA/Drivers/USB/Core/AVR8/../AVR8/Endpoint_AVR8.h **** 			static inline uint8_t Endpoint_BytesToEPSizeMask(const uint16_t Bytes) ATTR_WARN_UNUSED_RESULT A
  94:/users/hunter/downloads/tmk_core/protocol/lufa/LUFA-git/LUFA/Drivers/USB/Core/AVR8/../AVR8/Endpoint_AVR8.h **** 			                                                                       ATTR_ALWAYS_INLINE;
  95:/users/hunter/downloads/tmk_core/protocol/lufa/LUFA-git/LUFA/Drivers/USB/Core/AVR8/../AVR8/Endpoint_AVR8.h **** 			static inline uint8_t Endpoint_BytesToEPSizeMask(const uint16_t Bytes)
  96:/users/hunter/downloads/tmk_core/protocol/lufa/LUFA-git/LUFA/Drivers/USB/Core/AVR8/../AVR8/Endpoint_AVR8.h **** 			{
  97:/users/hunter/downloads/tmk_core/protocol/lufa/LUFA-git/LUFA/Drivers/USB/Core/AVR8/../AVR8/Endpoint_AVR8.h **** 				uint8_t  MaskVal    = 0;
  98:/users/hunter/downloads/tmk_core/protocol/lufa/LUFA-git/LUFA/Drivers/USB/Core/AVR8/../AVR8/Endpoint_AVR8.h **** 				uint16_t CheckBytes = 8;
  99:/users/hunter/downloads/tmk_core/protocol/lufa/LUFA-git/LUFA/Drivers/USB/Core/AVR8/../AVR8/Endpoint_AVR8.h **** 
 100:/users/hunter/downloads/tmk_core/protocol/lufa/LUFA-git/LUFA/Drivers/USB/Core/AVR8/../AVR8/Endpoint_AVR8.h **** 				while (CheckBytes < Bytes)
 101:/users/hunter/downloads/tmk_core/protocol/lufa/LUFA-git/LUFA/Drivers/USB/Core/AVR8/../AVR8/Endpoint_AVR8.h **** 				{
 102:/users/hunter/downloads/tmk_core/protocol/lufa/LUFA-git/LUFA/Drivers/USB/Core/AVR8/../AVR8/Endpoint_AVR8.h **** 					MaskVal++;
 103:/users/hunter/downloads/tmk_core/protocol/lufa/LUFA-git/LUFA/Drivers/USB/Core/AVR8/../AVR8/Endpoint_AVR8.h **** 					CheckBytes <<= 1;
 104:/users/hunter/downloads/tmk_core/protocol/lufa/LUFA-git/LUFA/Drivers/USB/Core/AVR8/../AVR8/Endpoint_AVR8.h **** 				}
 105:/users/hunter/downloads/tmk_core/protocol/lufa/LUFA-git/LUFA/Drivers/USB/Core/AVR8/../AVR8/Endpoint_AVR8.h **** 
 106:/users/hunter/downloads/tmk_core/protocol/lufa/LUFA-git/LUFA/Drivers/USB/Core/AVR8/../AVR8/Endpoint_AVR8.h **** 				return (MaskVal << EPSIZE0);
 107:/users/hunter/downloads/tmk_core/protocol/lufa/LUFA-git/LUFA/Drivers/USB/Core/AVR8/../AVR8/Endpoint_AVR8.h **** 			}
 108:/users/hunter/downloads/tmk_core/protocol/lufa/LUFA-git/LUFA/Drivers/USB/Core/AVR8/../AVR8/Endpoint_AVR8.h **** 
 109:/users/hunter/downloads/tmk_core/protocol/lufa/LUFA-git/LUFA/Drivers/USB/Core/AVR8/../AVR8/Endpoint_AVR8.h **** 		/* Function Prototypes: */
 110:/users/hunter/downloads/tmk_core/protocol/lufa/LUFA-git/LUFA/Drivers/USB/Core/AVR8/../AVR8/Endpoint_AVR8.h **** 			void Endpoint_ClearEndpoints(void);
 111:/users/hunter/downloads/tmk_core/protocol/lufa/LUFA-git/LUFA/Drivers/USB/Core/AVR8/../AVR8/Endpoint_AVR8.h **** 			bool Endpoint_ConfigureEndpoint_Prv(const uint8_t Number,
 112:/users/hunter/downloads/tmk_core/protocol/lufa/LUFA-git/LUFA/Drivers/USB/Core/AVR8/../AVR8/Endpoint_AVR8.h **** 			                                    const uint8_t UECFG0XData,
 113:/users/hunter/downloads/tmk_core/protocol/lufa/LUFA-git/LUFA/Drivers/USB/Core/AVR8/../AVR8/Endpoint_AVR8.h **** 			                                    const uint8_t UECFG1XData);
 114:/users/hunter/downloads/tmk_core/protocol/lufa/LUFA-git/LUFA/Drivers/USB/Core/AVR8/../AVR8/Endpoint_AVR8.h **** 
 115:/users/hunter/downloads/tmk_core/protocol/lufa/LUFA-git/LUFA/Drivers/USB/Core/AVR8/../AVR8/Endpoint_AVR8.h **** 	#endif
 116:/users/hunter/downloads/tmk_core/protocol/lufa/LUFA-git/LUFA/Drivers/USB/Core/AVR8/../AVR8/Endpoint_AVR8.h **** 
 117:/users/hunter/downloads/tmk_core/protocol/lufa/LUFA-git/LUFA/Drivers/USB/Core/AVR8/../AVR8/Endpoint_AVR8.h **** 	/* Public Interface - May be used in end-application: */
 118:/users/hunter/downloads/tmk_core/protocol/lufa/LUFA-git/LUFA/Drivers/USB/Core/AVR8/../AVR8/Endpoint_AVR8.h **** 		/* Macros: */
 119:/users/hunter/downloads/tmk_core/protocol/lufa/LUFA-git/LUFA/Drivers/USB/Core/AVR8/../AVR8/Endpoint_AVR8.h **** 			#if (!defined(FIXED_CONTROL_ENDPOINT_SIZE) || defined(__DOXYGEN__))
 120:/users/hunter/downloads/tmk_core/protocol/lufa/LUFA-git/LUFA/Drivers/USB/Core/AVR8/../AVR8/Endpoint_AVR8.h **** 				/** Default size of the default control endpoint's bank, until altered by the control endpoint 
 121:/users/hunter/downloads/tmk_core/protocol/lufa/LUFA-git/LUFA/Drivers/USB/Core/AVR8/../AVR8/Endpoint_AVR8.h **** 				 *  value in the device descriptor. Not available if the \c FIXED_CONTROL_ENDPOINT_SIZE token i
 122:/users/hunter/downloads/tmk_core/protocol/lufa/LUFA-git/LUFA/Drivers/USB/Core/AVR8/../AVR8/Endpoint_AVR8.h **** 				 */
 123:/users/hunter/downloads/tmk_core/protocol/lufa/LUFA-git/LUFA/Drivers/USB/Core/AVR8/../AVR8/Endpoint_AVR8.h **** 				#define ENDPOINT_CONTROLEP_DEFAULT_SIZE     8
 124:/users/hunter/downloads/tmk_core/protocol/lufa/LUFA-git/LUFA/Drivers/USB/Core/AVR8/../AVR8/Endpoint_AVR8.h **** 			#endif
 125:/users/hunter/downloads/tmk_core/protocol/lufa/LUFA-git/LUFA/Drivers/USB/Core/AVR8/../AVR8/Endpoint_AVR8.h **** 
 126:/users/hunter/downloads/tmk_core/protocol/lufa/LUFA-git/LUFA/Drivers/USB/Core/AVR8/../AVR8/Endpoint_AVR8.h **** 			#if !defined(CONTROL_ONLY_DEVICE) || defined(__DOXYGEN__)
 127:/users/hunter/downloads/tmk_core/protocol/lufa/LUFA-git/LUFA/Drivers/USB/Core/AVR8/../AVR8/Endpoint_AVR8.h **** 				#if defined(USB_SERIES_4_AVR) || defined(USB_SERIES_6_AVR) || defined(USB_SERIES_7_AVR) || defi
 128:/users/hunter/downloads/tmk_core/protocol/lufa/LUFA-git/LUFA/Drivers/USB/Core/AVR8/../AVR8/Endpoint_AVR8.h **** 					/** Total number of endpoints (including the default control endpoint at address 0) which may
 129:/users/hunter/downloads/tmk_core/protocol/lufa/LUFA-git/LUFA/Drivers/USB/Core/AVR8/../AVR8/Endpoint_AVR8.h **** 					 *  be used in the device. Different USB AVR models support different amounts of endpoints,
 130:/users/hunter/downloads/tmk_core/protocol/lufa/LUFA-git/LUFA/Drivers/USB/Core/AVR8/../AVR8/Endpoint_AVR8.h **** 					 *  this value reflects the maximum number of endpoints for the currently selected AVR model.
 131:/users/hunter/downloads/tmk_core/protocol/lufa/LUFA-git/LUFA/Drivers/USB/Core/AVR8/../AVR8/Endpoint_AVR8.h **** 					 */
 132:/users/hunter/downloads/tmk_core/protocol/lufa/LUFA-git/LUFA/Drivers/USB/Core/AVR8/../AVR8/Endpoint_AVR8.h **** 					#define ENDPOINT_TOTAL_ENDPOINTS        7
 133:/users/hunter/downloads/tmk_core/protocol/lufa/LUFA-git/LUFA/Drivers/USB/Core/AVR8/../AVR8/Endpoint_AVR8.h **** 				#else
 134:/users/hunter/downloads/tmk_core/protocol/lufa/LUFA-git/LUFA/Drivers/USB/Core/AVR8/../AVR8/Endpoint_AVR8.h **** 					#define ENDPOINT_TOTAL_ENDPOINTS        5
 135:/users/hunter/downloads/tmk_core/protocol/lufa/LUFA-git/LUFA/Drivers/USB/Core/AVR8/../AVR8/Endpoint_AVR8.h **** 				#endif
 136:/users/hunter/downloads/tmk_core/protocol/lufa/LUFA-git/LUFA/Drivers/USB/Core/AVR8/../AVR8/Endpoint_AVR8.h **** 			#else
 137:/users/hunter/downloads/tmk_core/protocol/lufa/LUFA-git/LUFA/Drivers/USB/Core/AVR8/../AVR8/Endpoint_AVR8.h **** 				#define ENDPOINT_TOTAL_ENDPOINTS            1
 138:/users/hunter/downloads/tmk_core/protocol/lufa/LUFA-git/LUFA/Drivers/USB/Core/AVR8/../AVR8/Endpoint_AVR8.h **** 			#endif
 139:/users/hunter/downloads/tmk_core/protocol/lufa/LUFA-git/LUFA/Drivers/USB/Core/AVR8/../AVR8/Endpoint_AVR8.h **** 
 140:/users/hunter/downloads/tmk_core/protocol/lufa/LUFA-git/LUFA/Drivers/USB/Core/AVR8/../AVR8/Endpoint_AVR8.h **** 		/* Enums: */
 141:/users/hunter/downloads/tmk_core/protocol/lufa/LUFA-git/LUFA/Drivers/USB/Core/AVR8/../AVR8/Endpoint_AVR8.h **** 			/** Enum for the possible error return codes of the \ref Endpoint_WaitUntilReady() function.
 142:/users/hunter/downloads/tmk_core/protocol/lufa/LUFA-git/LUFA/Drivers/USB/Core/AVR8/../AVR8/Endpoint_AVR8.h **** 			 *
 143:/users/hunter/downloads/tmk_core/protocol/lufa/LUFA-git/LUFA/Drivers/USB/Core/AVR8/../AVR8/Endpoint_AVR8.h **** 			 *  \ingroup Group_EndpointRW_AVR8
 144:/users/hunter/downloads/tmk_core/protocol/lufa/LUFA-git/LUFA/Drivers/USB/Core/AVR8/../AVR8/Endpoint_AVR8.h **** 			 */
 145:/users/hunter/downloads/tmk_core/protocol/lufa/LUFA-git/LUFA/Drivers/USB/Core/AVR8/../AVR8/Endpoint_AVR8.h **** 			enum Endpoint_WaitUntilReady_ErrorCodes_t
 146:/users/hunter/downloads/tmk_core/protocol/lufa/LUFA-git/LUFA/Drivers/USB/Core/AVR8/../AVR8/Endpoint_AVR8.h **** 			{
 147:/users/hunter/downloads/tmk_core/protocol/lufa/LUFA-git/LUFA/Drivers/USB/Core/AVR8/../AVR8/Endpoint_AVR8.h **** 				ENDPOINT_READYWAIT_NoError                 = 0, /**< Endpoint is ready for next packet, no erro
 148:/users/hunter/downloads/tmk_core/protocol/lufa/LUFA-git/LUFA/Drivers/USB/Core/AVR8/../AVR8/Endpoint_AVR8.h **** 				ENDPOINT_READYWAIT_EndpointStalled         = 1, /**< The endpoint was stalled during the stream
 149:/users/hunter/downloads/tmk_core/protocol/lufa/LUFA-git/LUFA/Drivers/USB/Core/AVR8/../AVR8/Endpoint_AVR8.h **** 				                                                 *   transfer by the host or device.
 150:/users/hunter/downloads/tmk_core/protocol/lufa/LUFA-git/LUFA/Drivers/USB/Core/AVR8/../AVR8/Endpoint_AVR8.h **** 				                                                 */
 151:/users/hunter/downloads/tmk_core/protocol/lufa/LUFA-git/LUFA/Drivers/USB/Core/AVR8/../AVR8/Endpoint_AVR8.h **** 				ENDPOINT_READYWAIT_DeviceDisconnected      = 2,	/**< Device was disconnected from the host whil
 152:/users/hunter/downloads/tmk_core/protocol/lufa/LUFA-git/LUFA/Drivers/USB/Core/AVR8/../AVR8/Endpoint_AVR8.h **** 				                                                 *   waiting for the endpoint to become ready.
 153:/users/hunter/downloads/tmk_core/protocol/lufa/LUFA-git/LUFA/Drivers/USB/Core/AVR8/../AVR8/Endpoint_AVR8.h **** 				                                                 */
 154:/users/hunter/downloads/tmk_core/protocol/lufa/LUFA-git/LUFA/Drivers/USB/Core/AVR8/../AVR8/Endpoint_AVR8.h **** 				ENDPOINT_READYWAIT_BusSuspended            = 3, /**< The USB bus has been suspended by the host
 155:/users/hunter/downloads/tmk_core/protocol/lufa/LUFA-git/LUFA/Drivers/USB/Core/AVR8/../AVR8/Endpoint_AVR8.h **** 				                                                 *   no USB endpoint traffic can occur until th
 156:/users/hunter/downloads/tmk_core/protocol/lufa/LUFA-git/LUFA/Drivers/USB/Core/AVR8/../AVR8/Endpoint_AVR8.h **** 				                                                 *   has resumed.
 157:/users/hunter/downloads/tmk_core/protocol/lufa/LUFA-git/LUFA/Drivers/USB/Core/AVR8/../AVR8/Endpoint_AVR8.h **** 				                                                 */
 158:/users/hunter/downloads/tmk_core/protocol/lufa/LUFA-git/LUFA/Drivers/USB/Core/AVR8/../AVR8/Endpoint_AVR8.h **** 				ENDPOINT_READYWAIT_Timeout                 = 4, /**< The host failed to accept or send the next
 159:/users/hunter/downloads/tmk_core/protocol/lufa/LUFA-git/LUFA/Drivers/USB/Core/AVR8/../AVR8/Endpoint_AVR8.h **** 				                                                 *   within the software timeout period set by 
 160:/users/hunter/downloads/tmk_core/protocol/lufa/LUFA-git/LUFA/Drivers/USB/Core/AVR8/../AVR8/Endpoint_AVR8.h **** 				                                                 *   \ref USB_STREAM_TIMEOUT_MS macro.
 161:/users/hunter/downloads/tmk_core/protocol/lufa/LUFA-git/LUFA/Drivers/USB/Core/AVR8/../AVR8/Endpoint_AVR8.h **** 				                                                 */
 162:/users/hunter/downloads/tmk_core/protocol/lufa/LUFA-git/LUFA/Drivers/USB/Core/AVR8/../AVR8/Endpoint_AVR8.h **** 			};
 163:/users/hunter/downloads/tmk_core/protocol/lufa/LUFA-git/LUFA/Drivers/USB/Core/AVR8/../AVR8/Endpoint_AVR8.h **** 
 164:/users/hunter/downloads/tmk_core/protocol/lufa/LUFA-git/LUFA/Drivers/USB/Core/AVR8/../AVR8/Endpoint_AVR8.h **** 		/* Inline Functions: */
 165:/users/hunter/downloads/tmk_core/protocol/lufa/LUFA-git/LUFA/Drivers/USB/Core/AVR8/../AVR8/Endpoint_AVR8.h **** 			/** Configures the specified endpoint address with the given endpoint type, bank size and number
 166:/users/hunter/downloads/tmk_core/protocol/lufa/LUFA-git/LUFA/Drivers/USB/Core/AVR8/../AVR8/Endpoint_AVR8.h **** 			 *  banks. Once configured, the endpoint may be read from or written to, depending on its direct
 167:/users/hunter/downloads/tmk_core/protocol/lufa/LUFA-git/LUFA/Drivers/USB/Core/AVR8/../AVR8/Endpoint_AVR8.h **** 			 *
 168:/users/hunter/downloads/tmk_core/protocol/lufa/LUFA-git/LUFA/Drivers/USB/Core/AVR8/../AVR8/Endpoint_AVR8.h **** 			 *  \param[in] Address    Endpoint address to configure.
 169:/users/hunter/downloads/tmk_core/protocol/lufa/LUFA-git/LUFA/Drivers/USB/Core/AVR8/../AVR8/Endpoint_AVR8.h **** 			 *
 170:/users/hunter/downloads/tmk_core/protocol/lufa/LUFA-git/LUFA/Drivers/USB/Core/AVR8/../AVR8/Endpoint_AVR8.h **** 			 *  \param[in] Type       Type of endpoint to configure, a \c EP_TYPE_* mask. Not all endpoint t
 171:/users/hunter/downloads/tmk_core/protocol/lufa/LUFA-git/LUFA/Drivers/USB/Core/AVR8/../AVR8/Endpoint_AVR8.h **** 			 *                        are available on Low Speed USB devices - refer to the USB 2.0 specific
 172:/users/hunter/downloads/tmk_core/protocol/lufa/LUFA-git/LUFA/Drivers/USB/Core/AVR8/../AVR8/Endpoint_AVR8.h **** 			 *
 173:/users/hunter/downloads/tmk_core/protocol/lufa/LUFA-git/LUFA/Drivers/USB/Core/AVR8/../AVR8/Endpoint_AVR8.h **** 			 *  \param[in] Size       Size of the endpoint's bank, where packets are stored before they are 
 174:/users/hunter/downloads/tmk_core/protocol/lufa/LUFA-git/LUFA/Drivers/USB/Core/AVR8/../AVR8/Endpoint_AVR8.h **** 			 *                        to the USB host, or after they have been received from the USB host (d
 175:/users/hunter/downloads/tmk_core/protocol/lufa/LUFA-git/LUFA/Drivers/USB/Core/AVR8/../AVR8/Endpoint_AVR8.h **** 			 *                        the endpoint's data direction). The bank size must indicate the maximu
 176:/users/hunter/downloads/tmk_core/protocol/lufa/LUFA-git/LUFA/Drivers/USB/Core/AVR8/../AVR8/Endpoint_AVR8.h **** 			 *                        that the endpoint can handle.
 177:/users/hunter/downloads/tmk_core/protocol/lufa/LUFA-git/LUFA/Drivers/USB/Core/AVR8/../AVR8/Endpoint_AVR8.h **** 			 *
 178:/users/hunter/downloads/tmk_core/protocol/lufa/LUFA-git/LUFA/Drivers/USB/Core/AVR8/../AVR8/Endpoint_AVR8.h **** 			 *  \param[in] Banks      Number of banks to use for the endpoint being configured.
 179:/users/hunter/downloads/tmk_core/protocol/lufa/LUFA-git/LUFA/Drivers/USB/Core/AVR8/../AVR8/Endpoint_AVR8.h **** 			 *
 180:/users/hunter/downloads/tmk_core/protocol/lufa/LUFA-git/LUFA/Drivers/USB/Core/AVR8/../AVR8/Endpoint_AVR8.h **** 			 *  \attention When the \c ORDERED_EP_CONFIG compile time option is used, Endpoints <b>must</b> 
 181:/users/hunter/downloads/tmk_core/protocol/lufa/LUFA-git/LUFA/Drivers/USB/Core/AVR8/../AVR8/Endpoint_AVR8.h **** 			 *             ascending order, or bank corruption will occur.
 182:/users/hunter/downloads/tmk_core/protocol/lufa/LUFA-git/LUFA/Drivers/USB/Core/AVR8/../AVR8/Endpoint_AVR8.h **** 			 *
 183:/users/hunter/downloads/tmk_core/protocol/lufa/LUFA-git/LUFA/Drivers/USB/Core/AVR8/../AVR8/Endpoint_AVR8.h **** 			 *  \note Different endpoints may have different maximum packet sizes based on the endpoint's in
 184:/users/hunter/downloads/tmk_core/protocol/lufa/LUFA-git/LUFA/Drivers/USB/Core/AVR8/../AVR8/Endpoint_AVR8.h **** 			 *        refer to the chosen microcontroller model's datasheet to determine the maximum bank si
 185:/users/hunter/downloads/tmk_core/protocol/lufa/LUFA-git/LUFA/Drivers/USB/Core/AVR8/../AVR8/Endpoint_AVR8.h **** 			 *        \n\n
 186:/users/hunter/downloads/tmk_core/protocol/lufa/LUFA-git/LUFA/Drivers/USB/Core/AVR8/../AVR8/Endpoint_AVR8.h **** 			 *
 187:/users/hunter/downloads/tmk_core/protocol/lufa/LUFA-git/LUFA/Drivers/USB/Core/AVR8/../AVR8/Endpoint_AVR8.h **** 			 *  \note The default control endpoint should not be manually configured by the user application
 188:/users/hunter/downloads/tmk_core/protocol/lufa/LUFA-git/LUFA/Drivers/USB/Core/AVR8/../AVR8/Endpoint_AVR8.h **** 			 *        it is automatically configured by the library internally.
 189:/users/hunter/downloads/tmk_core/protocol/lufa/LUFA-git/LUFA/Drivers/USB/Core/AVR8/../AVR8/Endpoint_AVR8.h **** 			 *        \n\n
 190:/users/hunter/downloads/tmk_core/protocol/lufa/LUFA-git/LUFA/Drivers/USB/Core/AVR8/../AVR8/Endpoint_AVR8.h **** 			 *
 191:/users/hunter/downloads/tmk_core/protocol/lufa/LUFA-git/LUFA/Drivers/USB/Core/AVR8/../AVR8/Endpoint_AVR8.h **** 			 *  \note This routine will automatically select the specified endpoint upon success. Upon failu
 192:/users/hunter/downloads/tmk_core/protocol/lufa/LUFA-git/LUFA/Drivers/USB/Core/AVR8/../AVR8/Endpoint_AVR8.h **** 			 *        which failed to reconfigure correctly will be selected.
 193:/users/hunter/downloads/tmk_core/protocol/lufa/LUFA-git/LUFA/Drivers/USB/Core/AVR8/../AVR8/Endpoint_AVR8.h **** 			 *
 194:/users/hunter/downloads/tmk_core/protocol/lufa/LUFA-git/LUFA/Drivers/USB/Core/AVR8/../AVR8/Endpoint_AVR8.h **** 			 *  \return Boolean \c true if the configuration succeeded, \c false otherwise.
 195:/users/hunter/downloads/tmk_core/protocol/lufa/LUFA-git/LUFA/Drivers/USB/Core/AVR8/../AVR8/Endpoint_AVR8.h **** 			 */
 196:/users/hunter/downloads/tmk_core/protocol/lufa/LUFA-git/LUFA/Drivers/USB/Core/AVR8/../AVR8/Endpoint_AVR8.h **** 			static inline bool Endpoint_ConfigureEndpoint(const uint8_t Address,
 197:/users/hunter/downloads/tmk_core/protocol/lufa/LUFA-git/LUFA/Drivers/USB/Core/AVR8/../AVR8/Endpoint_AVR8.h **** 			                                              const uint8_t Type,
 198:/users/hunter/downloads/tmk_core/protocol/lufa/LUFA-git/LUFA/Drivers/USB/Core/AVR8/../AVR8/Endpoint_AVR8.h **** 			                                              const uint16_t Size,
 199:/users/hunter/downloads/tmk_core/protocol/lufa/LUFA-git/LUFA/Drivers/USB/Core/AVR8/../AVR8/Endpoint_AVR8.h **** 			                                              const uint8_t Banks) ATTR_ALWAYS_INLINE;
 200:/users/hunter/downloads/tmk_core/protocol/lufa/LUFA-git/LUFA/Drivers/USB/Core/AVR8/../AVR8/Endpoint_AVR8.h **** 			static inline bool Endpoint_ConfigureEndpoint(const uint8_t Address,
 201:/users/hunter/downloads/tmk_core/protocol/lufa/LUFA-git/LUFA/Drivers/USB/Core/AVR8/../AVR8/Endpoint_AVR8.h **** 			                                              const uint8_t Type,
 202:/users/hunter/downloads/tmk_core/protocol/lufa/LUFA-git/LUFA/Drivers/USB/Core/AVR8/../AVR8/Endpoint_AVR8.h **** 			                                              const uint16_t Size,
 203:/users/hunter/downloads/tmk_core/protocol/lufa/LUFA-git/LUFA/Drivers/USB/Core/AVR8/../AVR8/Endpoint_AVR8.h **** 			                                              const uint8_t Banks)
 204:/users/hunter/downloads/tmk_core/protocol/lufa/LUFA-git/LUFA/Drivers/USB/Core/AVR8/../AVR8/Endpoint_AVR8.h **** 			{
 205:/users/hunter/downloads/tmk_core/protocol/lufa/LUFA-git/LUFA/Drivers/USB/Core/AVR8/../AVR8/Endpoint_AVR8.h **** 				uint8_t Number = (Address & ENDPOINT_EPNUM_MASK);
 206:/users/hunter/downloads/tmk_core/protocol/lufa/LUFA-git/LUFA/Drivers/USB/Core/AVR8/../AVR8/Endpoint_AVR8.h **** 
 207:/users/hunter/downloads/tmk_core/protocol/lufa/LUFA-git/LUFA/Drivers/USB/Core/AVR8/../AVR8/Endpoint_AVR8.h **** 				if (Number >= ENDPOINT_TOTAL_ENDPOINTS)
 208:/users/hunter/downloads/tmk_core/protocol/lufa/LUFA-git/LUFA/Drivers/USB/Core/AVR8/../AVR8/Endpoint_AVR8.h **** 				  return false;
 209:/users/hunter/downloads/tmk_core/protocol/lufa/LUFA-git/LUFA/Drivers/USB/Core/AVR8/../AVR8/Endpoint_AVR8.h **** 
 210:/users/hunter/downloads/tmk_core/protocol/lufa/LUFA-git/LUFA/Drivers/USB/Core/AVR8/../AVR8/Endpoint_AVR8.h **** 				return Endpoint_ConfigureEndpoint_Prv(Number,
 211:/users/hunter/downloads/tmk_core/protocol/lufa/LUFA-git/LUFA/Drivers/USB/Core/AVR8/../AVR8/Endpoint_AVR8.h **** 				                                      ((Type << EPTYPE0) | ((Address & ENDPOINT_DIR_IN) ? (1 <<
 212:/users/hunter/downloads/tmk_core/protocol/lufa/LUFA-git/LUFA/Drivers/USB/Core/AVR8/../AVR8/Endpoint_AVR8.h **** 				                                      ((1 << ALLOC) | ((Banks > 1) ? (1 << EPBK0) : 0) | Endpoi
 213:/users/hunter/downloads/tmk_core/protocol/lufa/LUFA-git/LUFA/Drivers/USB/Core/AVR8/../AVR8/Endpoint_AVR8.h **** 			}
 214:/users/hunter/downloads/tmk_core/protocol/lufa/LUFA-git/LUFA/Drivers/USB/Core/AVR8/../AVR8/Endpoint_AVR8.h **** 
 215:/users/hunter/downloads/tmk_core/protocol/lufa/LUFA-git/LUFA/Drivers/USB/Core/AVR8/../AVR8/Endpoint_AVR8.h **** 			/** Indicates the number of bytes currently stored in the current endpoint's selected bank.
 216:/users/hunter/downloads/tmk_core/protocol/lufa/LUFA-git/LUFA/Drivers/USB/Core/AVR8/../AVR8/Endpoint_AVR8.h **** 			 *
 217:/users/hunter/downloads/tmk_core/protocol/lufa/LUFA-git/LUFA/Drivers/USB/Core/AVR8/../AVR8/Endpoint_AVR8.h **** 			 *  \ingroup Group_EndpointRW_AVR8
 218:/users/hunter/downloads/tmk_core/protocol/lufa/LUFA-git/LUFA/Drivers/USB/Core/AVR8/../AVR8/Endpoint_AVR8.h **** 			 *
 219:/users/hunter/downloads/tmk_core/protocol/lufa/LUFA-git/LUFA/Drivers/USB/Core/AVR8/../AVR8/Endpoint_AVR8.h **** 			 *  \return Total number of bytes in the currently selected Endpoint's FIFO buffer.
 220:/users/hunter/downloads/tmk_core/protocol/lufa/LUFA-git/LUFA/Drivers/USB/Core/AVR8/../AVR8/Endpoint_AVR8.h **** 			 */
 221:/users/hunter/downloads/tmk_core/protocol/lufa/LUFA-git/LUFA/Drivers/USB/Core/AVR8/../AVR8/Endpoint_AVR8.h **** 			static inline uint16_t Endpoint_BytesInEndpoint(void) ATTR_WARN_UNUSED_RESULT ATTR_ALWAYS_INLINE
 222:/users/hunter/downloads/tmk_core/protocol/lufa/LUFA-git/LUFA/Drivers/USB/Core/AVR8/../AVR8/Endpoint_AVR8.h **** 			static inline uint16_t Endpoint_BytesInEndpoint(void)
 223:/users/hunter/downloads/tmk_core/protocol/lufa/LUFA-git/LUFA/Drivers/USB/Core/AVR8/../AVR8/Endpoint_AVR8.h **** 			{
 224:/users/hunter/downloads/tmk_core/protocol/lufa/LUFA-git/LUFA/Drivers/USB/Core/AVR8/../AVR8/Endpoint_AVR8.h **** 				#if (defined(USB_SERIES_6_AVR) || defined(USB_SERIES_7_AVR))
 225:/users/hunter/downloads/tmk_core/protocol/lufa/LUFA-git/LUFA/Drivers/USB/Core/AVR8/../AVR8/Endpoint_AVR8.h **** 					return UEBCX;
 226:/users/hunter/downloads/tmk_core/protocol/lufa/LUFA-git/LUFA/Drivers/USB/Core/AVR8/../AVR8/Endpoint_AVR8.h **** 				#elif defined(USB_SERIES_4_AVR)
 227:/users/hunter/downloads/tmk_core/protocol/lufa/LUFA-git/LUFA/Drivers/USB/Core/AVR8/../AVR8/Endpoint_AVR8.h **** 					return (((uint16_t)UEBCHX << 8) | UEBCLX);
 228:/users/hunter/downloads/tmk_core/protocol/lufa/LUFA-git/LUFA/Drivers/USB/Core/AVR8/../AVR8/Endpoint_AVR8.h **** 				#elif defined(USB_SERIES_2_AVR)
 229:/users/hunter/downloads/tmk_core/protocol/lufa/LUFA-git/LUFA/Drivers/USB/Core/AVR8/../AVR8/Endpoint_AVR8.h **** 					return UEBCLX;
 230:/users/hunter/downloads/tmk_core/protocol/lufa/LUFA-git/LUFA/Drivers/USB/Core/AVR8/../AVR8/Endpoint_AVR8.h **** 				#endif
 231:/users/hunter/downloads/tmk_core/protocol/lufa/LUFA-git/LUFA/Drivers/USB/Core/AVR8/../AVR8/Endpoint_AVR8.h **** 			}
 232:/users/hunter/downloads/tmk_core/protocol/lufa/LUFA-git/LUFA/Drivers/USB/Core/AVR8/../AVR8/Endpoint_AVR8.h **** 
 233:/users/hunter/downloads/tmk_core/protocol/lufa/LUFA-git/LUFA/Drivers/USB/Core/AVR8/../AVR8/Endpoint_AVR8.h **** 			/** Determines the currently selected endpoint's direction.
 234:/users/hunter/downloads/tmk_core/protocol/lufa/LUFA-git/LUFA/Drivers/USB/Core/AVR8/../AVR8/Endpoint_AVR8.h **** 			 *
 235:/users/hunter/downloads/tmk_core/protocol/lufa/LUFA-git/LUFA/Drivers/USB/Core/AVR8/../AVR8/Endpoint_AVR8.h **** 			 *  \return The currently selected endpoint's direction, as a \c ENDPOINT_DIR_* mask.
 236:/users/hunter/downloads/tmk_core/protocol/lufa/LUFA-git/LUFA/Drivers/USB/Core/AVR8/../AVR8/Endpoint_AVR8.h **** 			 */
 237:/users/hunter/downloads/tmk_core/protocol/lufa/LUFA-git/LUFA/Drivers/USB/Core/AVR8/../AVR8/Endpoint_AVR8.h **** 			static inline uint8_t Endpoint_GetEndpointDirection(void) ATTR_WARN_UNUSED_RESULT ATTR_ALWAYS_IN
 238:/users/hunter/downloads/tmk_core/protocol/lufa/LUFA-git/LUFA/Drivers/USB/Core/AVR8/../AVR8/Endpoint_AVR8.h **** 			static inline uint8_t Endpoint_GetEndpointDirection(void)
 239:/users/hunter/downloads/tmk_core/protocol/lufa/LUFA-git/LUFA/Drivers/USB/Core/AVR8/../AVR8/Endpoint_AVR8.h **** 			{
 240:/users/hunter/downloads/tmk_core/protocol/lufa/LUFA-git/LUFA/Drivers/USB/Core/AVR8/../AVR8/Endpoint_AVR8.h **** 				return (UECFG0X & (1 << EPDIR)) ? ENDPOINT_DIR_IN : ENDPOINT_DIR_OUT;
 241:/users/hunter/downloads/tmk_core/protocol/lufa/LUFA-git/LUFA/Drivers/USB/Core/AVR8/../AVR8/Endpoint_AVR8.h **** 			}
 242:/users/hunter/downloads/tmk_core/protocol/lufa/LUFA-git/LUFA/Drivers/USB/Core/AVR8/../AVR8/Endpoint_AVR8.h **** 
 243:/users/hunter/downloads/tmk_core/protocol/lufa/LUFA-git/LUFA/Drivers/USB/Core/AVR8/../AVR8/Endpoint_AVR8.h **** 			/** Get the endpoint address of the currently selected endpoint. This is typically used to save
 244:/users/hunter/downloads/tmk_core/protocol/lufa/LUFA-git/LUFA/Drivers/USB/Core/AVR8/../AVR8/Endpoint_AVR8.h **** 			 *  the currently selected endpoint so that it can be restored after another endpoint has been
 245:/users/hunter/downloads/tmk_core/protocol/lufa/LUFA-git/LUFA/Drivers/USB/Core/AVR8/../AVR8/Endpoint_AVR8.h **** 			 *  manipulated.
 246:/users/hunter/downloads/tmk_core/protocol/lufa/LUFA-git/LUFA/Drivers/USB/Core/AVR8/../AVR8/Endpoint_AVR8.h **** 			 *
 247:/users/hunter/downloads/tmk_core/protocol/lufa/LUFA-git/LUFA/Drivers/USB/Core/AVR8/../AVR8/Endpoint_AVR8.h **** 			 *  \return Index of the currently selected endpoint.
 248:/users/hunter/downloads/tmk_core/protocol/lufa/LUFA-git/LUFA/Drivers/USB/Core/AVR8/../AVR8/Endpoint_AVR8.h **** 			 */
 249:/users/hunter/downloads/tmk_core/protocol/lufa/LUFA-git/LUFA/Drivers/USB/Core/AVR8/../AVR8/Endpoint_AVR8.h **** 			static inline uint8_t Endpoint_GetCurrentEndpoint(void) ATTR_WARN_UNUSED_RESULT ATTR_ALWAYS_INLI
 250:/users/hunter/downloads/tmk_core/protocol/lufa/LUFA-git/LUFA/Drivers/USB/Core/AVR8/../AVR8/Endpoint_AVR8.h **** 			static inline uint8_t Endpoint_GetCurrentEndpoint(void)
 251:/users/hunter/downloads/tmk_core/protocol/lufa/LUFA-git/LUFA/Drivers/USB/Core/AVR8/../AVR8/Endpoint_AVR8.h **** 			{
 252:/users/hunter/downloads/tmk_core/protocol/lufa/LUFA-git/LUFA/Drivers/USB/Core/AVR8/../AVR8/Endpoint_AVR8.h **** 				#if !defined(CONTROL_ONLY_DEVICE)
 253:/users/hunter/downloads/tmk_core/protocol/lufa/LUFA-git/LUFA/Drivers/USB/Core/AVR8/../AVR8/Endpoint_AVR8.h **** 					return ((UENUM & ENDPOINT_EPNUM_MASK) | Endpoint_GetEndpointDirection());
 254:/users/hunter/downloads/tmk_core/protocol/lufa/LUFA-git/LUFA/Drivers/USB/Core/AVR8/../AVR8/Endpoint_AVR8.h **** 				#else
 255:/users/hunter/downloads/tmk_core/protocol/lufa/LUFA-git/LUFA/Drivers/USB/Core/AVR8/../AVR8/Endpoint_AVR8.h **** 					return ENDPOINT_CONTROLEP;
 256:/users/hunter/downloads/tmk_core/protocol/lufa/LUFA-git/LUFA/Drivers/USB/Core/AVR8/../AVR8/Endpoint_AVR8.h **** 				#endif
 257:/users/hunter/downloads/tmk_core/protocol/lufa/LUFA-git/LUFA/Drivers/USB/Core/AVR8/../AVR8/Endpoint_AVR8.h **** 			}
 258:/users/hunter/downloads/tmk_core/protocol/lufa/LUFA-git/LUFA/Drivers/USB/Core/AVR8/../AVR8/Endpoint_AVR8.h **** 
 259:/users/hunter/downloads/tmk_core/protocol/lufa/LUFA-git/LUFA/Drivers/USB/Core/AVR8/../AVR8/Endpoint_AVR8.h **** 			/** Selects the given endpoint address.
 260:/users/hunter/downloads/tmk_core/protocol/lufa/LUFA-git/LUFA/Drivers/USB/Core/AVR8/../AVR8/Endpoint_AVR8.h **** 			 *
 261:/users/hunter/downloads/tmk_core/protocol/lufa/LUFA-git/LUFA/Drivers/USB/Core/AVR8/../AVR8/Endpoint_AVR8.h **** 			 *  Any endpoint operations which do not require the endpoint address to be indicated will opera
 262:/users/hunter/downloads/tmk_core/protocol/lufa/LUFA-git/LUFA/Drivers/USB/Core/AVR8/../AVR8/Endpoint_AVR8.h **** 			 *  the currently selected endpoint.
 263:/users/hunter/downloads/tmk_core/protocol/lufa/LUFA-git/LUFA/Drivers/USB/Core/AVR8/../AVR8/Endpoint_AVR8.h **** 			 *
 264:/users/hunter/downloads/tmk_core/protocol/lufa/LUFA-git/LUFA/Drivers/USB/Core/AVR8/../AVR8/Endpoint_AVR8.h **** 			 *  \param[in] Address Endpoint address to select.
 265:/users/hunter/downloads/tmk_core/protocol/lufa/LUFA-git/LUFA/Drivers/USB/Core/AVR8/../AVR8/Endpoint_AVR8.h **** 			 */
 266:/users/hunter/downloads/tmk_core/protocol/lufa/LUFA-git/LUFA/Drivers/USB/Core/AVR8/../AVR8/Endpoint_AVR8.h **** 			static inline void Endpoint_SelectEndpoint(const uint8_t Address) ATTR_ALWAYS_INLINE;
 267:/users/hunter/downloads/tmk_core/protocol/lufa/LUFA-git/LUFA/Drivers/USB/Core/AVR8/../AVR8/Endpoint_AVR8.h **** 			static inline void Endpoint_SelectEndpoint(const uint8_t Address)
 268:/users/hunter/downloads/tmk_core/protocol/lufa/LUFA-git/LUFA/Drivers/USB/Core/AVR8/../AVR8/Endpoint_AVR8.h **** 			{
 269:/users/hunter/downloads/tmk_core/protocol/lufa/LUFA-git/LUFA/Drivers/USB/Core/AVR8/../AVR8/Endpoint_AVR8.h **** 				#if !defined(CONTROL_ONLY_DEVICE)
 270:/users/hunter/downloads/tmk_core/protocol/lufa/LUFA-git/LUFA/Drivers/USB/Core/AVR8/../AVR8/Endpoint_AVR8.h **** 					UENUM = (Address & ENDPOINT_EPNUM_MASK);
 271:/users/hunter/downloads/tmk_core/protocol/lufa/LUFA-git/LUFA/Drivers/USB/Core/AVR8/../AVR8/Endpoint_AVR8.h **** 				#endif
 272:/users/hunter/downloads/tmk_core/protocol/lufa/LUFA-git/LUFA/Drivers/USB/Core/AVR8/../AVR8/Endpoint_AVR8.h **** 			}
 273:/users/hunter/downloads/tmk_core/protocol/lufa/LUFA-git/LUFA/Drivers/USB/Core/AVR8/../AVR8/Endpoint_AVR8.h **** 
 274:/users/hunter/downloads/tmk_core/protocol/lufa/LUFA-git/LUFA/Drivers/USB/Core/AVR8/../AVR8/Endpoint_AVR8.h **** 			/** Resets the endpoint bank FIFO. This clears all the endpoint banks and resets the USB control
 275:/users/hunter/downloads/tmk_core/protocol/lufa/LUFA-git/LUFA/Drivers/USB/Core/AVR8/../AVR8/Endpoint_AVR8.h **** 			 *  data In and Out pointers to the bank's contents.
 276:/users/hunter/downloads/tmk_core/protocol/lufa/LUFA-git/LUFA/Drivers/USB/Core/AVR8/../AVR8/Endpoint_AVR8.h **** 			 *
 277:/users/hunter/downloads/tmk_core/protocol/lufa/LUFA-git/LUFA/Drivers/USB/Core/AVR8/../AVR8/Endpoint_AVR8.h **** 			 *  \param[in] Address  Endpoint address whose FIFO buffers are to be reset.
 278:/users/hunter/downloads/tmk_core/protocol/lufa/LUFA-git/LUFA/Drivers/USB/Core/AVR8/../AVR8/Endpoint_AVR8.h **** 			 */
 279:/users/hunter/downloads/tmk_core/protocol/lufa/LUFA-git/LUFA/Drivers/USB/Core/AVR8/../AVR8/Endpoint_AVR8.h **** 			static inline void Endpoint_ResetEndpoint(const uint8_t Address) ATTR_ALWAYS_INLINE;
 280:/users/hunter/downloads/tmk_core/protocol/lufa/LUFA-git/LUFA/Drivers/USB/Core/AVR8/../AVR8/Endpoint_AVR8.h **** 			static inline void Endpoint_ResetEndpoint(const uint8_t Address)
 281:/users/hunter/downloads/tmk_core/protocol/lufa/LUFA-git/LUFA/Drivers/USB/Core/AVR8/../AVR8/Endpoint_AVR8.h **** 			{
 282:/users/hunter/downloads/tmk_core/protocol/lufa/LUFA-git/LUFA/Drivers/USB/Core/AVR8/../AVR8/Endpoint_AVR8.h **** 				UERST = (1 << (Address & ENDPOINT_EPNUM_MASK));
 283:/users/hunter/downloads/tmk_core/protocol/lufa/LUFA-git/LUFA/Drivers/USB/Core/AVR8/../AVR8/Endpoint_AVR8.h **** 				UERST = 0;
 284:/users/hunter/downloads/tmk_core/protocol/lufa/LUFA-git/LUFA/Drivers/USB/Core/AVR8/../AVR8/Endpoint_AVR8.h **** 			}
 285:/users/hunter/downloads/tmk_core/protocol/lufa/LUFA-git/LUFA/Drivers/USB/Core/AVR8/../AVR8/Endpoint_AVR8.h **** 
 286:/users/hunter/downloads/tmk_core/protocol/lufa/LUFA-git/LUFA/Drivers/USB/Core/AVR8/../AVR8/Endpoint_AVR8.h **** 			/** Enables the currently selected endpoint so that data can be sent and received through it to
 287:/users/hunter/downloads/tmk_core/protocol/lufa/LUFA-git/LUFA/Drivers/USB/Core/AVR8/../AVR8/Endpoint_AVR8.h **** 			 *  and from a host.
 288:/users/hunter/downloads/tmk_core/protocol/lufa/LUFA-git/LUFA/Drivers/USB/Core/AVR8/../AVR8/Endpoint_AVR8.h **** 			 *
 289:/users/hunter/downloads/tmk_core/protocol/lufa/LUFA-git/LUFA/Drivers/USB/Core/AVR8/../AVR8/Endpoint_AVR8.h **** 			 *  \note Endpoints must first be configured properly via \ref Endpoint_ConfigureEndpoint().
 290:/users/hunter/downloads/tmk_core/protocol/lufa/LUFA-git/LUFA/Drivers/USB/Core/AVR8/../AVR8/Endpoint_AVR8.h **** 			 */
 291:/users/hunter/downloads/tmk_core/protocol/lufa/LUFA-git/LUFA/Drivers/USB/Core/AVR8/../AVR8/Endpoint_AVR8.h **** 			static inline void Endpoint_EnableEndpoint(void) ATTR_ALWAYS_INLINE;
 292:/users/hunter/downloads/tmk_core/protocol/lufa/LUFA-git/LUFA/Drivers/USB/Core/AVR8/../AVR8/Endpoint_AVR8.h **** 			static inline void Endpoint_EnableEndpoint(void)
 293:/users/hunter/downloads/tmk_core/protocol/lufa/LUFA-git/LUFA/Drivers/USB/Core/AVR8/../AVR8/Endpoint_AVR8.h **** 			{
 294:/users/hunter/downloads/tmk_core/protocol/lufa/LUFA-git/LUFA/Drivers/USB/Core/AVR8/../AVR8/Endpoint_AVR8.h **** 				UECONX |= (1 << EPEN);
 295:/users/hunter/downloads/tmk_core/protocol/lufa/LUFA-git/LUFA/Drivers/USB/Core/AVR8/../AVR8/Endpoint_AVR8.h **** 			}
 296:/users/hunter/downloads/tmk_core/protocol/lufa/LUFA-git/LUFA/Drivers/USB/Core/AVR8/../AVR8/Endpoint_AVR8.h **** 
 297:/users/hunter/downloads/tmk_core/protocol/lufa/LUFA-git/LUFA/Drivers/USB/Core/AVR8/../AVR8/Endpoint_AVR8.h **** 			/** Disables the currently selected endpoint so that data cannot be sent and received through it
 298:/users/hunter/downloads/tmk_core/protocol/lufa/LUFA-git/LUFA/Drivers/USB/Core/AVR8/../AVR8/Endpoint_AVR8.h **** 			 *  to and from a host.
 299:/users/hunter/downloads/tmk_core/protocol/lufa/LUFA-git/LUFA/Drivers/USB/Core/AVR8/../AVR8/Endpoint_AVR8.h **** 			 */
 300:/users/hunter/downloads/tmk_core/protocol/lufa/LUFA-git/LUFA/Drivers/USB/Core/AVR8/../AVR8/Endpoint_AVR8.h **** 			static inline void Endpoint_DisableEndpoint(void) ATTR_ALWAYS_INLINE;
 301:/users/hunter/downloads/tmk_core/protocol/lufa/LUFA-git/LUFA/Drivers/USB/Core/AVR8/../AVR8/Endpoint_AVR8.h **** 			static inline void Endpoint_DisableEndpoint(void)
 302:/users/hunter/downloads/tmk_core/protocol/lufa/LUFA-git/LUFA/Drivers/USB/Core/AVR8/../AVR8/Endpoint_AVR8.h **** 			{
 303:/users/hunter/downloads/tmk_core/protocol/lufa/LUFA-git/LUFA/Drivers/USB/Core/AVR8/../AVR8/Endpoint_AVR8.h **** 				UECONX &= ~(1 << EPEN);
 304:/users/hunter/downloads/tmk_core/protocol/lufa/LUFA-git/LUFA/Drivers/USB/Core/AVR8/../AVR8/Endpoint_AVR8.h **** 			}
 305:/users/hunter/downloads/tmk_core/protocol/lufa/LUFA-git/LUFA/Drivers/USB/Core/AVR8/../AVR8/Endpoint_AVR8.h **** 
 306:/users/hunter/downloads/tmk_core/protocol/lufa/LUFA-git/LUFA/Drivers/USB/Core/AVR8/../AVR8/Endpoint_AVR8.h **** 			/** Determines if the currently selected endpoint is enabled, but not necessarily configured.
 307:/users/hunter/downloads/tmk_core/protocol/lufa/LUFA-git/LUFA/Drivers/USB/Core/AVR8/../AVR8/Endpoint_AVR8.h **** 			 *
 308:/users/hunter/downloads/tmk_core/protocol/lufa/LUFA-git/LUFA/Drivers/USB/Core/AVR8/../AVR8/Endpoint_AVR8.h **** 			 * \return Boolean \c true if the currently selected endpoint is enabled, \c false otherwise.
 309:/users/hunter/downloads/tmk_core/protocol/lufa/LUFA-git/LUFA/Drivers/USB/Core/AVR8/../AVR8/Endpoint_AVR8.h **** 			 */
 310:/users/hunter/downloads/tmk_core/protocol/lufa/LUFA-git/LUFA/Drivers/USB/Core/AVR8/../AVR8/Endpoint_AVR8.h **** 			static inline bool Endpoint_IsEnabled(void) ATTR_WARN_UNUSED_RESULT ATTR_ALWAYS_INLINE;
 311:/users/hunter/downloads/tmk_core/protocol/lufa/LUFA-git/LUFA/Drivers/USB/Core/AVR8/../AVR8/Endpoint_AVR8.h **** 			static inline bool Endpoint_IsEnabled(void)
 312:/users/hunter/downloads/tmk_core/protocol/lufa/LUFA-git/LUFA/Drivers/USB/Core/AVR8/../AVR8/Endpoint_AVR8.h **** 			{
 313:/users/hunter/downloads/tmk_core/protocol/lufa/LUFA-git/LUFA/Drivers/USB/Core/AVR8/../AVR8/Endpoint_AVR8.h **** 				return ((UECONX & (1 << EPEN)) ? true : false);
 314:/users/hunter/downloads/tmk_core/protocol/lufa/LUFA-git/LUFA/Drivers/USB/Core/AVR8/../AVR8/Endpoint_AVR8.h **** 			}
 315:/users/hunter/downloads/tmk_core/protocol/lufa/LUFA-git/LUFA/Drivers/USB/Core/AVR8/../AVR8/Endpoint_AVR8.h **** 
 316:/users/hunter/downloads/tmk_core/protocol/lufa/LUFA-git/LUFA/Drivers/USB/Core/AVR8/../AVR8/Endpoint_AVR8.h **** 			/** Retrieves the number of busy banks in the currently selected endpoint, which have been queue
 317:/users/hunter/downloads/tmk_core/protocol/lufa/LUFA-git/LUFA/Drivers/USB/Core/AVR8/../AVR8/Endpoint_AVR8.h **** 			 *  transmission via the \ref Endpoint_ClearIN() command, or are awaiting acknowledgment via the
 318:/users/hunter/downloads/tmk_core/protocol/lufa/LUFA-git/LUFA/Drivers/USB/Core/AVR8/../AVR8/Endpoint_AVR8.h **** 			 *  \ref Endpoint_ClearOUT() command.
 319:/users/hunter/downloads/tmk_core/protocol/lufa/LUFA-git/LUFA/Drivers/USB/Core/AVR8/../AVR8/Endpoint_AVR8.h **** 			 *
 320:/users/hunter/downloads/tmk_core/protocol/lufa/LUFA-git/LUFA/Drivers/USB/Core/AVR8/../AVR8/Endpoint_AVR8.h **** 			 *  \ingroup Group_EndpointPacketManagement_AVR8
 321:/users/hunter/downloads/tmk_core/protocol/lufa/LUFA-git/LUFA/Drivers/USB/Core/AVR8/../AVR8/Endpoint_AVR8.h **** 			 *
 322:/users/hunter/downloads/tmk_core/protocol/lufa/LUFA-git/LUFA/Drivers/USB/Core/AVR8/../AVR8/Endpoint_AVR8.h **** 			 *  \return Total number of busy banks in the selected endpoint.
 323:/users/hunter/downloads/tmk_core/protocol/lufa/LUFA-git/LUFA/Drivers/USB/Core/AVR8/../AVR8/Endpoint_AVR8.h **** 			 */
 324:/users/hunter/downloads/tmk_core/protocol/lufa/LUFA-git/LUFA/Drivers/USB/Core/AVR8/../AVR8/Endpoint_AVR8.h **** 			static inline uint8_t Endpoint_GetBusyBanks(void) ATTR_ALWAYS_INLINE ATTR_WARN_UNUSED_RESULT;
 325:/users/hunter/downloads/tmk_core/protocol/lufa/LUFA-git/LUFA/Drivers/USB/Core/AVR8/../AVR8/Endpoint_AVR8.h **** 			static inline uint8_t Endpoint_GetBusyBanks(void)
 326:/users/hunter/downloads/tmk_core/protocol/lufa/LUFA-git/LUFA/Drivers/USB/Core/AVR8/../AVR8/Endpoint_AVR8.h **** 			{
 327:/users/hunter/downloads/tmk_core/protocol/lufa/LUFA-git/LUFA/Drivers/USB/Core/AVR8/../AVR8/Endpoint_AVR8.h **** 				return (UESTA0X & (0x03 << NBUSYBK0));
 328:/users/hunter/downloads/tmk_core/protocol/lufa/LUFA-git/LUFA/Drivers/USB/Core/AVR8/../AVR8/Endpoint_AVR8.h **** 			}
 329:/users/hunter/downloads/tmk_core/protocol/lufa/LUFA-git/LUFA/Drivers/USB/Core/AVR8/../AVR8/Endpoint_AVR8.h **** 
 330:/users/hunter/downloads/tmk_core/protocol/lufa/LUFA-git/LUFA/Drivers/USB/Core/AVR8/../AVR8/Endpoint_AVR8.h **** 			/** Aborts all pending IN transactions on the currently selected endpoint, once the bank
 331:/users/hunter/downloads/tmk_core/protocol/lufa/LUFA-git/LUFA/Drivers/USB/Core/AVR8/../AVR8/Endpoint_AVR8.h **** 			 *  has been queued for transmission to the host via \ref Endpoint_ClearIN(). This function
 332:/users/hunter/downloads/tmk_core/protocol/lufa/LUFA-git/LUFA/Drivers/USB/Core/AVR8/../AVR8/Endpoint_AVR8.h **** 			 *  will terminate all queued transactions, resetting the endpoint banks ready for a new
 333:/users/hunter/downloads/tmk_core/protocol/lufa/LUFA-git/LUFA/Drivers/USB/Core/AVR8/../AVR8/Endpoint_AVR8.h **** 			 *  packet.
 334:/users/hunter/downloads/tmk_core/protocol/lufa/LUFA-git/LUFA/Drivers/USB/Core/AVR8/../AVR8/Endpoint_AVR8.h **** 			 *
 335:/users/hunter/downloads/tmk_core/protocol/lufa/LUFA-git/LUFA/Drivers/USB/Core/AVR8/../AVR8/Endpoint_AVR8.h **** 			 *  \ingroup Group_EndpointPacketManagement_AVR8
 336:/users/hunter/downloads/tmk_core/protocol/lufa/LUFA-git/LUFA/Drivers/USB/Core/AVR8/../AVR8/Endpoint_AVR8.h **** 			 */
 337:/users/hunter/downloads/tmk_core/protocol/lufa/LUFA-git/LUFA/Drivers/USB/Core/AVR8/../AVR8/Endpoint_AVR8.h **** 			static inline void Endpoint_AbortPendingIN(void)
 338:/users/hunter/downloads/tmk_core/protocol/lufa/LUFA-git/LUFA/Drivers/USB/Core/AVR8/../AVR8/Endpoint_AVR8.h **** 			{
 339:/users/hunter/downloads/tmk_core/protocol/lufa/LUFA-git/LUFA/Drivers/USB/Core/AVR8/../AVR8/Endpoint_AVR8.h **** 				while (Endpoint_GetBusyBanks() != 0)
 340:/users/hunter/downloads/tmk_core/protocol/lufa/LUFA-git/LUFA/Drivers/USB/Core/AVR8/../AVR8/Endpoint_AVR8.h **** 				{
 341:/users/hunter/downloads/tmk_core/protocol/lufa/LUFA-git/LUFA/Drivers/USB/Core/AVR8/../AVR8/Endpoint_AVR8.h **** 					UEINTX |= (1 << RXOUTI);
 342:/users/hunter/downloads/tmk_core/protocol/lufa/LUFA-git/LUFA/Drivers/USB/Core/AVR8/../AVR8/Endpoint_AVR8.h **** 					while (UEINTX & (1 << RXOUTI));
 343:/users/hunter/downloads/tmk_core/protocol/lufa/LUFA-git/LUFA/Drivers/USB/Core/AVR8/../AVR8/Endpoint_AVR8.h **** 				}
 344:/users/hunter/downloads/tmk_core/protocol/lufa/LUFA-git/LUFA/Drivers/USB/Core/AVR8/../AVR8/Endpoint_AVR8.h **** 			}
 345:/users/hunter/downloads/tmk_core/protocol/lufa/LUFA-git/LUFA/Drivers/USB/Core/AVR8/../AVR8/Endpoint_AVR8.h **** 
 346:/users/hunter/downloads/tmk_core/protocol/lufa/LUFA-git/LUFA/Drivers/USB/Core/AVR8/../AVR8/Endpoint_AVR8.h **** 			/** Determines if the currently selected endpoint may be read from (if data is waiting in the en
 347:/users/hunter/downloads/tmk_core/protocol/lufa/LUFA-git/LUFA/Drivers/USB/Core/AVR8/../AVR8/Endpoint_AVR8.h **** 			 *  bank and the endpoint is an OUT direction, or if the bank is not yet full if the endpoint is
 348:/users/hunter/downloads/tmk_core/protocol/lufa/LUFA-git/LUFA/Drivers/USB/Core/AVR8/../AVR8/Endpoint_AVR8.h **** 			 *  direction). This function will return false if an error has occurred in the endpoint, if the
 349:/users/hunter/downloads/tmk_core/protocol/lufa/LUFA-git/LUFA/Drivers/USB/Core/AVR8/../AVR8/Endpoint_AVR8.h **** 			 *  is an OUT direction and no packet (or an empty packet) has been received, or if the endpoint
 350:/users/hunter/downloads/tmk_core/protocol/lufa/LUFA-git/LUFA/Drivers/USB/Core/AVR8/../AVR8/Endpoint_AVR8.h **** 			 *  direction and the endpoint bank is full.
 351:/users/hunter/downloads/tmk_core/protocol/lufa/LUFA-git/LUFA/Drivers/USB/Core/AVR8/../AVR8/Endpoint_AVR8.h **** 			 *
 352:/users/hunter/downloads/tmk_core/protocol/lufa/LUFA-git/LUFA/Drivers/USB/Core/AVR8/../AVR8/Endpoint_AVR8.h **** 			 *  \ingroup Group_EndpointPacketManagement_AVR8
 353:/users/hunter/downloads/tmk_core/protocol/lufa/LUFA-git/LUFA/Drivers/USB/Core/AVR8/../AVR8/Endpoint_AVR8.h **** 			 *
 354:/users/hunter/downloads/tmk_core/protocol/lufa/LUFA-git/LUFA/Drivers/USB/Core/AVR8/../AVR8/Endpoint_AVR8.h **** 			 *  \return Boolean \c true if the currently selected endpoint may be read from or written to, d
 355:/users/hunter/downloads/tmk_core/protocol/lufa/LUFA-git/LUFA/Drivers/USB/Core/AVR8/../AVR8/Endpoint_AVR8.h **** 			 *          on its direction.
 356:/users/hunter/downloads/tmk_core/protocol/lufa/LUFA-git/LUFA/Drivers/USB/Core/AVR8/../AVR8/Endpoint_AVR8.h **** 			 */
 357:/users/hunter/downloads/tmk_core/protocol/lufa/LUFA-git/LUFA/Drivers/USB/Core/AVR8/../AVR8/Endpoint_AVR8.h **** 			static inline bool Endpoint_IsReadWriteAllowed(void) ATTR_WARN_UNUSED_RESULT ATTR_ALWAYS_INLINE;
 358:/users/hunter/downloads/tmk_core/protocol/lufa/LUFA-git/LUFA/Drivers/USB/Core/AVR8/../AVR8/Endpoint_AVR8.h **** 			static inline bool Endpoint_IsReadWriteAllowed(void)
 359:/users/hunter/downloads/tmk_core/protocol/lufa/LUFA-git/LUFA/Drivers/USB/Core/AVR8/../AVR8/Endpoint_AVR8.h **** 			{
 360:/users/hunter/downloads/tmk_core/protocol/lufa/LUFA-git/LUFA/Drivers/USB/Core/AVR8/../AVR8/Endpoint_AVR8.h **** 				return ((UEINTX & (1 << RWAL)) ? true : false);
 361:/users/hunter/downloads/tmk_core/protocol/lufa/LUFA-git/LUFA/Drivers/USB/Core/AVR8/../AVR8/Endpoint_AVR8.h **** 			}
 362:/users/hunter/downloads/tmk_core/protocol/lufa/LUFA-git/LUFA/Drivers/USB/Core/AVR8/../AVR8/Endpoint_AVR8.h **** 
 363:/users/hunter/downloads/tmk_core/protocol/lufa/LUFA-git/LUFA/Drivers/USB/Core/AVR8/../AVR8/Endpoint_AVR8.h **** 			/** Determines if the currently selected endpoint is configured.
 364:/users/hunter/downloads/tmk_core/protocol/lufa/LUFA-git/LUFA/Drivers/USB/Core/AVR8/../AVR8/Endpoint_AVR8.h **** 			 *
 365:/users/hunter/downloads/tmk_core/protocol/lufa/LUFA-git/LUFA/Drivers/USB/Core/AVR8/../AVR8/Endpoint_AVR8.h **** 			 *  \return Boolean \c true if the currently selected endpoint has been configured, \c false oth
 366:/users/hunter/downloads/tmk_core/protocol/lufa/LUFA-git/LUFA/Drivers/USB/Core/AVR8/../AVR8/Endpoint_AVR8.h **** 			 */
 367:/users/hunter/downloads/tmk_core/protocol/lufa/LUFA-git/LUFA/Drivers/USB/Core/AVR8/../AVR8/Endpoint_AVR8.h **** 			static inline bool Endpoint_IsConfigured(void) ATTR_WARN_UNUSED_RESULT ATTR_ALWAYS_INLINE;
 368:/users/hunter/downloads/tmk_core/protocol/lufa/LUFA-git/LUFA/Drivers/USB/Core/AVR8/../AVR8/Endpoint_AVR8.h **** 			static inline bool Endpoint_IsConfigured(void)
 369:/users/hunter/downloads/tmk_core/protocol/lufa/LUFA-git/LUFA/Drivers/USB/Core/AVR8/../AVR8/Endpoint_AVR8.h **** 			{
 370:/users/hunter/downloads/tmk_core/protocol/lufa/LUFA-git/LUFA/Drivers/USB/Core/AVR8/../AVR8/Endpoint_AVR8.h **** 				return ((UESTA0X & (1 << CFGOK)) ? true : false);
 371:/users/hunter/downloads/tmk_core/protocol/lufa/LUFA-git/LUFA/Drivers/USB/Core/AVR8/../AVR8/Endpoint_AVR8.h **** 			}
 372:/users/hunter/downloads/tmk_core/protocol/lufa/LUFA-git/LUFA/Drivers/USB/Core/AVR8/../AVR8/Endpoint_AVR8.h **** 
 373:/users/hunter/downloads/tmk_core/protocol/lufa/LUFA-git/LUFA/Drivers/USB/Core/AVR8/../AVR8/Endpoint_AVR8.h **** 			/** Returns a mask indicating which INTERRUPT type endpoints have interrupted - i.e. their
 374:/users/hunter/downloads/tmk_core/protocol/lufa/LUFA-git/LUFA/Drivers/USB/Core/AVR8/../AVR8/Endpoint_AVR8.h **** 			 *  interrupt duration has elapsed. Which endpoints have interrupted can be determined by
 375:/users/hunter/downloads/tmk_core/protocol/lufa/LUFA-git/LUFA/Drivers/USB/Core/AVR8/../AVR8/Endpoint_AVR8.h **** 			 *  masking the return value against <tt>(1 << <i>{Endpoint Number}</i>)</tt>.
 376:/users/hunter/downloads/tmk_core/protocol/lufa/LUFA-git/LUFA/Drivers/USB/Core/AVR8/../AVR8/Endpoint_AVR8.h **** 			 *
 377:/users/hunter/downloads/tmk_core/protocol/lufa/LUFA-git/LUFA/Drivers/USB/Core/AVR8/../AVR8/Endpoint_AVR8.h **** 			 *  \return Mask whose bits indicate which endpoints have interrupted.
 378:/users/hunter/downloads/tmk_core/protocol/lufa/LUFA-git/LUFA/Drivers/USB/Core/AVR8/../AVR8/Endpoint_AVR8.h **** 			 */
 379:/users/hunter/downloads/tmk_core/protocol/lufa/LUFA-git/LUFA/Drivers/USB/Core/AVR8/../AVR8/Endpoint_AVR8.h **** 			static inline uint8_t Endpoint_GetEndpointInterrupts(void) ATTR_WARN_UNUSED_RESULT ATTR_ALWAYS_I
 380:/users/hunter/downloads/tmk_core/protocol/lufa/LUFA-git/LUFA/Drivers/USB/Core/AVR8/../AVR8/Endpoint_AVR8.h **** 			static inline uint8_t Endpoint_GetEndpointInterrupts(void)
 381:/users/hunter/downloads/tmk_core/protocol/lufa/LUFA-git/LUFA/Drivers/USB/Core/AVR8/../AVR8/Endpoint_AVR8.h **** 			{
 382:/users/hunter/downloads/tmk_core/protocol/lufa/LUFA-git/LUFA/Drivers/USB/Core/AVR8/../AVR8/Endpoint_AVR8.h **** 				return UEINT;
 383:/users/hunter/downloads/tmk_core/protocol/lufa/LUFA-git/LUFA/Drivers/USB/Core/AVR8/../AVR8/Endpoint_AVR8.h **** 			}
 384:/users/hunter/downloads/tmk_core/protocol/lufa/LUFA-git/LUFA/Drivers/USB/Core/AVR8/../AVR8/Endpoint_AVR8.h **** 
 385:/users/hunter/downloads/tmk_core/protocol/lufa/LUFA-git/LUFA/Drivers/USB/Core/AVR8/../AVR8/Endpoint_AVR8.h **** 			/** Determines if the specified endpoint number has interrupted (valid only for INTERRUPT type
 386:/users/hunter/downloads/tmk_core/protocol/lufa/LUFA-git/LUFA/Drivers/USB/Core/AVR8/../AVR8/Endpoint_AVR8.h **** 			 *  endpoints).
 387:/users/hunter/downloads/tmk_core/protocol/lufa/LUFA-git/LUFA/Drivers/USB/Core/AVR8/../AVR8/Endpoint_AVR8.h **** 			 *
 388:/users/hunter/downloads/tmk_core/protocol/lufa/LUFA-git/LUFA/Drivers/USB/Core/AVR8/../AVR8/Endpoint_AVR8.h **** 			 *  \param[in] Address  Address of the endpoint whose interrupt flag should be tested.
 389:/users/hunter/downloads/tmk_core/protocol/lufa/LUFA-git/LUFA/Drivers/USB/Core/AVR8/../AVR8/Endpoint_AVR8.h **** 			 *
 390:/users/hunter/downloads/tmk_core/protocol/lufa/LUFA-git/LUFA/Drivers/USB/Core/AVR8/../AVR8/Endpoint_AVR8.h **** 			 *  \return Boolean \c true if the specified endpoint has interrupted, \c false otherwise.
 391:/users/hunter/downloads/tmk_core/protocol/lufa/LUFA-git/LUFA/Drivers/USB/Core/AVR8/../AVR8/Endpoint_AVR8.h **** 			 */
 392:/users/hunter/downloads/tmk_core/protocol/lufa/LUFA-git/LUFA/Drivers/USB/Core/AVR8/../AVR8/Endpoint_AVR8.h **** 			static inline bool Endpoint_HasEndpointInterrupted(const uint8_t Address) ATTR_WARN_UNUSED_RESUL
 393:/users/hunter/downloads/tmk_core/protocol/lufa/LUFA-git/LUFA/Drivers/USB/Core/AVR8/../AVR8/Endpoint_AVR8.h **** 			static inline bool Endpoint_HasEndpointInterrupted(const uint8_t Address)
 394:/users/hunter/downloads/tmk_core/protocol/lufa/LUFA-git/LUFA/Drivers/USB/Core/AVR8/../AVR8/Endpoint_AVR8.h **** 			{
 395:/users/hunter/downloads/tmk_core/protocol/lufa/LUFA-git/LUFA/Drivers/USB/Core/AVR8/../AVR8/Endpoint_AVR8.h **** 				return ((Endpoint_GetEndpointInterrupts() & (1 << (Address & ENDPOINT_EPNUM_MASK))) ? true : fa
 396:/users/hunter/downloads/tmk_core/protocol/lufa/LUFA-git/LUFA/Drivers/USB/Core/AVR8/../AVR8/Endpoint_AVR8.h **** 			}
 397:/users/hunter/downloads/tmk_core/protocol/lufa/LUFA-git/LUFA/Drivers/USB/Core/AVR8/../AVR8/Endpoint_AVR8.h **** 
 398:/users/hunter/downloads/tmk_core/protocol/lufa/LUFA-git/LUFA/Drivers/USB/Core/AVR8/../AVR8/Endpoint_AVR8.h **** 			/** Determines if the selected IN endpoint is ready for a new packet to be sent to the host.
 399:/users/hunter/downloads/tmk_core/protocol/lufa/LUFA-git/LUFA/Drivers/USB/Core/AVR8/../AVR8/Endpoint_AVR8.h **** 			 *
 400:/users/hunter/downloads/tmk_core/protocol/lufa/LUFA-git/LUFA/Drivers/USB/Core/AVR8/../AVR8/Endpoint_AVR8.h **** 			 *  \ingroup Group_EndpointPacketManagement_AVR8
 401:/users/hunter/downloads/tmk_core/protocol/lufa/LUFA-git/LUFA/Drivers/USB/Core/AVR8/../AVR8/Endpoint_AVR8.h **** 			 *
 402:/users/hunter/downloads/tmk_core/protocol/lufa/LUFA-git/LUFA/Drivers/USB/Core/AVR8/../AVR8/Endpoint_AVR8.h **** 			 *  \return Boolean \c true if the current endpoint is ready for an IN packet, \c false otherwis
 403:/users/hunter/downloads/tmk_core/protocol/lufa/LUFA-git/LUFA/Drivers/USB/Core/AVR8/../AVR8/Endpoint_AVR8.h **** 			 */
 404:/users/hunter/downloads/tmk_core/protocol/lufa/LUFA-git/LUFA/Drivers/USB/Core/AVR8/../AVR8/Endpoint_AVR8.h **** 			static inline bool Endpoint_IsINReady(void) ATTR_WARN_UNUSED_RESULT ATTR_ALWAYS_INLINE;
 405:/users/hunter/downloads/tmk_core/protocol/lufa/LUFA-git/LUFA/Drivers/USB/Core/AVR8/../AVR8/Endpoint_AVR8.h **** 			static inline bool Endpoint_IsINReady(void)
 406:/users/hunter/downloads/tmk_core/protocol/lufa/LUFA-git/LUFA/Drivers/USB/Core/AVR8/../AVR8/Endpoint_AVR8.h **** 			{
 407:/users/hunter/downloads/tmk_core/protocol/lufa/LUFA-git/LUFA/Drivers/USB/Core/AVR8/../AVR8/Endpoint_AVR8.h **** 				return ((UEINTX & (1 << TXINI)) ? true : false);
 408:/users/hunter/downloads/tmk_core/protocol/lufa/LUFA-git/LUFA/Drivers/USB/Core/AVR8/../AVR8/Endpoint_AVR8.h **** 			}
 409:/users/hunter/downloads/tmk_core/protocol/lufa/LUFA-git/LUFA/Drivers/USB/Core/AVR8/../AVR8/Endpoint_AVR8.h **** 
 410:/users/hunter/downloads/tmk_core/protocol/lufa/LUFA-git/LUFA/Drivers/USB/Core/AVR8/../AVR8/Endpoint_AVR8.h **** 			/** Determines if the selected OUT endpoint has received new packet from the host.
 411:/users/hunter/downloads/tmk_core/protocol/lufa/LUFA-git/LUFA/Drivers/USB/Core/AVR8/../AVR8/Endpoint_AVR8.h **** 			 *
 412:/users/hunter/downloads/tmk_core/protocol/lufa/LUFA-git/LUFA/Drivers/USB/Core/AVR8/../AVR8/Endpoint_AVR8.h **** 			 *  \ingroup Group_EndpointPacketManagement_AVR8
 413:/users/hunter/downloads/tmk_core/protocol/lufa/LUFA-git/LUFA/Drivers/USB/Core/AVR8/../AVR8/Endpoint_AVR8.h **** 			 *
 414:/users/hunter/downloads/tmk_core/protocol/lufa/LUFA-git/LUFA/Drivers/USB/Core/AVR8/../AVR8/Endpoint_AVR8.h **** 			 *  \return Boolean \c true if current endpoint is has received an OUT packet, \c false otherwis
 415:/users/hunter/downloads/tmk_core/protocol/lufa/LUFA-git/LUFA/Drivers/USB/Core/AVR8/../AVR8/Endpoint_AVR8.h **** 			 */
 416:/users/hunter/downloads/tmk_core/protocol/lufa/LUFA-git/LUFA/Drivers/USB/Core/AVR8/../AVR8/Endpoint_AVR8.h **** 			static inline bool Endpoint_IsOUTReceived(void) ATTR_WARN_UNUSED_RESULT ATTR_ALWAYS_INLINE;
 417:/users/hunter/downloads/tmk_core/protocol/lufa/LUFA-git/LUFA/Drivers/USB/Core/AVR8/../AVR8/Endpoint_AVR8.h **** 			static inline bool Endpoint_IsOUTReceived(void)
 418:/users/hunter/downloads/tmk_core/protocol/lufa/LUFA-git/LUFA/Drivers/USB/Core/AVR8/../AVR8/Endpoint_AVR8.h **** 			{
 419:/users/hunter/downloads/tmk_core/protocol/lufa/LUFA-git/LUFA/Drivers/USB/Core/AVR8/../AVR8/Endpoint_AVR8.h **** 				return ((UEINTX & (1 << RXOUTI)) ? true : false);
 420:/users/hunter/downloads/tmk_core/protocol/lufa/LUFA-git/LUFA/Drivers/USB/Core/AVR8/../AVR8/Endpoint_AVR8.h **** 			}
 421:/users/hunter/downloads/tmk_core/protocol/lufa/LUFA-git/LUFA/Drivers/USB/Core/AVR8/../AVR8/Endpoint_AVR8.h **** 
 422:/users/hunter/downloads/tmk_core/protocol/lufa/LUFA-git/LUFA/Drivers/USB/Core/AVR8/../AVR8/Endpoint_AVR8.h **** 			/** Determines if the current CONTROL type endpoint has received a SETUP packet.
 423:/users/hunter/downloads/tmk_core/protocol/lufa/LUFA-git/LUFA/Drivers/USB/Core/AVR8/../AVR8/Endpoint_AVR8.h **** 			 *
 424:/users/hunter/downloads/tmk_core/protocol/lufa/LUFA-git/LUFA/Drivers/USB/Core/AVR8/../AVR8/Endpoint_AVR8.h **** 			 *  \ingroup Group_EndpointPacketManagement_AVR8
 425:/users/hunter/downloads/tmk_core/protocol/lufa/LUFA-git/LUFA/Drivers/USB/Core/AVR8/../AVR8/Endpoint_AVR8.h **** 			 *
 426:/users/hunter/downloads/tmk_core/protocol/lufa/LUFA-git/LUFA/Drivers/USB/Core/AVR8/../AVR8/Endpoint_AVR8.h **** 			 *  \return Boolean \c true if the selected endpoint has received a SETUP packet, \c false other
 427:/users/hunter/downloads/tmk_core/protocol/lufa/LUFA-git/LUFA/Drivers/USB/Core/AVR8/../AVR8/Endpoint_AVR8.h **** 			 */
 428:/users/hunter/downloads/tmk_core/protocol/lufa/LUFA-git/LUFA/Drivers/USB/Core/AVR8/../AVR8/Endpoint_AVR8.h **** 			static inline bool Endpoint_IsSETUPReceived(void) ATTR_WARN_UNUSED_RESULT ATTR_ALWAYS_INLINE;
 429:/users/hunter/downloads/tmk_core/protocol/lufa/LUFA-git/LUFA/Drivers/USB/Core/AVR8/../AVR8/Endpoint_AVR8.h **** 			static inline bool Endpoint_IsSETUPReceived(void)
 430:/users/hunter/downloads/tmk_core/protocol/lufa/LUFA-git/LUFA/Drivers/USB/Core/AVR8/../AVR8/Endpoint_AVR8.h **** 			{
 431:/users/hunter/downloads/tmk_core/protocol/lufa/LUFA-git/LUFA/Drivers/USB/Core/AVR8/../AVR8/Endpoint_AVR8.h **** 				return ((UEINTX & (1 << RXSTPI)) ? true : false);
 432:/users/hunter/downloads/tmk_core/protocol/lufa/LUFA-git/LUFA/Drivers/USB/Core/AVR8/../AVR8/Endpoint_AVR8.h **** 			}
 433:/users/hunter/downloads/tmk_core/protocol/lufa/LUFA-git/LUFA/Drivers/USB/Core/AVR8/../AVR8/Endpoint_AVR8.h **** 
 434:/users/hunter/downloads/tmk_core/protocol/lufa/LUFA-git/LUFA/Drivers/USB/Core/AVR8/../AVR8/Endpoint_AVR8.h **** 			/** Clears a received SETUP packet on the currently selected CONTROL type endpoint, freeing up t
 435:/users/hunter/downloads/tmk_core/protocol/lufa/LUFA-git/LUFA/Drivers/USB/Core/AVR8/../AVR8/Endpoint_AVR8.h **** 			 *  endpoint for the next packet.
 436:/users/hunter/downloads/tmk_core/protocol/lufa/LUFA-git/LUFA/Drivers/USB/Core/AVR8/../AVR8/Endpoint_AVR8.h **** 			 *
 437:/users/hunter/downloads/tmk_core/protocol/lufa/LUFA-git/LUFA/Drivers/USB/Core/AVR8/../AVR8/Endpoint_AVR8.h **** 			 *  \ingroup Group_EndpointPacketManagement_AVR8
 438:/users/hunter/downloads/tmk_core/protocol/lufa/LUFA-git/LUFA/Drivers/USB/Core/AVR8/../AVR8/Endpoint_AVR8.h **** 			 *
 439:/users/hunter/downloads/tmk_core/protocol/lufa/LUFA-git/LUFA/Drivers/USB/Core/AVR8/../AVR8/Endpoint_AVR8.h **** 			 *  \note This is not applicable for non CONTROL type endpoints.
 440:/users/hunter/downloads/tmk_core/protocol/lufa/LUFA-git/LUFA/Drivers/USB/Core/AVR8/../AVR8/Endpoint_AVR8.h **** 			 */
 441:/users/hunter/downloads/tmk_core/protocol/lufa/LUFA-git/LUFA/Drivers/USB/Core/AVR8/../AVR8/Endpoint_AVR8.h **** 			static inline void Endpoint_ClearSETUP(void) ATTR_ALWAYS_INLINE;
 442:/users/hunter/downloads/tmk_core/protocol/lufa/LUFA-git/LUFA/Drivers/USB/Core/AVR8/../AVR8/Endpoint_AVR8.h **** 			static inline void Endpoint_ClearSETUP(void)
 443:/users/hunter/downloads/tmk_core/protocol/lufa/LUFA-git/LUFA/Drivers/USB/Core/AVR8/../AVR8/Endpoint_AVR8.h **** 			{
 444:/users/hunter/downloads/tmk_core/protocol/lufa/LUFA-git/LUFA/Drivers/USB/Core/AVR8/../AVR8/Endpoint_AVR8.h **** 				UEINTX &= ~(1 << RXSTPI);
 445:/users/hunter/downloads/tmk_core/protocol/lufa/LUFA-git/LUFA/Drivers/USB/Core/AVR8/../AVR8/Endpoint_AVR8.h **** 			}
 446:/users/hunter/downloads/tmk_core/protocol/lufa/LUFA-git/LUFA/Drivers/USB/Core/AVR8/../AVR8/Endpoint_AVR8.h **** 
 447:/users/hunter/downloads/tmk_core/protocol/lufa/LUFA-git/LUFA/Drivers/USB/Core/AVR8/../AVR8/Endpoint_AVR8.h **** 			/** Sends an IN packet to the host on the currently selected endpoint, freeing up the endpoint f
 448:/users/hunter/downloads/tmk_core/protocol/lufa/LUFA-git/LUFA/Drivers/USB/Core/AVR8/../AVR8/Endpoint_AVR8.h **** 			 *  next packet and switching to the alternative endpoint bank if double banked.
 449:/users/hunter/downloads/tmk_core/protocol/lufa/LUFA-git/LUFA/Drivers/USB/Core/AVR8/../AVR8/Endpoint_AVR8.h **** 			 *
 450:/users/hunter/downloads/tmk_core/protocol/lufa/LUFA-git/LUFA/Drivers/USB/Core/AVR8/../AVR8/Endpoint_AVR8.h **** 			 *  \ingroup Group_EndpointPacketManagement_AVR8
 451:/users/hunter/downloads/tmk_core/protocol/lufa/LUFA-git/LUFA/Drivers/USB/Core/AVR8/../AVR8/Endpoint_AVR8.h **** 			 */
 452:/users/hunter/downloads/tmk_core/protocol/lufa/LUFA-git/LUFA/Drivers/USB/Core/AVR8/../AVR8/Endpoint_AVR8.h **** 			static inline void Endpoint_ClearIN(void) ATTR_ALWAYS_INLINE;
 453:/users/hunter/downloads/tmk_core/protocol/lufa/LUFA-git/LUFA/Drivers/USB/Core/AVR8/../AVR8/Endpoint_AVR8.h **** 			static inline void Endpoint_ClearIN(void)
 454:/users/hunter/downloads/tmk_core/protocol/lufa/LUFA-git/LUFA/Drivers/USB/Core/AVR8/../AVR8/Endpoint_AVR8.h **** 			{
 455:/users/hunter/downloads/tmk_core/protocol/lufa/LUFA-git/LUFA/Drivers/USB/Core/AVR8/../AVR8/Endpoint_AVR8.h **** 				#if !defined(CONTROL_ONLY_DEVICE)
 456:/users/hunter/downloads/tmk_core/protocol/lufa/LUFA-git/LUFA/Drivers/USB/Core/AVR8/../AVR8/Endpoint_AVR8.h **** 					UEINTX &= ~((1 << TXINI) | (1 << FIFOCON));
 457:/users/hunter/downloads/tmk_core/protocol/lufa/LUFA-git/LUFA/Drivers/USB/Core/AVR8/../AVR8/Endpoint_AVR8.h **** 				#else
 458:/users/hunter/downloads/tmk_core/protocol/lufa/LUFA-git/LUFA/Drivers/USB/Core/AVR8/../AVR8/Endpoint_AVR8.h **** 					UEINTX &= ~(1 << TXINI);
 459:/users/hunter/downloads/tmk_core/protocol/lufa/LUFA-git/LUFA/Drivers/USB/Core/AVR8/../AVR8/Endpoint_AVR8.h **** 				#endif
 460:/users/hunter/downloads/tmk_core/protocol/lufa/LUFA-git/LUFA/Drivers/USB/Core/AVR8/../AVR8/Endpoint_AVR8.h **** 			}
 461:/users/hunter/downloads/tmk_core/protocol/lufa/LUFA-git/LUFA/Drivers/USB/Core/AVR8/../AVR8/Endpoint_AVR8.h **** 
 462:/users/hunter/downloads/tmk_core/protocol/lufa/LUFA-git/LUFA/Drivers/USB/Core/AVR8/../AVR8/Endpoint_AVR8.h **** 			/** Acknowledges an OUT packet to the host on the currently selected endpoint, freeing up the en
 463:/users/hunter/downloads/tmk_core/protocol/lufa/LUFA-git/LUFA/Drivers/USB/Core/AVR8/../AVR8/Endpoint_AVR8.h **** 			 *  for the next packet and switching to the alternative endpoint bank if double banked.
 464:/users/hunter/downloads/tmk_core/protocol/lufa/LUFA-git/LUFA/Drivers/USB/Core/AVR8/../AVR8/Endpoint_AVR8.h **** 			 *
 465:/users/hunter/downloads/tmk_core/protocol/lufa/LUFA-git/LUFA/Drivers/USB/Core/AVR8/../AVR8/Endpoint_AVR8.h **** 			 *  \ingroup Group_EndpointPacketManagement_AVR8
 466:/users/hunter/downloads/tmk_core/protocol/lufa/LUFA-git/LUFA/Drivers/USB/Core/AVR8/../AVR8/Endpoint_AVR8.h **** 			 */
 467:/users/hunter/downloads/tmk_core/protocol/lufa/LUFA-git/LUFA/Drivers/USB/Core/AVR8/../AVR8/Endpoint_AVR8.h **** 			static inline void Endpoint_ClearOUT(void) ATTR_ALWAYS_INLINE;
 468:/users/hunter/downloads/tmk_core/protocol/lufa/LUFA-git/LUFA/Drivers/USB/Core/AVR8/../AVR8/Endpoint_AVR8.h **** 			static inline void Endpoint_ClearOUT(void)
 469:/users/hunter/downloads/tmk_core/protocol/lufa/LUFA-git/LUFA/Drivers/USB/Core/AVR8/../AVR8/Endpoint_AVR8.h **** 			{
 470:/users/hunter/downloads/tmk_core/protocol/lufa/LUFA-git/LUFA/Drivers/USB/Core/AVR8/../AVR8/Endpoint_AVR8.h **** 				#if !defined(CONTROL_ONLY_DEVICE)
 471:/users/hunter/downloads/tmk_core/protocol/lufa/LUFA-git/LUFA/Drivers/USB/Core/AVR8/../AVR8/Endpoint_AVR8.h **** 					UEINTX &= ~((1 << RXOUTI) | (1 << FIFOCON));
 472:/users/hunter/downloads/tmk_core/protocol/lufa/LUFA-git/LUFA/Drivers/USB/Core/AVR8/../AVR8/Endpoint_AVR8.h **** 				#else
 473:/users/hunter/downloads/tmk_core/protocol/lufa/LUFA-git/LUFA/Drivers/USB/Core/AVR8/../AVR8/Endpoint_AVR8.h **** 					UEINTX &= ~(1 << RXOUTI);
 474:/users/hunter/downloads/tmk_core/protocol/lufa/LUFA-git/LUFA/Drivers/USB/Core/AVR8/../AVR8/Endpoint_AVR8.h **** 				#endif
 475:/users/hunter/downloads/tmk_core/protocol/lufa/LUFA-git/LUFA/Drivers/USB/Core/AVR8/../AVR8/Endpoint_AVR8.h **** 			}
 476:/users/hunter/downloads/tmk_core/protocol/lufa/LUFA-git/LUFA/Drivers/USB/Core/AVR8/../AVR8/Endpoint_AVR8.h **** 
 477:/users/hunter/downloads/tmk_core/protocol/lufa/LUFA-git/LUFA/Drivers/USB/Core/AVR8/../AVR8/Endpoint_AVR8.h **** 			/** Stalls the current endpoint, indicating to the host that a logical problem occurred with the
 478:/users/hunter/downloads/tmk_core/protocol/lufa/LUFA-git/LUFA/Drivers/USB/Core/AVR8/../AVR8/Endpoint_AVR8.h **** 			 *  indicated endpoint and that the current transfer sequence should be aborted. This provides a
 479:/users/hunter/downloads/tmk_core/protocol/lufa/LUFA-git/LUFA/Drivers/USB/Core/AVR8/../AVR8/Endpoint_AVR8.h **** 			 *  way for devices to indicate invalid commands to the host so that the current transfer can be
 480:/users/hunter/downloads/tmk_core/protocol/lufa/LUFA-git/LUFA/Drivers/USB/Core/AVR8/../AVR8/Endpoint_AVR8.h **** 			 *  aborted and the host can begin its own recovery sequence.
 481:/users/hunter/downloads/tmk_core/protocol/lufa/LUFA-git/LUFA/Drivers/USB/Core/AVR8/../AVR8/Endpoint_AVR8.h **** 			 *
 482:/users/hunter/downloads/tmk_core/protocol/lufa/LUFA-git/LUFA/Drivers/USB/Core/AVR8/../AVR8/Endpoint_AVR8.h **** 			 *  The currently selected endpoint remains stalled until either the \ref Endpoint_ClearStall() 
 483:/users/hunter/downloads/tmk_core/protocol/lufa/LUFA-git/LUFA/Drivers/USB/Core/AVR8/../AVR8/Endpoint_AVR8.h **** 			 *  is called, or the host issues a CLEAR FEATURE request to the device for the currently select
 484:/users/hunter/downloads/tmk_core/protocol/lufa/LUFA-git/LUFA/Drivers/USB/Core/AVR8/../AVR8/Endpoint_AVR8.h **** 			 *  endpoint.
 485:/users/hunter/downloads/tmk_core/protocol/lufa/LUFA-git/LUFA/Drivers/USB/Core/AVR8/../AVR8/Endpoint_AVR8.h **** 			 *
 486:/users/hunter/downloads/tmk_core/protocol/lufa/LUFA-git/LUFA/Drivers/USB/Core/AVR8/../AVR8/Endpoint_AVR8.h **** 			 *  \ingroup Group_EndpointPacketManagement_AVR8
 487:/users/hunter/downloads/tmk_core/protocol/lufa/LUFA-git/LUFA/Drivers/USB/Core/AVR8/../AVR8/Endpoint_AVR8.h **** 			 */
 488:/users/hunter/downloads/tmk_core/protocol/lufa/LUFA-git/LUFA/Drivers/USB/Core/AVR8/../AVR8/Endpoint_AVR8.h **** 			static inline void Endpoint_StallTransaction(void) ATTR_ALWAYS_INLINE;
 489:/users/hunter/downloads/tmk_core/protocol/lufa/LUFA-git/LUFA/Drivers/USB/Core/AVR8/../AVR8/Endpoint_AVR8.h **** 			static inline void Endpoint_StallTransaction(void)
 490:/users/hunter/downloads/tmk_core/protocol/lufa/LUFA-git/LUFA/Drivers/USB/Core/AVR8/../AVR8/Endpoint_AVR8.h **** 			{
 491:/users/hunter/downloads/tmk_core/protocol/lufa/LUFA-git/LUFA/Drivers/USB/Core/AVR8/../AVR8/Endpoint_AVR8.h **** 				UECONX |= (1 << STALLRQ);
 492:/users/hunter/downloads/tmk_core/protocol/lufa/LUFA-git/LUFA/Drivers/USB/Core/AVR8/../AVR8/Endpoint_AVR8.h **** 			}
 493:/users/hunter/downloads/tmk_core/protocol/lufa/LUFA-git/LUFA/Drivers/USB/Core/AVR8/../AVR8/Endpoint_AVR8.h **** 
 494:/users/hunter/downloads/tmk_core/protocol/lufa/LUFA-git/LUFA/Drivers/USB/Core/AVR8/../AVR8/Endpoint_AVR8.h **** 			/** Clears the STALL condition on the currently selected endpoint.
 495:/users/hunter/downloads/tmk_core/protocol/lufa/LUFA-git/LUFA/Drivers/USB/Core/AVR8/../AVR8/Endpoint_AVR8.h **** 			 *
 496:/users/hunter/downloads/tmk_core/protocol/lufa/LUFA-git/LUFA/Drivers/USB/Core/AVR8/../AVR8/Endpoint_AVR8.h **** 			 *  \ingroup Group_EndpointPacketManagement_AVR8
 497:/users/hunter/downloads/tmk_core/protocol/lufa/LUFA-git/LUFA/Drivers/USB/Core/AVR8/../AVR8/Endpoint_AVR8.h **** 			 */
 498:/users/hunter/downloads/tmk_core/protocol/lufa/LUFA-git/LUFA/Drivers/USB/Core/AVR8/../AVR8/Endpoint_AVR8.h **** 			static inline void Endpoint_ClearStall(void) ATTR_ALWAYS_INLINE;
 499:/users/hunter/downloads/tmk_core/protocol/lufa/LUFA-git/LUFA/Drivers/USB/Core/AVR8/../AVR8/Endpoint_AVR8.h **** 			static inline void Endpoint_ClearStall(void)
 500:/users/hunter/downloads/tmk_core/protocol/lufa/LUFA-git/LUFA/Drivers/USB/Core/AVR8/../AVR8/Endpoint_AVR8.h **** 			{
 501:/users/hunter/downloads/tmk_core/protocol/lufa/LUFA-git/LUFA/Drivers/USB/Core/AVR8/../AVR8/Endpoint_AVR8.h **** 				UECONX |= (1 << STALLRQC);
 502:/users/hunter/downloads/tmk_core/protocol/lufa/LUFA-git/LUFA/Drivers/USB/Core/AVR8/../AVR8/Endpoint_AVR8.h **** 			}
 503:/users/hunter/downloads/tmk_core/protocol/lufa/LUFA-git/LUFA/Drivers/USB/Core/AVR8/../AVR8/Endpoint_AVR8.h **** 
 504:/users/hunter/downloads/tmk_core/protocol/lufa/LUFA-git/LUFA/Drivers/USB/Core/AVR8/../AVR8/Endpoint_AVR8.h **** 			/** Determines if the currently selected endpoint is stalled, \c false otherwise.
 505:/users/hunter/downloads/tmk_core/protocol/lufa/LUFA-git/LUFA/Drivers/USB/Core/AVR8/../AVR8/Endpoint_AVR8.h **** 			 *
 506:/users/hunter/downloads/tmk_core/protocol/lufa/LUFA-git/LUFA/Drivers/USB/Core/AVR8/../AVR8/Endpoint_AVR8.h **** 			 *  \ingroup Group_EndpointPacketManagement_AVR8
 507:/users/hunter/downloads/tmk_core/protocol/lufa/LUFA-git/LUFA/Drivers/USB/Core/AVR8/../AVR8/Endpoint_AVR8.h **** 			 *
 508:/users/hunter/downloads/tmk_core/protocol/lufa/LUFA-git/LUFA/Drivers/USB/Core/AVR8/../AVR8/Endpoint_AVR8.h **** 			 *  \return Boolean \c true if the currently selected endpoint is stalled, \c false otherwise.
 509:/users/hunter/downloads/tmk_core/protocol/lufa/LUFA-git/LUFA/Drivers/USB/Core/AVR8/../AVR8/Endpoint_AVR8.h **** 			 */
 510:/users/hunter/downloads/tmk_core/protocol/lufa/LUFA-git/LUFA/Drivers/USB/Core/AVR8/../AVR8/Endpoint_AVR8.h **** 			static inline bool Endpoint_IsStalled(void) ATTR_WARN_UNUSED_RESULT ATTR_ALWAYS_INLINE;
 511:/users/hunter/downloads/tmk_core/protocol/lufa/LUFA-git/LUFA/Drivers/USB/Core/AVR8/../AVR8/Endpoint_AVR8.h **** 			static inline bool Endpoint_IsStalled(void)
 512:/users/hunter/downloads/tmk_core/protocol/lufa/LUFA-git/LUFA/Drivers/USB/Core/AVR8/../AVR8/Endpoint_AVR8.h **** 			{
 513:/users/hunter/downloads/tmk_core/protocol/lufa/LUFA-git/LUFA/Drivers/USB/Core/AVR8/../AVR8/Endpoint_AVR8.h **** 				return ((UECONX & (1 << STALLRQ)) ? true : false);
 514:/users/hunter/downloads/tmk_core/protocol/lufa/LUFA-git/LUFA/Drivers/USB/Core/AVR8/../AVR8/Endpoint_AVR8.h **** 			}
 515:/users/hunter/downloads/tmk_core/protocol/lufa/LUFA-git/LUFA/Drivers/USB/Core/AVR8/../AVR8/Endpoint_AVR8.h **** 
 516:/users/hunter/downloads/tmk_core/protocol/lufa/LUFA-git/LUFA/Drivers/USB/Core/AVR8/../AVR8/Endpoint_AVR8.h **** 			/** Resets the data toggle of the currently selected endpoint. */
 517:/users/hunter/downloads/tmk_core/protocol/lufa/LUFA-git/LUFA/Drivers/USB/Core/AVR8/../AVR8/Endpoint_AVR8.h **** 			static inline void Endpoint_ResetDataToggle(void) ATTR_ALWAYS_INLINE;
 518:/users/hunter/downloads/tmk_core/protocol/lufa/LUFA-git/LUFA/Drivers/USB/Core/AVR8/../AVR8/Endpoint_AVR8.h **** 			static inline void Endpoint_ResetDataToggle(void)
 519:/users/hunter/downloads/tmk_core/protocol/lufa/LUFA-git/LUFA/Drivers/USB/Core/AVR8/../AVR8/Endpoint_AVR8.h **** 			{
 520:/users/hunter/downloads/tmk_core/protocol/lufa/LUFA-git/LUFA/Drivers/USB/Core/AVR8/../AVR8/Endpoint_AVR8.h **** 				UECONX |= (1 << RSTDT);
 521:/users/hunter/downloads/tmk_core/protocol/lufa/LUFA-git/LUFA/Drivers/USB/Core/AVR8/../AVR8/Endpoint_AVR8.h **** 			}
 522:/users/hunter/downloads/tmk_core/protocol/lufa/LUFA-git/LUFA/Drivers/USB/Core/AVR8/../AVR8/Endpoint_AVR8.h **** 
 523:/users/hunter/downloads/tmk_core/protocol/lufa/LUFA-git/LUFA/Drivers/USB/Core/AVR8/../AVR8/Endpoint_AVR8.h **** 			/** Sets the direction of the currently selected endpoint.
 524:/users/hunter/downloads/tmk_core/protocol/lufa/LUFA-git/LUFA/Drivers/USB/Core/AVR8/../AVR8/Endpoint_AVR8.h **** 			 *
 525:/users/hunter/downloads/tmk_core/protocol/lufa/LUFA-git/LUFA/Drivers/USB/Core/AVR8/../AVR8/Endpoint_AVR8.h **** 			 *  \param[in] DirectionMask  New endpoint direction, as a \c ENDPOINT_DIR_* mask.
 526:/users/hunter/downloads/tmk_core/protocol/lufa/LUFA-git/LUFA/Drivers/USB/Core/AVR8/../AVR8/Endpoint_AVR8.h **** 			 */
 527:/users/hunter/downloads/tmk_core/protocol/lufa/LUFA-git/LUFA/Drivers/USB/Core/AVR8/../AVR8/Endpoint_AVR8.h **** 			static inline void Endpoint_SetEndpointDirection(const uint8_t DirectionMask) ATTR_ALWAYS_INLINE
 528:/users/hunter/downloads/tmk_core/protocol/lufa/LUFA-git/LUFA/Drivers/USB/Core/AVR8/../AVR8/Endpoint_AVR8.h **** 			static inline void Endpoint_SetEndpointDirection(const uint8_t DirectionMask)
 529:/users/hunter/downloads/tmk_core/protocol/lufa/LUFA-git/LUFA/Drivers/USB/Core/AVR8/../AVR8/Endpoint_AVR8.h **** 			{
 530:/users/hunter/downloads/tmk_core/protocol/lufa/LUFA-git/LUFA/Drivers/USB/Core/AVR8/../AVR8/Endpoint_AVR8.h **** 				UECFG0X = ((UECFG0X & ~(1 << EPDIR)) | (DirectionMask ? (1 << EPDIR) : 0));
 531:/users/hunter/downloads/tmk_core/protocol/lufa/LUFA-git/LUFA/Drivers/USB/Core/AVR8/../AVR8/Endpoint_AVR8.h **** 			}
 532:/users/hunter/downloads/tmk_core/protocol/lufa/LUFA-git/LUFA/Drivers/USB/Core/AVR8/../AVR8/Endpoint_AVR8.h **** 
 533:/users/hunter/downloads/tmk_core/protocol/lufa/LUFA-git/LUFA/Drivers/USB/Core/AVR8/../AVR8/Endpoint_AVR8.h **** 			/** Reads one byte from the currently selected endpoint's bank, for OUT direction endpoints.
 534:/users/hunter/downloads/tmk_core/protocol/lufa/LUFA-git/LUFA/Drivers/USB/Core/AVR8/../AVR8/Endpoint_AVR8.h **** 			 *
 535:/users/hunter/downloads/tmk_core/protocol/lufa/LUFA-git/LUFA/Drivers/USB/Core/AVR8/../AVR8/Endpoint_AVR8.h **** 			 *  \ingroup Group_EndpointPrimitiveRW_AVR8
 536:/users/hunter/downloads/tmk_core/protocol/lufa/LUFA-git/LUFA/Drivers/USB/Core/AVR8/../AVR8/Endpoint_AVR8.h **** 			 *
 537:/users/hunter/downloads/tmk_core/protocol/lufa/LUFA-git/LUFA/Drivers/USB/Core/AVR8/../AVR8/Endpoint_AVR8.h **** 			 *  \return Next byte in the currently selected endpoint's FIFO buffer.
 538:/users/hunter/downloads/tmk_core/protocol/lufa/LUFA-git/LUFA/Drivers/USB/Core/AVR8/../AVR8/Endpoint_AVR8.h **** 			 */
 539:/users/hunter/downloads/tmk_core/protocol/lufa/LUFA-git/LUFA/Drivers/USB/Core/AVR8/../AVR8/Endpoint_AVR8.h **** 			static inline uint8_t Endpoint_Read_8(void) ATTR_WARN_UNUSED_RESULT ATTR_ALWAYS_INLINE;
 540:/users/hunter/downloads/tmk_core/protocol/lufa/LUFA-git/LUFA/Drivers/USB/Core/AVR8/../AVR8/Endpoint_AVR8.h **** 			static inline uint8_t Endpoint_Read_8(void)
 541:/users/hunter/downloads/tmk_core/protocol/lufa/LUFA-git/LUFA/Drivers/USB/Core/AVR8/../AVR8/Endpoint_AVR8.h **** 			{
 542:/users/hunter/downloads/tmk_core/protocol/lufa/LUFA-git/LUFA/Drivers/USB/Core/AVR8/../AVR8/Endpoint_AVR8.h **** 				return UEDATX;
  55               		.loc 2 542 0 discriminator 3
  56 001a 8091 F100 		lds r24,241
  57               	.LBE172:
  58               	.LBE171:
  51:/users/hunter/downloads/tmk_core/protocol/lufa/LUFA-git/LUFA/Drivers/USB/Core/DeviceStandardReq.c **** 	#if defined(ARCH_BIG_ENDIAN)
  52:/users/hunter/downloads/tmk_core/protocol/lufa/LUFA-git/LUFA/Drivers/USB/Core/DeviceStandardReq.c **** 	USB_ControlRequest.bmRequestType = Endpoint_Read_8();
  53:/users/hunter/downloads/tmk_core/protocol/lufa/LUFA-git/LUFA/Drivers/USB/Core/DeviceStandardReq.c **** 	USB_ControlRequest.bRequest      = Endpoint_Read_8();
  54:/users/hunter/downloads/tmk_core/protocol/lufa/LUFA-git/LUFA/Drivers/USB/Core/DeviceStandardReq.c **** 	USB_ControlRequest.wValue        = Endpoint_Read_16_LE();
  55:/users/hunter/downloads/tmk_core/protocol/lufa/LUFA-git/LUFA/Drivers/USB/Core/DeviceStandardReq.c **** 	USB_ControlRequest.wIndex        = Endpoint_Read_16_LE();
  56:/users/hunter/downloads/tmk_core/protocol/lufa/LUFA-git/LUFA/Drivers/USB/Core/DeviceStandardReq.c **** 	USB_ControlRequest.wLength       = Endpoint_Read_16_LE();
  57:/users/hunter/downloads/tmk_core/protocol/lufa/LUFA-git/LUFA/Drivers/USB/Core/DeviceStandardReq.c **** 	#else
  58:/users/hunter/downloads/tmk_core/protocol/lufa/LUFA-git/LUFA/Drivers/USB/Core/DeviceStandardReq.c **** 	uint8_t* RequestHeader = (uint8_t*)&USB_ControlRequest;
  59:/users/hunter/downloads/tmk_core/protocol/lufa/LUFA-git/LUFA/Drivers/USB/Core/DeviceStandardReq.c **** 
  60:/users/hunter/downloads/tmk_core/protocol/lufa/LUFA-git/LUFA/Drivers/USB/Core/DeviceStandardReq.c **** 	for (uint8_t RequestHeaderByte = 0; RequestHeaderByte < sizeof(USB_Request_Header_t); RequestHeade
  61:/users/hunter/downloads/tmk_core/protocol/lufa/LUFA-git/LUFA/Drivers/USB/Core/DeviceStandardReq.c **** 	  *(RequestHeader++) = Endpoint_Read_8();
  59               		.loc 1 61 0 discriminator 3
  60 001e 8193      		st Z+,r24
  61               	.LVL2:
  60:/users/hunter/downloads/tmk_core/protocol/lufa/LUFA-git/LUFA/Drivers/USB/Core/DeviceStandardReq.c **** 	  *(RequestHeader++) = Endpoint_Read_8();
  62               		.loc 1 60 0 discriminator 3
  63 0020 20E0      		ldi r18,hi8(USB_ControlRequest+8)
  64 0022 E030      		cpi r30,lo8(USB_ControlRequest+8)
  65 0024 F207      		cpc r31,r18
  66 0026 01F4      		brne .L2
  67               	.LBE170:
  62:/users/hunter/downloads/tmk_core/protocol/lufa/LUFA-git/LUFA/Drivers/USB/Core/DeviceStandardReq.c **** 	#endif
  63:/users/hunter/downloads/tmk_core/protocol/lufa/LUFA-git/LUFA/Drivers/USB/Core/DeviceStandardReq.c **** 
  64:/users/hunter/downloads/tmk_core/protocol/lufa/LUFA-git/LUFA/Drivers/USB/Core/DeviceStandardReq.c **** 	EVENT_USB_Device_ControlRequest();
  68               		.loc 1 64 0
  69 0028 0E94 0000 		call EVENT_USB_Device_ControlRequest
  70               	.LVL3:
  71               	.LBB173:
  72               	.LBB174:
 431:/users/hunter/downloads/tmk_core/protocol/lufa/LUFA-git/LUFA/Drivers/USB/Core/AVR8/../AVR8/Endpoint_AVR8.h **** 			}
  73               		.loc 2 431 0
  74 002c 8091 E800 		lds r24,232
  75               	.LBE174:
  76               	.LBE173:
  65:/users/hunter/downloads/tmk_core/protocol/lufa/LUFA-git/LUFA/Drivers/USB/Core/DeviceStandardReq.c **** 
  66:/users/hunter/downloads/tmk_core/protocol/lufa/LUFA-git/LUFA/Drivers/USB/Core/DeviceStandardReq.c **** 	if (Endpoint_IsSETUPReceived())
  77               		.loc 1 66 0
  78 0030 83FF      		sbrs r24,3
  79 0032 00C0      		rjmp .L3
  80               	.LBB175:
  67:/users/hunter/downloads/tmk_core/protocol/lufa/LUFA-git/LUFA/Drivers/USB/Core/DeviceStandardReq.c **** 	{
  68:/users/hunter/downloads/tmk_core/protocol/lufa/LUFA-git/LUFA/Drivers/USB/Core/DeviceStandardReq.c **** 		uint8_t bmRequestType = USB_ControlRequest.bmRequestType;
  81               		.loc 1 68 0
  82 0034 8091 0000 		lds r24,USB_ControlRequest
  83               	.LVL4:
  69:/users/hunter/downloads/tmk_core/protocol/lufa/LUFA-git/LUFA/Drivers/USB/Core/DeviceStandardReq.c **** 
  70:/users/hunter/downloads/tmk_core/protocol/lufa/LUFA-git/LUFA/Drivers/USB/Core/DeviceStandardReq.c **** 		switch (USB_ControlRequest.bRequest)
  84               		.loc 1 70 0
  85 0038 9091 0000 		lds r25,USB_ControlRequest+1
  86 003c 9A30      		cpi r25,lo8(10)
  87 003e 00F0      		brlo .+2
  88 0040 00C0      		rjmp .L3
  89 0042 E92F      		mov r30,r25
  90 0044 F0E0      		ldi r31,0
  91 0046 E050      		subi r30,lo8(-(gs(.L5)))
  92 0048 F040      		sbci r31,hi8(-(gs(.L5)))
  93 004a 0C94 0000 		jmp __tablejump2__
  94               		.p2align	1
  95               	.L5:
  96 004e 0000      		.word gs(.L4)
  97 0050 0000      		.word gs(.L6)
  98 0052 0000      		.word gs(.L3)
  99 0054 0000      		.word gs(.L6)
 100 0056 0000      		.word gs(.L3)
 101 0058 0000      		.word gs(.L7)
 102 005a 0000      		.word gs(.L8)
 103 005c 0000      		.word gs(.L3)
 104 005e 0000      		.word gs(.L9)
 105 0060 0000      		.word gs(.L10)
 106               	.L4:
  71:/users/hunter/downloads/tmk_core/protocol/lufa/LUFA-git/LUFA/Drivers/USB/Core/DeviceStandardReq.c **** 		{
  72:/users/hunter/downloads/tmk_core/protocol/lufa/LUFA-git/LUFA/Drivers/USB/Core/DeviceStandardReq.c **** 			case REQ_GetStatus:
  73:/users/hunter/downloads/tmk_core/protocol/lufa/LUFA-git/LUFA/Drivers/USB/Core/DeviceStandardReq.c **** 				if ((bmRequestType == (REQDIR_DEVICETOHOST | REQTYPE_STANDARD | REQREC_DEVICE)) ||
 107               		.loc 1 73 0
 108 0062 8038      		cpi r24,lo8(-128)
 109 0064 01F0      		breq .L11
 110               		.loc 1 73 0 is_stmt 0 discriminator 1
 111 0066 8238      		cpi r24,lo8(-126)
 112 0068 01F4      		brne .L3
 113               	.LVL5:
 114               	.LBB176:
 115               	.LBB177:
  74:/users/hunter/downloads/tmk_core/protocol/lufa/LUFA-git/LUFA/Drivers/USB/Core/DeviceStandardReq.c **** 					(bmRequestType == (REQDIR_DEVICETOHOST | REQTYPE_STANDARD | REQREC_ENDPOINT)))
  75:/users/hunter/downloads/tmk_core/protocol/lufa/LUFA-git/LUFA/Drivers/USB/Core/DeviceStandardReq.c **** 				{
  76:/users/hunter/downloads/tmk_core/protocol/lufa/LUFA-git/LUFA/Drivers/USB/Core/DeviceStandardReq.c **** 					USB_Device_GetStatus();
  77:/users/hunter/downloads/tmk_core/protocol/lufa/LUFA-git/LUFA/Drivers/USB/Core/DeviceStandardReq.c **** 				}
  78:/users/hunter/downloads/tmk_core/protocol/lufa/LUFA-git/LUFA/Drivers/USB/Core/DeviceStandardReq.c **** 
  79:/users/hunter/downloads/tmk_core/protocol/lufa/LUFA-git/LUFA/Drivers/USB/Core/DeviceStandardReq.c **** 				break;
  80:/users/hunter/downloads/tmk_core/protocol/lufa/LUFA-git/LUFA/Drivers/USB/Core/DeviceStandardReq.c **** 			case REQ_ClearFeature:
  81:/users/hunter/downloads/tmk_core/protocol/lufa/LUFA-git/LUFA/Drivers/USB/Core/DeviceStandardReq.c **** 			case REQ_SetFeature:
  82:/users/hunter/downloads/tmk_core/protocol/lufa/LUFA-git/LUFA/Drivers/USB/Core/DeviceStandardReq.c **** 				if ((bmRequestType == (REQDIR_HOSTTODEVICE | REQTYPE_STANDARD | REQREC_DEVICE)) ||
  83:/users/hunter/downloads/tmk_core/protocol/lufa/LUFA-git/LUFA/Drivers/USB/Core/DeviceStandardReq.c **** 					(bmRequestType == (REQDIR_HOSTTODEVICE | REQTYPE_STANDARD | REQREC_ENDPOINT)))
  84:/users/hunter/downloads/tmk_core/protocol/lufa/LUFA-git/LUFA/Drivers/USB/Core/DeviceStandardReq.c **** 				{
  85:/users/hunter/downloads/tmk_core/protocol/lufa/LUFA-git/LUFA/Drivers/USB/Core/DeviceStandardReq.c **** 					USB_Device_ClearSetFeature();
  86:/users/hunter/downloads/tmk_core/protocol/lufa/LUFA-git/LUFA/Drivers/USB/Core/DeviceStandardReq.c **** 				}
  87:/users/hunter/downloads/tmk_core/protocol/lufa/LUFA-git/LUFA/Drivers/USB/Core/DeviceStandardReq.c **** 
  88:/users/hunter/downloads/tmk_core/protocol/lufa/LUFA-git/LUFA/Drivers/USB/Core/DeviceStandardReq.c **** 				break;
  89:/users/hunter/downloads/tmk_core/protocol/lufa/LUFA-git/LUFA/Drivers/USB/Core/DeviceStandardReq.c **** 			case REQ_SetAddress:
  90:/users/hunter/downloads/tmk_core/protocol/lufa/LUFA-git/LUFA/Drivers/USB/Core/DeviceStandardReq.c **** 				if (bmRequestType == (REQDIR_HOSTTODEVICE | REQTYPE_STANDARD | REQREC_DEVICE))
  91:/users/hunter/downloads/tmk_core/protocol/lufa/LUFA-git/LUFA/Drivers/USB/Core/DeviceStandardReq.c **** 				  USB_Device_SetAddress();
  92:/users/hunter/downloads/tmk_core/protocol/lufa/LUFA-git/LUFA/Drivers/USB/Core/DeviceStandardReq.c **** 
  93:/users/hunter/downloads/tmk_core/protocol/lufa/LUFA-git/LUFA/Drivers/USB/Core/DeviceStandardReq.c **** 				break;
  94:/users/hunter/downloads/tmk_core/protocol/lufa/LUFA-git/LUFA/Drivers/USB/Core/DeviceStandardReq.c **** 			case REQ_GetDescriptor:
  95:/users/hunter/downloads/tmk_core/protocol/lufa/LUFA-git/LUFA/Drivers/USB/Core/DeviceStandardReq.c **** 				if ((bmRequestType == (REQDIR_DEVICETOHOST | REQTYPE_STANDARD | REQREC_DEVICE)) ||
  96:/users/hunter/downloads/tmk_core/protocol/lufa/LUFA-git/LUFA/Drivers/USB/Core/DeviceStandardReq.c **** 					(bmRequestType == (REQDIR_DEVICETOHOST | REQTYPE_STANDARD | REQREC_INTERFACE)))
  97:/users/hunter/downloads/tmk_core/protocol/lufa/LUFA-git/LUFA/Drivers/USB/Core/DeviceStandardReq.c **** 				{
  98:/users/hunter/downloads/tmk_core/protocol/lufa/LUFA-git/LUFA/Drivers/USB/Core/DeviceStandardReq.c **** 					USB_Device_GetDescriptor();
  99:/users/hunter/downloads/tmk_core/protocol/lufa/LUFA-git/LUFA/Drivers/USB/Core/DeviceStandardReq.c **** 				}
 100:/users/hunter/downloads/tmk_core/protocol/lufa/LUFA-git/LUFA/Drivers/USB/Core/DeviceStandardReq.c **** 
 101:/users/hunter/downloads/tmk_core/protocol/lufa/LUFA-git/LUFA/Drivers/USB/Core/DeviceStandardReq.c **** 				break;
 102:/users/hunter/downloads/tmk_core/protocol/lufa/LUFA-git/LUFA/Drivers/USB/Core/DeviceStandardReq.c **** 			case REQ_GetConfiguration:
 103:/users/hunter/downloads/tmk_core/protocol/lufa/LUFA-git/LUFA/Drivers/USB/Core/DeviceStandardReq.c **** 				if (bmRequestType == (REQDIR_DEVICETOHOST | REQTYPE_STANDARD | REQREC_DEVICE))
 104:/users/hunter/downloads/tmk_core/protocol/lufa/LUFA-git/LUFA/Drivers/USB/Core/DeviceStandardReq.c **** 				  USB_Device_GetConfiguration();
 105:/users/hunter/downloads/tmk_core/protocol/lufa/LUFA-git/LUFA/Drivers/USB/Core/DeviceStandardReq.c **** 
 106:/users/hunter/downloads/tmk_core/protocol/lufa/LUFA-git/LUFA/Drivers/USB/Core/DeviceStandardReq.c **** 				break;
 107:/users/hunter/downloads/tmk_core/protocol/lufa/LUFA-git/LUFA/Drivers/USB/Core/DeviceStandardReq.c **** 			case REQ_SetConfiguration:
 108:/users/hunter/downloads/tmk_core/protocol/lufa/LUFA-git/LUFA/Drivers/USB/Core/DeviceStandardReq.c **** 				if (bmRequestType == (REQDIR_HOSTTODEVICE | REQTYPE_STANDARD | REQREC_DEVICE))
 109:/users/hunter/downloads/tmk_core/protocol/lufa/LUFA-git/LUFA/Drivers/USB/Core/DeviceStandardReq.c **** 				  USB_Device_SetConfiguration();
 110:/users/hunter/downloads/tmk_core/protocol/lufa/LUFA-git/LUFA/Drivers/USB/Core/DeviceStandardReq.c **** 
 111:/users/hunter/downloads/tmk_core/protocol/lufa/LUFA-git/LUFA/Drivers/USB/Core/DeviceStandardReq.c **** 				break;
 112:/users/hunter/downloads/tmk_core/protocol/lufa/LUFA-git/LUFA/Drivers/USB/Core/DeviceStandardReq.c **** 
 113:/users/hunter/downloads/tmk_core/protocol/lufa/LUFA-git/LUFA/Drivers/USB/Core/DeviceStandardReq.c **** 			default:
 114:/users/hunter/downloads/tmk_core/protocol/lufa/LUFA-git/LUFA/Drivers/USB/Core/DeviceStandardReq.c **** 				break;
 115:/users/hunter/downloads/tmk_core/protocol/lufa/LUFA-git/LUFA/Drivers/USB/Core/DeviceStandardReq.c **** 		}
 116:/users/hunter/downloads/tmk_core/protocol/lufa/LUFA-git/LUFA/Drivers/USB/Core/DeviceStandardReq.c **** 	}
 117:/users/hunter/downloads/tmk_core/protocol/lufa/LUFA-git/LUFA/Drivers/USB/Core/DeviceStandardReq.c **** 
 118:/users/hunter/downloads/tmk_core/protocol/lufa/LUFA-git/LUFA/Drivers/USB/Core/DeviceStandardReq.c **** 	if (Endpoint_IsSETUPReceived())
 119:/users/hunter/downloads/tmk_core/protocol/lufa/LUFA-git/LUFA/Drivers/USB/Core/DeviceStandardReq.c **** 	{
 120:/users/hunter/downloads/tmk_core/protocol/lufa/LUFA-git/LUFA/Drivers/USB/Core/DeviceStandardReq.c **** 		Endpoint_ClearSETUP();
 121:/users/hunter/downloads/tmk_core/protocol/lufa/LUFA-git/LUFA/Drivers/USB/Core/DeviceStandardReq.c **** 		Endpoint_StallTransaction();
 122:/users/hunter/downloads/tmk_core/protocol/lufa/LUFA-git/LUFA/Drivers/USB/Core/DeviceStandardReq.c **** 	}
 123:/users/hunter/downloads/tmk_core/protocol/lufa/LUFA-git/LUFA/Drivers/USB/Core/DeviceStandardReq.c **** }
 124:/users/hunter/downloads/tmk_core/protocol/lufa/LUFA-git/LUFA/Drivers/USB/Core/DeviceStandardReq.c **** 
 125:/users/hunter/downloads/tmk_core/protocol/lufa/LUFA-git/LUFA/Drivers/USB/Core/DeviceStandardReq.c **** static void USB_Device_SetAddress(void)
 126:/users/hunter/downloads/tmk_core/protocol/lufa/LUFA-git/LUFA/Drivers/USB/Core/DeviceStandardReq.c **** {
 127:/users/hunter/downloads/tmk_core/protocol/lufa/LUFA-git/LUFA/Drivers/USB/Core/DeviceStandardReq.c **** 	uint8_t DeviceAddress = (USB_ControlRequest.wValue & 0x7F);
 128:/users/hunter/downloads/tmk_core/protocol/lufa/LUFA-git/LUFA/Drivers/USB/Core/DeviceStandardReq.c **** 
 129:/users/hunter/downloads/tmk_core/protocol/lufa/LUFA-git/LUFA/Drivers/USB/Core/DeviceStandardReq.c **** 	USB_Device_SetDeviceAddress(DeviceAddress);
 130:/users/hunter/downloads/tmk_core/protocol/lufa/LUFA-git/LUFA/Drivers/USB/Core/DeviceStandardReq.c **** 
 131:/users/hunter/downloads/tmk_core/protocol/lufa/LUFA-git/LUFA/Drivers/USB/Core/DeviceStandardReq.c **** 	Endpoint_ClearSETUP();
 132:/users/hunter/downloads/tmk_core/protocol/lufa/LUFA-git/LUFA/Drivers/USB/Core/DeviceStandardReq.c **** 
 133:/users/hunter/downloads/tmk_core/protocol/lufa/LUFA-git/LUFA/Drivers/USB/Core/DeviceStandardReq.c **** 	Endpoint_ClearStatusStage();
 134:/users/hunter/downloads/tmk_core/protocol/lufa/LUFA-git/LUFA/Drivers/USB/Core/DeviceStandardReq.c **** 
 135:/users/hunter/downloads/tmk_core/protocol/lufa/LUFA-git/LUFA/Drivers/USB/Core/DeviceStandardReq.c **** 	while (!(Endpoint_IsINReady()));
 136:/users/hunter/downloads/tmk_core/protocol/lufa/LUFA-git/LUFA/Drivers/USB/Core/DeviceStandardReq.c **** 
 137:/users/hunter/downloads/tmk_core/protocol/lufa/LUFA-git/LUFA/Drivers/USB/Core/DeviceStandardReq.c **** 	USB_Device_EnableDeviceAddress(DeviceAddress);
 138:/users/hunter/downloads/tmk_core/protocol/lufa/LUFA-git/LUFA/Drivers/USB/Core/DeviceStandardReq.c **** 
 139:/users/hunter/downloads/tmk_core/protocol/lufa/LUFA-git/LUFA/Drivers/USB/Core/DeviceStandardReq.c **** 	USB_DeviceState = (DeviceAddress) ? DEVICE_STATE_Addressed : DEVICE_STATE_Default;
 140:/users/hunter/downloads/tmk_core/protocol/lufa/LUFA-git/LUFA/Drivers/USB/Core/DeviceStandardReq.c **** }
 141:/users/hunter/downloads/tmk_core/protocol/lufa/LUFA-git/LUFA/Drivers/USB/Core/DeviceStandardReq.c **** 
 142:/users/hunter/downloads/tmk_core/protocol/lufa/LUFA-git/LUFA/Drivers/USB/Core/DeviceStandardReq.c **** static void USB_Device_SetConfiguration(void)
 143:/users/hunter/downloads/tmk_core/protocol/lufa/LUFA-git/LUFA/Drivers/USB/Core/DeviceStandardReq.c **** {
 144:/users/hunter/downloads/tmk_core/protocol/lufa/LUFA-git/LUFA/Drivers/USB/Core/DeviceStandardReq.c **** 	#if defined(FIXED_NUM_CONFIGURATIONS)
 145:/users/hunter/downloads/tmk_core/protocol/lufa/LUFA-git/LUFA/Drivers/USB/Core/DeviceStandardReq.c **** 	if ((uint8_t)USB_ControlRequest.wValue > FIXED_NUM_CONFIGURATIONS)
 146:/users/hunter/downloads/tmk_core/protocol/lufa/LUFA-git/LUFA/Drivers/USB/Core/DeviceStandardReq.c **** 	  return;
 147:/users/hunter/downloads/tmk_core/protocol/lufa/LUFA-git/LUFA/Drivers/USB/Core/DeviceStandardReq.c **** 	#else
 148:/users/hunter/downloads/tmk_core/protocol/lufa/LUFA-git/LUFA/Drivers/USB/Core/DeviceStandardReq.c **** 	USB_Descriptor_Device_t* DevDescriptorPtr;
 149:/users/hunter/downloads/tmk_core/protocol/lufa/LUFA-git/LUFA/Drivers/USB/Core/DeviceStandardReq.c **** 
 150:/users/hunter/downloads/tmk_core/protocol/lufa/LUFA-git/LUFA/Drivers/USB/Core/DeviceStandardReq.c **** 	#if defined(ARCH_HAS_MULTI_ADDRESS_SPACE)
 151:/users/hunter/downloads/tmk_core/protocol/lufa/LUFA-git/LUFA/Drivers/USB/Core/DeviceStandardReq.c **** 		#if defined(USE_FLASH_DESCRIPTORS)
 152:/users/hunter/downloads/tmk_core/protocol/lufa/LUFA-git/LUFA/Drivers/USB/Core/DeviceStandardReq.c **** 			#define MemoryAddressSpace  MEMSPACE_FLASH
 153:/users/hunter/downloads/tmk_core/protocol/lufa/LUFA-git/LUFA/Drivers/USB/Core/DeviceStandardReq.c **** 		#elif defined(USE_EEPROM_DESCRIPTORS)
 154:/users/hunter/downloads/tmk_core/protocol/lufa/LUFA-git/LUFA/Drivers/USB/Core/DeviceStandardReq.c **** 			#define MemoryAddressSpace  MEMSPACE_EEPROM
 155:/users/hunter/downloads/tmk_core/protocol/lufa/LUFA-git/LUFA/Drivers/USB/Core/DeviceStandardReq.c **** 		#elif defined(USE_SRAM_DESCRIPTORS)
 156:/users/hunter/downloads/tmk_core/protocol/lufa/LUFA-git/LUFA/Drivers/USB/Core/DeviceStandardReq.c **** 			#define MemoryAddressSpace  MEMSPACE_SRAM
 157:/users/hunter/downloads/tmk_core/protocol/lufa/LUFA-git/LUFA/Drivers/USB/Core/DeviceStandardReq.c **** 		#else
 158:/users/hunter/downloads/tmk_core/protocol/lufa/LUFA-git/LUFA/Drivers/USB/Core/DeviceStandardReq.c **** 			uint8_t MemoryAddressSpace;
 159:/users/hunter/downloads/tmk_core/protocol/lufa/LUFA-git/LUFA/Drivers/USB/Core/DeviceStandardReq.c **** 		#endif
 160:/users/hunter/downloads/tmk_core/protocol/lufa/LUFA-git/LUFA/Drivers/USB/Core/DeviceStandardReq.c **** 	#endif
 161:/users/hunter/downloads/tmk_core/protocol/lufa/LUFA-git/LUFA/Drivers/USB/Core/DeviceStandardReq.c **** 
 162:/users/hunter/downloads/tmk_core/protocol/lufa/LUFA-git/LUFA/Drivers/USB/Core/DeviceStandardReq.c **** 	if (CALLBACK_USB_GetDescriptor((DTYPE_Device << 8), 0, (void*)&DevDescriptorPtr
 163:/users/hunter/downloads/tmk_core/protocol/lufa/LUFA-git/LUFA/Drivers/USB/Core/DeviceStandardReq.c **** 	#if defined(ARCH_HAS_MULTI_ADDRESS_SPACE) && \
 164:/users/hunter/downloads/tmk_core/protocol/lufa/LUFA-git/LUFA/Drivers/USB/Core/DeviceStandardReq.c **** 	    !(defined(USE_FLASH_DESCRIPTORS) || defined(USE_EEPROM_DESCRIPTORS) || defined(USE_RAM_DESCRIP
 165:/users/hunter/downloads/tmk_core/protocol/lufa/LUFA-git/LUFA/Drivers/USB/Core/DeviceStandardReq.c **** 	                               , &MemoryAddressSpace
 166:/users/hunter/downloads/tmk_core/protocol/lufa/LUFA-git/LUFA/Drivers/USB/Core/DeviceStandardReq.c **** 	#endif
 167:/users/hunter/downloads/tmk_core/protocol/lufa/LUFA-git/LUFA/Drivers/USB/Core/DeviceStandardReq.c **** 	                               ) == NO_DESCRIPTOR)
 168:/users/hunter/downloads/tmk_core/protocol/lufa/LUFA-git/LUFA/Drivers/USB/Core/DeviceStandardReq.c **** 	{
 169:/users/hunter/downloads/tmk_core/protocol/lufa/LUFA-git/LUFA/Drivers/USB/Core/DeviceStandardReq.c **** 		return;
 170:/users/hunter/downloads/tmk_core/protocol/lufa/LUFA-git/LUFA/Drivers/USB/Core/DeviceStandardReq.c **** 	}
 171:/users/hunter/downloads/tmk_core/protocol/lufa/LUFA-git/LUFA/Drivers/USB/Core/DeviceStandardReq.c **** 
 172:/users/hunter/downloads/tmk_core/protocol/lufa/LUFA-git/LUFA/Drivers/USB/Core/DeviceStandardReq.c **** 	#if defined(ARCH_HAS_MULTI_ADDRESS_SPACE)
 173:/users/hunter/downloads/tmk_core/protocol/lufa/LUFA-git/LUFA/Drivers/USB/Core/DeviceStandardReq.c **** 	if (MemoryAddressSpace == MEMSPACE_FLASH)
 174:/users/hunter/downloads/tmk_core/protocol/lufa/LUFA-git/LUFA/Drivers/USB/Core/DeviceStandardReq.c **** 	{
 175:/users/hunter/downloads/tmk_core/protocol/lufa/LUFA-git/LUFA/Drivers/USB/Core/DeviceStandardReq.c **** 		if (((uint8_t)USB_ControlRequest.wValue > pgm_read_byte(&DevDescriptorPtr->NumberOfConfigurations
 176:/users/hunter/downloads/tmk_core/protocol/lufa/LUFA-git/LUFA/Drivers/USB/Core/DeviceStandardReq.c **** 		  return;
 177:/users/hunter/downloads/tmk_core/protocol/lufa/LUFA-git/LUFA/Drivers/USB/Core/DeviceStandardReq.c **** 	}
 178:/users/hunter/downloads/tmk_core/protocol/lufa/LUFA-git/LUFA/Drivers/USB/Core/DeviceStandardReq.c **** 	else if (MemoryAddressSpace == MEMSPACE_EEPROM)
 179:/users/hunter/downloads/tmk_core/protocol/lufa/LUFA-git/LUFA/Drivers/USB/Core/DeviceStandardReq.c **** 	{
 180:/users/hunter/downloads/tmk_core/protocol/lufa/LUFA-git/LUFA/Drivers/USB/Core/DeviceStandardReq.c **** 		if (((uint8_t)USB_ControlRequest.wValue > eeprom_read_byte(&DevDescriptorPtr->NumberOfConfigurati
 181:/users/hunter/downloads/tmk_core/protocol/lufa/LUFA-git/LUFA/Drivers/USB/Core/DeviceStandardReq.c **** 		  return;
 182:/users/hunter/downloads/tmk_core/protocol/lufa/LUFA-git/LUFA/Drivers/USB/Core/DeviceStandardReq.c **** 	}
 183:/users/hunter/downloads/tmk_core/protocol/lufa/LUFA-git/LUFA/Drivers/USB/Core/DeviceStandardReq.c **** 	else
 184:/users/hunter/downloads/tmk_core/protocol/lufa/LUFA-git/LUFA/Drivers/USB/Core/DeviceStandardReq.c **** 	{
 185:/users/hunter/downloads/tmk_core/protocol/lufa/LUFA-git/LUFA/Drivers/USB/Core/DeviceStandardReq.c **** 		if ((uint8_t)USB_ControlRequest.wValue > DevDescriptorPtr->NumberOfConfigurations)
 186:/users/hunter/downloads/tmk_core/protocol/lufa/LUFA-git/LUFA/Drivers/USB/Core/DeviceStandardReq.c **** 		  return;
 187:/users/hunter/downloads/tmk_core/protocol/lufa/LUFA-git/LUFA/Drivers/USB/Core/DeviceStandardReq.c **** 	}
 188:/users/hunter/downloads/tmk_core/protocol/lufa/LUFA-git/LUFA/Drivers/USB/Core/DeviceStandardReq.c **** 	#else
 189:/users/hunter/downloads/tmk_core/protocol/lufa/LUFA-git/LUFA/Drivers/USB/Core/DeviceStandardReq.c **** 	if ((uint8_t)USB_ControlRequest.wValue > DevDescriptorPtr->NumberOfConfigurations)
 190:/users/hunter/downloads/tmk_core/protocol/lufa/LUFA-git/LUFA/Drivers/USB/Core/DeviceStandardReq.c **** 	  return;
 191:/users/hunter/downloads/tmk_core/protocol/lufa/LUFA-git/LUFA/Drivers/USB/Core/DeviceStandardReq.c **** 	#endif
 192:/users/hunter/downloads/tmk_core/protocol/lufa/LUFA-git/LUFA/Drivers/USB/Core/DeviceStandardReq.c **** 	#endif
 193:/users/hunter/downloads/tmk_core/protocol/lufa/LUFA-git/LUFA/Drivers/USB/Core/DeviceStandardReq.c **** 
 194:/users/hunter/downloads/tmk_core/protocol/lufa/LUFA-git/LUFA/Drivers/USB/Core/DeviceStandardReq.c **** 	Endpoint_ClearSETUP();
 195:/users/hunter/downloads/tmk_core/protocol/lufa/LUFA-git/LUFA/Drivers/USB/Core/DeviceStandardReq.c **** 
 196:/users/hunter/downloads/tmk_core/protocol/lufa/LUFA-git/LUFA/Drivers/USB/Core/DeviceStandardReq.c **** 	USB_Device_ConfigurationNumber = (uint8_t)USB_ControlRequest.wValue;
 197:/users/hunter/downloads/tmk_core/protocol/lufa/LUFA-git/LUFA/Drivers/USB/Core/DeviceStandardReq.c **** 
 198:/users/hunter/downloads/tmk_core/protocol/lufa/LUFA-git/LUFA/Drivers/USB/Core/DeviceStandardReq.c **** 	Endpoint_ClearStatusStage();
 199:/users/hunter/downloads/tmk_core/protocol/lufa/LUFA-git/LUFA/Drivers/USB/Core/DeviceStandardReq.c **** 
 200:/users/hunter/downloads/tmk_core/protocol/lufa/LUFA-git/LUFA/Drivers/USB/Core/DeviceStandardReq.c **** 	if (USB_Device_ConfigurationNumber)
 201:/users/hunter/downloads/tmk_core/protocol/lufa/LUFA-git/LUFA/Drivers/USB/Core/DeviceStandardReq.c **** 	  USB_DeviceState = DEVICE_STATE_Configured;
 202:/users/hunter/downloads/tmk_core/protocol/lufa/LUFA-git/LUFA/Drivers/USB/Core/DeviceStandardReq.c **** 	else
 203:/users/hunter/downloads/tmk_core/protocol/lufa/LUFA-git/LUFA/Drivers/USB/Core/DeviceStandardReq.c **** 	  USB_DeviceState = (USB_Device_IsAddressSet()) ? DEVICE_STATE_Configured : DEVICE_STATE_Powered;
 204:/users/hunter/downloads/tmk_core/protocol/lufa/LUFA-git/LUFA/Drivers/USB/Core/DeviceStandardReq.c **** 
 205:/users/hunter/downloads/tmk_core/protocol/lufa/LUFA-git/LUFA/Drivers/USB/Core/DeviceStandardReq.c **** 	EVENT_USB_Device_ConfigurationChanged();
 206:/users/hunter/downloads/tmk_core/protocol/lufa/LUFA-git/LUFA/Drivers/USB/Core/DeviceStandardReq.c **** }
 207:/users/hunter/downloads/tmk_core/protocol/lufa/LUFA-git/LUFA/Drivers/USB/Core/DeviceStandardReq.c **** 
 208:/users/hunter/downloads/tmk_core/protocol/lufa/LUFA-git/LUFA/Drivers/USB/Core/DeviceStandardReq.c **** static void USB_Device_GetConfiguration(void)
 209:/users/hunter/downloads/tmk_core/protocol/lufa/LUFA-git/LUFA/Drivers/USB/Core/DeviceStandardReq.c **** {
 210:/users/hunter/downloads/tmk_core/protocol/lufa/LUFA-git/LUFA/Drivers/USB/Core/DeviceStandardReq.c **** 	Endpoint_ClearSETUP();
 211:/users/hunter/downloads/tmk_core/protocol/lufa/LUFA-git/LUFA/Drivers/USB/Core/DeviceStandardReq.c **** 
 212:/users/hunter/downloads/tmk_core/protocol/lufa/LUFA-git/LUFA/Drivers/USB/Core/DeviceStandardReq.c **** 	Endpoint_Write_8(USB_Device_ConfigurationNumber);
 213:/users/hunter/downloads/tmk_core/protocol/lufa/LUFA-git/LUFA/Drivers/USB/Core/DeviceStandardReq.c **** 	Endpoint_ClearIN();
 214:/users/hunter/downloads/tmk_core/protocol/lufa/LUFA-git/LUFA/Drivers/USB/Core/DeviceStandardReq.c **** 
 215:/users/hunter/downloads/tmk_core/protocol/lufa/LUFA-git/LUFA/Drivers/USB/Core/DeviceStandardReq.c **** 	Endpoint_ClearStatusStage();
 216:/users/hunter/downloads/tmk_core/protocol/lufa/LUFA-git/LUFA/Drivers/USB/Core/DeviceStandardReq.c **** }
 217:/users/hunter/downloads/tmk_core/protocol/lufa/LUFA-git/LUFA/Drivers/USB/Core/DeviceStandardReq.c **** 
 218:/users/hunter/downloads/tmk_core/protocol/lufa/LUFA-git/LUFA/Drivers/USB/Core/DeviceStandardReq.c **** #if !defined(NO_INTERNAL_SERIAL) && (USE_INTERNAL_SERIAL != NO_DESCRIPTOR)
 219:/users/hunter/downloads/tmk_core/protocol/lufa/LUFA-git/LUFA/Drivers/USB/Core/DeviceStandardReq.c **** static void USB_Device_GetInternalSerialDescriptor(void)
 220:/users/hunter/downloads/tmk_core/protocol/lufa/LUFA-git/LUFA/Drivers/USB/Core/DeviceStandardReq.c **** {
 221:/users/hunter/downloads/tmk_core/protocol/lufa/LUFA-git/LUFA/Drivers/USB/Core/DeviceStandardReq.c **** 	struct
 222:/users/hunter/downloads/tmk_core/protocol/lufa/LUFA-git/LUFA/Drivers/USB/Core/DeviceStandardReq.c **** 	{
 223:/users/hunter/downloads/tmk_core/protocol/lufa/LUFA-git/LUFA/Drivers/USB/Core/DeviceStandardReq.c **** 		USB_Descriptor_Header_t Header;
 224:/users/hunter/downloads/tmk_core/protocol/lufa/LUFA-git/LUFA/Drivers/USB/Core/DeviceStandardReq.c **** 		uint16_t                UnicodeString[INTERNAL_SERIAL_LENGTH_BITS / 4];
 225:/users/hunter/downloads/tmk_core/protocol/lufa/LUFA-git/LUFA/Drivers/USB/Core/DeviceStandardReq.c **** 	} SignatureDescriptor;
 226:/users/hunter/downloads/tmk_core/protocol/lufa/LUFA-git/LUFA/Drivers/USB/Core/DeviceStandardReq.c **** 
 227:/users/hunter/downloads/tmk_core/protocol/lufa/LUFA-git/LUFA/Drivers/USB/Core/DeviceStandardReq.c **** 	SignatureDescriptor.Header.Type = DTYPE_String;
 228:/users/hunter/downloads/tmk_core/protocol/lufa/LUFA-git/LUFA/Drivers/USB/Core/DeviceStandardReq.c **** 	SignatureDescriptor.Header.Size = USB_STRING_LEN(INTERNAL_SERIAL_LENGTH_BITS / 4);
 229:/users/hunter/downloads/tmk_core/protocol/lufa/LUFA-git/LUFA/Drivers/USB/Core/DeviceStandardReq.c **** 
 230:/users/hunter/downloads/tmk_core/protocol/lufa/LUFA-git/LUFA/Drivers/USB/Core/DeviceStandardReq.c **** 	USB_Device_GetSerialString(SignatureDescriptor.UnicodeString);
 231:/users/hunter/downloads/tmk_core/protocol/lufa/LUFA-git/LUFA/Drivers/USB/Core/DeviceStandardReq.c **** 
 232:/users/hunter/downloads/tmk_core/protocol/lufa/LUFA-git/LUFA/Drivers/USB/Core/DeviceStandardReq.c **** 	Endpoint_ClearSETUP();
 233:/users/hunter/downloads/tmk_core/protocol/lufa/LUFA-git/LUFA/Drivers/USB/Core/DeviceStandardReq.c **** 
 234:/users/hunter/downloads/tmk_core/protocol/lufa/LUFA-git/LUFA/Drivers/USB/Core/DeviceStandardReq.c **** 	Endpoint_Write_Control_Stream_LE(&SignatureDescriptor, sizeof(SignatureDescriptor));
 235:/users/hunter/downloads/tmk_core/protocol/lufa/LUFA-git/LUFA/Drivers/USB/Core/DeviceStandardReq.c **** 	Endpoint_ClearOUT();
 236:/users/hunter/downloads/tmk_core/protocol/lufa/LUFA-git/LUFA/Drivers/USB/Core/DeviceStandardReq.c **** }
 237:/users/hunter/downloads/tmk_core/protocol/lufa/LUFA-git/LUFA/Drivers/USB/Core/DeviceStandardReq.c **** #endif
 238:/users/hunter/downloads/tmk_core/protocol/lufa/LUFA-git/LUFA/Drivers/USB/Core/DeviceStandardReq.c **** 
 239:/users/hunter/downloads/tmk_core/protocol/lufa/LUFA-git/LUFA/Drivers/USB/Core/DeviceStandardReq.c **** static void USB_Device_GetDescriptor(void)
 240:/users/hunter/downloads/tmk_core/protocol/lufa/LUFA-git/LUFA/Drivers/USB/Core/DeviceStandardReq.c **** {
 241:/users/hunter/downloads/tmk_core/protocol/lufa/LUFA-git/LUFA/Drivers/USB/Core/DeviceStandardReq.c **** 	const void* DescriptorPointer;
 242:/users/hunter/downloads/tmk_core/protocol/lufa/LUFA-git/LUFA/Drivers/USB/Core/DeviceStandardReq.c **** 	uint16_t    DescriptorSize;
 243:/users/hunter/downloads/tmk_core/protocol/lufa/LUFA-git/LUFA/Drivers/USB/Core/DeviceStandardReq.c **** 
 244:/users/hunter/downloads/tmk_core/protocol/lufa/LUFA-git/LUFA/Drivers/USB/Core/DeviceStandardReq.c **** 	#if defined(ARCH_HAS_MULTI_ADDRESS_SPACE) && \
 245:/users/hunter/downloads/tmk_core/protocol/lufa/LUFA-git/LUFA/Drivers/USB/Core/DeviceStandardReq.c **** 	    !(defined(USE_FLASH_DESCRIPTORS) || defined(USE_EEPROM_DESCRIPTORS) || defined(USE_RAM_DESCRIP
 246:/users/hunter/downloads/tmk_core/protocol/lufa/LUFA-git/LUFA/Drivers/USB/Core/DeviceStandardReq.c **** 	uint8_t DescriptorAddressSpace;
 247:/users/hunter/downloads/tmk_core/protocol/lufa/LUFA-git/LUFA/Drivers/USB/Core/DeviceStandardReq.c **** 	#endif
 248:/users/hunter/downloads/tmk_core/protocol/lufa/LUFA-git/LUFA/Drivers/USB/Core/DeviceStandardReq.c **** 
 249:/users/hunter/downloads/tmk_core/protocol/lufa/LUFA-git/LUFA/Drivers/USB/Core/DeviceStandardReq.c **** 	#if !defined(NO_INTERNAL_SERIAL) && (USE_INTERNAL_SERIAL != NO_DESCRIPTOR)
 250:/users/hunter/downloads/tmk_core/protocol/lufa/LUFA-git/LUFA/Drivers/USB/Core/DeviceStandardReq.c **** 	if (USB_ControlRequest.wValue == ((DTYPE_String << 8) | USE_INTERNAL_SERIAL))
 251:/users/hunter/downloads/tmk_core/protocol/lufa/LUFA-git/LUFA/Drivers/USB/Core/DeviceStandardReq.c **** 	{
 252:/users/hunter/downloads/tmk_core/protocol/lufa/LUFA-git/LUFA/Drivers/USB/Core/DeviceStandardReq.c **** 		USB_Device_GetInternalSerialDescriptor();
 253:/users/hunter/downloads/tmk_core/protocol/lufa/LUFA-git/LUFA/Drivers/USB/Core/DeviceStandardReq.c **** 		return;
 254:/users/hunter/downloads/tmk_core/protocol/lufa/LUFA-git/LUFA/Drivers/USB/Core/DeviceStandardReq.c **** 	}
 255:/users/hunter/downloads/tmk_core/protocol/lufa/LUFA-git/LUFA/Drivers/USB/Core/DeviceStandardReq.c **** 	#endif
 256:/users/hunter/downloads/tmk_core/protocol/lufa/LUFA-git/LUFA/Drivers/USB/Core/DeviceStandardReq.c **** 
 257:/users/hunter/downloads/tmk_core/protocol/lufa/LUFA-git/LUFA/Drivers/USB/Core/DeviceStandardReq.c **** 	if ((DescriptorSize = CALLBACK_USB_GetDescriptor(USB_ControlRequest.wValue, USB_ControlRequest.wIn
 258:/users/hunter/downloads/tmk_core/protocol/lufa/LUFA-git/LUFA/Drivers/USB/Core/DeviceStandardReq.c **** 	                                                 &DescriptorPointer
 259:/users/hunter/downloads/tmk_core/protocol/lufa/LUFA-git/LUFA/Drivers/USB/Core/DeviceStandardReq.c **** 	#if defined(ARCH_HAS_MULTI_ADDRESS_SPACE) && \
 260:/users/hunter/downloads/tmk_core/protocol/lufa/LUFA-git/LUFA/Drivers/USB/Core/DeviceStandardReq.c **** 	    !(defined(USE_FLASH_DESCRIPTORS) || defined(USE_EEPROM_DESCRIPTORS) || defined(USE_RAM_DESCRIP
 261:/users/hunter/downloads/tmk_core/protocol/lufa/LUFA-git/LUFA/Drivers/USB/Core/DeviceStandardReq.c **** 	                                                 , &DescriptorAddressSpace
 262:/users/hunter/downloads/tmk_core/protocol/lufa/LUFA-git/LUFA/Drivers/USB/Core/DeviceStandardReq.c **** 	#endif
 263:/users/hunter/downloads/tmk_core/protocol/lufa/LUFA-git/LUFA/Drivers/USB/Core/DeviceStandardReq.c **** 													 )) == NO_DESCRIPTOR)
 264:/users/hunter/downloads/tmk_core/protocol/lufa/LUFA-git/LUFA/Drivers/USB/Core/DeviceStandardReq.c **** 	{
 265:/users/hunter/downloads/tmk_core/protocol/lufa/LUFA-git/LUFA/Drivers/USB/Core/DeviceStandardReq.c **** 		return;
 266:/users/hunter/downloads/tmk_core/protocol/lufa/LUFA-git/LUFA/Drivers/USB/Core/DeviceStandardReq.c **** 	}
 267:/users/hunter/downloads/tmk_core/protocol/lufa/LUFA-git/LUFA/Drivers/USB/Core/DeviceStandardReq.c **** 
 268:/users/hunter/downloads/tmk_core/protocol/lufa/LUFA-git/LUFA/Drivers/USB/Core/DeviceStandardReq.c **** 	Endpoint_ClearSETUP();
 269:/users/hunter/downloads/tmk_core/protocol/lufa/LUFA-git/LUFA/Drivers/USB/Core/DeviceStandardReq.c **** 
 270:/users/hunter/downloads/tmk_core/protocol/lufa/LUFA-git/LUFA/Drivers/USB/Core/DeviceStandardReq.c **** 	#if defined(USE_RAM_DESCRIPTORS) || !defined(ARCH_HAS_MULTI_ADDRESS_SPACE)
 271:/users/hunter/downloads/tmk_core/protocol/lufa/LUFA-git/LUFA/Drivers/USB/Core/DeviceStandardReq.c **** 	Endpoint_Write_Control_Stream_LE(DescriptorPointer, DescriptorSize);
 272:/users/hunter/downloads/tmk_core/protocol/lufa/LUFA-git/LUFA/Drivers/USB/Core/DeviceStandardReq.c **** 	#elif defined(USE_EEPROM_DESCRIPTORS)
 273:/users/hunter/downloads/tmk_core/protocol/lufa/LUFA-git/LUFA/Drivers/USB/Core/DeviceStandardReq.c **** 	Endpoint_Write_Control_EStream_LE(DescriptorPointer, DescriptorSize);
 274:/users/hunter/downloads/tmk_core/protocol/lufa/LUFA-git/LUFA/Drivers/USB/Core/DeviceStandardReq.c **** 	#elif defined(USE_FLASH_DESCRIPTORS)
 275:/users/hunter/downloads/tmk_core/protocol/lufa/LUFA-git/LUFA/Drivers/USB/Core/DeviceStandardReq.c **** 	Endpoint_Write_Control_PStream_LE(DescriptorPointer, DescriptorSize);
 276:/users/hunter/downloads/tmk_core/protocol/lufa/LUFA-git/LUFA/Drivers/USB/Core/DeviceStandardReq.c **** 	#else
 277:/users/hunter/downloads/tmk_core/protocol/lufa/LUFA-git/LUFA/Drivers/USB/Core/DeviceStandardReq.c **** 	if (DescriptorAddressSpace == MEMSPACE_FLASH)
 278:/users/hunter/downloads/tmk_core/protocol/lufa/LUFA-git/LUFA/Drivers/USB/Core/DeviceStandardReq.c **** 	  Endpoint_Write_Control_PStream_LE(DescriptorPointer, DescriptorSize);
 279:/users/hunter/downloads/tmk_core/protocol/lufa/LUFA-git/LUFA/Drivers/USB/Core/DeviceStandardReq.c **** 	else if (DescriptorAddressSpace == MEMSPACE_EEPROM)
 280:/users/hunter/downloads/tmk_core/protocol/lufa/LUFA-git/LUFA/Drivers/USB/Core/DeviceStandardReq.c **** 	  Endpoint_Write_Control_EStream_LE(DescriptorPointer, DescriptorSize);
 281:/users/hunter/downloads/tmk_core/protocol/lufa/LUFA-git/LUFA/Drivers/USB/Core/DeviceStandardReq.c **** 	else
 282:/users/hunter/downloads/tmk_core/protocol/lufa/LUFA-git/LUFA/Drivers/USB/Core/DeviceStandardReq.c **** 	  Endpoint_Write_Control_Stream_LE(DescriptorPointer, DescriptorSize);
 283:/users/hunter/downloads/tmk_core/protocol/lufa/LUFA-git/LUFA/Drivers/USB/Core/DeviceStandardReq.c **** 	#endif
 284:/users/hunter/downloads/tmk_core/protocol/lufa/LUFA-git/LUFA/Drivers/USB/Core/DeviceStandardReq.c **** 
 285:/users/hunter/downloads/tmk_core/protocol/lufa/LUFA-git/LUFA/Drivers/USB/Core/DeviceStandardReq.c **** 	Endpoint_ClearOUT();
 286:/users/hunter/downloads/tmk_core/protocol/lufa/LUFA-git/LUFA/Drivers/USB/Core/DeviceStandardReq.c **** }
 287:/users/hunter/downloads/tmk_core/protocol/lufa/LUFA-git/LUFA/Drivers/USB/Core/DeviceStandardReq.c **** 
 288:/users/hunter/downloads/tmk_core/protocol/lufa/LUFA-git/LUFA/Drivers/USB/Core/DeviceStandardReq.c **** static void USB_Device_GetStatus(void)
 289:/users/hunter/downloads/tmk_core/protocol/lufa/LUFA-git/LUFA/Drivers/USB/Core/DeviceStandardReq.c **** {
 290:/users/hunter/downloads/tmk_core/protocol/lufa/LUFA-git/LUFA/Drivers/USB/Core/DeviceStandardReq.c **** 	uint8_t CurrentStatus = 0;
 291:/users/hunter/downloads/tmk_core/protocol/lufa/LUFA-git/LUFA/Drivers/USB/Core/DeviceStandardReq.c **** 
 292:/users/hunter/downloads/tmk_core/protocol/lufa/LUFA-git/LUFA/Drivers/USB/Core/DeviceStandardReq.c **** 	switch (USB_ControlRequest.bmRequestType)
 293:/users/hunter/downloads/tmk_core/protocol/lufa/LUFA-git/LUFA/Drivers/USB/Core/DeviceStandardReq.c **** 	{
 294:/users/hunter/downloads/tmk_core/protocol/lufa/LUFA-git/LUFA/Drivers/USB/Core/DeviceStandardReq.c **** 		case (REQDIR_DEVICETOHOST | REQTYPE_STANDARD | REQREC_DEVICE):
 295:/users/hunter/downloads/tmk_core/protocol/lufa/LUFA-git/LUFA/Drivers/USB/Core/DeviceStandardReq.c **** 			#if !defined(NO_DEVICE_SELF_POWER)
 296:/users/hunter/downloads/tmk_core/protocol/lufa/LUFA-git/LUFA/Drivers/USB/Core/DeviceStandardReq.c **** 			if (USB_Device_CurrentlySelfPowered)
 297:/users/hunter/downloads/tmk_core/protocol/lufa/LUFA-git/LUFA/Drivers/USB/Core/DeviceStandardReq.c **** 			  CurrentStatus |= FEATURE_SELFPOWERED_ENABLED;
 298:/users/hunter/downloads/tmk_core/protocol/lufa/LUFA-git/LUFA/Drivers/USB/Core/DeviceStandardReq.c **** 			#endif
 299:/users/hunter/downloads/tmk_core/protocol/lufa/LUFA-git/LUFA/Drivers/USB/Core/DeviceStandardReq.c **** 
 300:/users/hunter/downloads/tmk_core/protocol/lufa/LUFA-git/LUFA/Drivers/USB/Core/DeviceStandardReq.c **** 			#if !defined(NO_DEVICE_REMOTE_WAKEUP)
 301:/users/hunter/downloads/tmk_core/protocol/lufa/LUFA-git/LUFA/Drivers/USB/Core/DeviceStandardReq.c **** 			if (USB_Device_RemoteWakeupEnabled)
 302:/users/hunter/downloads/tmk_core/protocol/lufa/LUFA-git/LUFA/Drivers/USB/Core/DeviceStandardReq.c **** 			  CurrentStatus |= FEATURE_REMOTE_WAKEUP_ENABLED;
 303:/users/hunter/downloads/tmk_core/protocol/lufa/LUFA-git/LUFA/Drivers/USB/Core/DeviceStandardReq.c **** 			#endif
 304:/users/hunter/downloads/tmk_core/protocol/lufa/LUFA-git/LUFA/Drivers/USB/Core/DeviceStandardReq.c **** 			break;
 305:/users/hunter/downloads/tmk_core/protocol/lufa/LUFA-git/LUFA/Drivers/USB/Core/DeviceStandardReq.c **** 		case (REQDIR_DEVICETOHOST | REQTYPE_STANDARD | REQREC_ENDPOINT):
 306:/users/hunter/downloads/tmk_core/protocol/lufa/LUFA-git/LUFA/Drivers/USB/Core/DeviceStandardReq.c **** 			#if !defined(CONTROL_ONLY_DEVICE)
 307:/users/hunter/downloads/tmk_core/protocol/lufa/LUFA-git/LUFA/Drivers/USB/Core/DeviceStandardReq.c **** 			Endpoint_SelectEndpoint((uint8_t)USB_ControlRequest.wIndex & ENDPOINT_EPNUM_MASK);
 116               		.loc 1 307 0 is_stmt 1
 117 006a 8091 0000 		lds r24,USB_ControlRequest+4
 118               	.LVL6:
 119 006e 8F70      		andi r24,lo8(15)
 120               	.LVL7:
 121               	.LBB178:
 122               	.LBB179:
 270:/users/hunter/downloads/tmk_core/protocol/lufa/LUFA-git/LUFA/Drivers/USB/Core/AVR8/../AVR8/Endpoint_AVR8.h **** 				#endif
 123               		.loc 2 270 0
 124 0070 8093 E900 		sts 233,r24
 125               	.LVL8:
 126               	.LBE179:
 127               	.LBE178:
 128               	.LBB180:
 129               	.LBB181:
 513:/users/hunter/downloads/tmk_core/protocol/lufa/LUFA-git/LUFA/Drivers/USB/Core/AVR8/../AVR8/Endpoint_AVR8.h **** 			}
 130               		.loc 2 513 0
 131 0074 8091 EB00 		lds r24,235
 132 0078 85FB      		bst r24,5
 133 007a 8827      		clr r24
 134 007c 80F9      		bld r24,0
 135               	.LVL9:
 136               	.LBE181:
 137               	.LBE180:
 138               	.LBB182:
 139               	.LBB183:
 270:/users/hunter/downloads/tmk_core/protocol/lufa/LUFA-git/LUFA/Drivers/USB/Core/AVR8/../AVR8/Endpoint_AVR8.h **** 				#endif
 140               		.loc 2 270 0
 141 007e 1092 E900 		sts 233,__zero_reg__
 142 0082 00C0      		rjmp .L13
 143               	.LVL10:
 144               	.L11:
 145               	.LBE183:
 146               	.LBE182:
 290:/users/hunter/downloads/tmk_core/protocol/lufa/LUFA-git/LUFA/Drivers/USB/Core/DeviceStandardReq.c **** 
 147               		.loc 1 290 0
 148 0084 8091 0000 		lds r24,USB_Device_CurrentlySelfPowered
 149               	.LVL11:
 301:/users/hunter/downloads/tmk_core/protocol/lufa/LUFA-git/LUFA/Drivers/USB/Core/DeviceStandardReq.c **** 			  CurrentStatus |= FEATURE_REMOTE_WAKEUP_ENABLED;
 150               		.loc 1 301 0
 151 0088 9091 0000 		lds r25,USB_Device_RemoteWakeupEnabled
 152 008c 9111      		cpse r25,__zero_reg__
 302:/users/hunter/downloads/tmk_core/protocol/lufa/LUFA-git/LUFA/Drivers/USB/Core/DeviceStandardReq.c **** 			#endif
 153               		.loc 1 302 0
 154 008e 8260      		ori r24,lo8(2)
 155               	.LVL12:
 156               	.L13:
 157               	.LBB184:
 158               	.LBB185:
 444:/users/hunter/downloads/tmk_core/protocol/lufa/LUFA-git/LUFA/Drivers/USB/Core/AVR8/../AVR8/Endpoint_AVR8.h **** 			}
 159               		.loc 2 444 0
 160 0090 9091 E800 		lds r25,232
 161 0094 977F      		andi r25,lo8(-9)
 162 0096 9093 E800 		sts 232,r25
 163               	.LVL13:
 164               	.LBE185:
 165               	.LBE184:
 166               	.LBB186:
 167               	.LBB187:
 543:/users/hunter/downloads/tmk_core/protocol/lufa/LUFA-git/LUFA/Drivers/USB/Core/AVR8/../AVR8/Endpoint_AVR8.h **** 			}
 544:/users/hunter/downloads/tmk_core/protocol/lufa/LUFA-git/LUFA/Drivers/USB/Core/AVR8/../AVR8/Endpoint_AVR8.h **** 
 545:/users/hunter/downloads/tmk_core/protocol/lufa/LUFA-git/LUFA/Drivers/USB/Core/AVR8/../AVR8/Endpoint_AVR8.h **** 			/** Writes one byte to the currently selected endpoint's bank, for IN direction endpoints.
 546:/users/hunter/downloads/tmk_core/protocol/lufa/LUFA-git/LUFA/Drivers/USB/Core/AVR8/../AVR8/Endpoint_AVR8.h **** 			 *
 547:/users/hunter/downloads/tmk_core/protocol/lufa/LUFA-git/LUFA/Drivers/USB/Core/AVR8/../AVR8/Endpoint_AVR8.h **** 			 *  \ingroup Group_EndpointPrimitiveRW_AVR8
 548:/users/hunter/downloads/tmk_core/protocol/lufa/LUFA-git/LUFA/Drivers/USB/Core/AVR8/../AVR8/Endpoint_AVR8.h **** 			 *
 549:/users/hunter/downloads/tmk_core/protocol/lufa/LUFA-git/LUFA/Drivers/USB/Core/AVR8/../AVR8/Endpoint_AVR8.h **** 			 *  \param[in] Data  Data to write into the the currently selected endpoint's FIFO buffer.
 550:/users/hunter/downloads/tmk_core/protocol/lufa/LUFA-git/LUFA/Drivers/USB/Core/AVR8/../AVR8/Endpoint_AVR8.h **** 			 */
 551:/users/hunter/downloads/tmk_core/protocol/lufa/LUFA-git/LUFA/Drivers/USB/Core/AVR8/../AVR8/Endpoint_AVR8.h **** 			static inline void Endpoint_Write_8(const uint8_t Data) ATTR_ALWAYS_INLINE;
 552:/users/hunter/downloads/tmk_core/protocol/lufa/LUFA-git/LUFA/Drivers/USB/Core/AVR8/../AVR8/Endpoint_AVR8.h **** 			static inline void Endpoint_Write_8(const uint8_t Data)
 553:/users/hunter/downloads/tmk_core/protocol/lufa/LUFA-git/LUFA/Drivers/USB/Core/AVR8/../AVR8/Endpoint_AVR8.h **** 			{
 554:/users/hunter/downloads/tmk_core/protocol/lufa/LUFA-git/LUFA/Drivers/USB/Core/AVR8/../AVR8/Endpoint_AVR8.h **** 				UEDATX = Data;
 555:/users/hunter/downloads/tmk_core/protocol/lufa/LUFA-git/LUFA/Drivers/USB/Core/AVR8/../AVR8/Endpoint_AVR8.h **** 			}
 556:/users/hunter/downloads/tmk_core/protocol/lufa/LUFA-git/LUFA/Drivers/USB/Core/AVR8/../AVR8/Endpoint_AVR8.h **** 
 557:/users/hunter/downloads/tmk_core/protocol/lufa/LUFA-git/LUFA/Drivers/USB/Core/AVR8/../AVR8/Endpoint_AVR8.h **** 			/** Discards one byte from the currently selected endpoint's bank, for OUT direction endpoints.
 558:/users/hunter/downloads/tmk_core/protocol/lufa/LUFA-git/LUFA/Drivers/USB/Core/AVR8/../AVR8/Endpoint_AVR8.h **** 			 *
 559:/users/hunter/downloads/tmk_core/protocol/lufa/LUFA-git/LUFA/Drivers/USB/Core/AVR8/../AVR8/Endpoint_AVR8.h **** 			 *  \ingroup Group_EndpointPrimitiveRW_AVR8
 560:/users/hunter/downloads/tmk_core/protocol/lufa/LUFA-git/LUFA/Drivers/USB/Core/AVR8/../AVR8/Endpoint_AVR8.h **** 			 */
 561:/users/hunter/downloads/tmk_core/protocol/lufa/LUFA-git/LUFA/Drivers/USB/Core/AVR8/../AVR8/Endpoint_AVR8.h **** 			static inline void Endpoint_Discard_8(void) ATTR_ALWAYS_INLINE;
 562:/users/hunter/downloads/tmk_core/protocol/lufa/LUFA-git/LUFA/Drivers/USB/Core/AVR8/../AVR8/Endpoint_AVR8.h **** 			static inline void Endpoint_Discard_8(void)
 563:/users/hunter/downloads/tmk_core/protocol/lufa/LUFA-git/LUFA/Drivers/USB/Core/AVR8/../AVR8/Endpoint_AVR8.h **** 			{
 564:/users/hunter/downloads/tmk_core/protocol/lufa/LUFA-git/LUFA/Drivers/USB/Core/AVR8/../AVR8/Endpoint_AVR8.h **** 				uint8_t Dummy;
 565:/users/hunter/downloads/tmk_core/protocol/lufa/LUFA-git/LUFA/Drivers/USB/Core/AVR8/../AVR8/Endpoint_AVR8.h **** 
 566:/users/hunter/downloads/tmk_core/protocol/lufa/LUFA-git/LUFA/Drivers/USB/Core/AVR8/../AVR8/Endpoint_AVR8.h **** 				Dummy = UEDATX;
 567:/users/hunter/downloads/tmk_core/protocol/lufa/LUFA-git/LUFA/Drivers/USB/Core/AVR8/../AVR8/Endpoint_AVR8.h **** 
 568:/users/hunter/downloads/tmk_core/protocol/lufa/LUFA-git/LUFA/Drivers/USB/Core/AVR8/../AVR8/Endpoint_AVR8.h **** 				(void)Dummy;
 569:/users/hunter/downloads/tmk_core/protocol/lufa/LUFA-git/LUFA/Drivers/USB/Core/AVR8/../AVR8/Endpoint_AVR8.h **** 			}
 570:/users/hunter/downloads/tmk_core/protocol/lufa/LUFA-git/LUFA/Drivers/USB/Core/AVR8/../AVR8/Endpoint_AVR8.h **** 
 571:/users/hunter/downloads/tmk_core/protocol/lufa/LUFA-git/LUFA/Drivers/USB/Core/AVR8/../AVR8/Endpoint_AVR8.h **** 			/** Reads two bytes from the currently selected endpoint's bank in little endian format, for OUT
 572:/users/hunter/downloads/tmk_core/protocol/lufa/LUFA-git/LUFA/Drivers/USB/Core/AVR8/../AVR8/Endpoint_AVR8.h **** 			 *  direction endpoints.
 573:/users/hunter/downloads/tmk_core/protocol/lufa/LUFA-git/LUFA/Drivers/USB/Core/AVR8/../AVR8/Endpoint_AVR8.h **** 			 *
 574:/users/hunter/downloads/tmk_core/protocol/lufa/LUFA-git/LUFA/Drivers/USB/Core/AVR8/../AVR8/Endpoint_AVR8.h **** 			 *  \ingroup Group_EndpointPrimitiveRW_AVR8
 575:/users/hunter/downloads/tmk_core/protocol/lufa/LUFA-git/LUFA/Drivers/USB/Core/AVR8/../AVR8/Endpoint_AVR8.h **** 			 *
 576:/users/hunter/downloads/tmk_core/protocol/lufa/LUFA-git/LUFA/Drivers/USB/Core/AVR8/../AVR8/Endpoint_AVR8.h **** 			 *  \return Next two bytes in the currently selected endpoint's FIFO buffer.
 577:/users/hunter/downloads/tmk_core/protocol/lufa/LUFA-git/LUFA/Drivers/USB/Core/AVR8/../AVR8/Endpoint_AVR8.h **** 			 */
 578:/users/hunter/downloads/tmk_core/protocol/lufa/LUFA-git/LUFA/Drivers/USB/Core/AVR8/../AVR8/Endpoint_AVR8.h **** 			static inline uint16_t Endpoint_Read_16_LE(void) ATTR_WARN_UNUSED_RESULT ATTR_ALWAYS_INLINE;
 579:/users/hunter/downloads/tmk_core/protocol/lufa/LUFA-git/LUFA/Drivers/USB/Core/AVR8/../AVR8/Endpoint_AVR8.h **** 			static inline uint16_t Endpoint_Read_16_LE(void)
 580:/users/hunter/downloads/tmk_core/protocol/lufa/LUFA-git/LUFA/Drivers/USB/Core/AVR8/../AVR8/Endpoint_AVR8.h **** 			{
 581:/users/hunter/downloads/tmk_core/protocol/lufa/LUFA-git/LUFA/Drivers/USB/Core/AVR8/../AVR8/Endpoint_AVR8.h **** 				union
 582:/users/hunter/downloads/tmk_core/protocol/lufa/LUFA-git/LUFA/Drivers/USB/Core/AVR8/../AVR8/Endpoint_AVR8.h **** 				{
 583:/users/hunter/downloads/tmk_core/protocol/lufa/LUFA-git/LUFA/Drivers/USB/Core/AVR8/../AVR8/Endpoint_AVR8.h **** 					uint16_t Value;
 584:/users/hunter/downloads/tmk_core/protocol/lufa/LUFA-git/LUFA/Drivers/USB/Core/AVR8/../AVR8/Endpoint_AVR8.h **** 					uint8_t  Bytes[2];
 585:/users/hunter/downloads/tmk_core/protocol/lufa/LUFA-git/LUFA/Drivers/USB/Core/AVR8/../AVR8/Endpoint_AVR8.h **** 				} Data;
 586:/users/hunter/downloads/tmk_core/protocol/lufa/LUFA-git/LUFA/Drivers/USB/Core/AVR8/../AVR8/Endpoint_AVR8.h **** 
 587:/users/hunter/downloads/tmk_core/protocol/lufa/LUFA-git/LUFA/Drivers/USB/Core/AVR8/../AVR8/Endpoint_AVR8.h **** 				Data.Bytes[0] = UEDATX;
 588:/users/hunter/downloads/tmk_core/protocol/lufa/LUFA-git/LUFA/Drivers/USB/Core/AVR8/../AVR8/Endpoint_AVR8.h **** 				Data.Bytes[1] = UEDATX;
 589:/users/hunter/downloads/tmk_core/protocol/lufa/LUFA-git/LUFA/Drivers/USB/Core/AVR8/../AVR8/Endpoint_AVR8.h **** 
 590:/users/hunter/downloads/tmk_core/protocol/lufa/LUFA-git/LUFA/Drivers/USB/Core/AVR8/../AVR8/Endpoint_AVR8.h **** 				return Data.Value;
 591:/users/hunter/downloads/tmk_core/protocol/lufa/LUFA-git/LUFA/Drivers/USB/Core/AVR8/../AVR8/Endpoint_AVR8.h **** 			}
 592:/users/hunter/downloads/tmk_core/protocol/lufa/LUFA-git/LUFA/Drivers/USB/Core/AVR8/../AVR8/Endpoint_AVR8.h **** 
 593:/users/hunter/downloads/tmk_core/protocol/lufa/LUFA-git/LUFA/Drivers/USB/Core/AVR8/../AVR8/Endpoint_AVR8.h **** 			/** Reads two bytes from the currently selected endpoint's bank in big endian format, for OUT
 594:/users/hunter/downloads/tmk_core/protocol/lufa/LUFA-git/LUFA/Drivers/USB/Core/AVR8/../AVR8/Endpoint_AVR8.h **** 			 *  direction endpoints.
 595:/users/hunter/downloads/tmk_core/protocol/lufa/LUFA-git/LUFA/Drivers/USB/Core/AVR8/../AVR8/Endpoint_AVR8.h **** 			 *
 596:/users/hunter/downloads/tmk_core/protocol/lufa/LUFA-git/LUFA/Drivers/USB/Core/AVR8/../AVR8/Endpoint_AVR8.h **** 			 *  \ingroup Group_EndpointPrimitiveRW_AVR8
 597:/users/hunter/downloads/tmk_core/protocol/lufa/LUFA-git/LUFA/Drivers/USB/Core/AVR8/../AVR8/Endpoint_AVR8.h **** 			 *
 598:/users/hunter/downloads/tmk_core/protocol/lufa/LUFA-git/LUFA/Drivers/USB/Core/AVR8/../AVR8/Endpoint_AVR8.h **** 			 *  \return Next two bytes in the currently selected endpoint's FIFO buffer.
 599:/users/hunter/downloads/tmk_core/protocol/lufa/LUFA-git/LUFA/Drivers/USB/Core/AVR8/../AVR8/Endpoint_AVR8.h **** 			 */
 600:/users/hunter/downloads/tmk_core/protocol/lufa/LUFA-git/LUFA/Drivers/USB/Core/AVR8/../AVR8/Endpoint_AVR8.h **** 			static inline uint16_t Endpoint_Read_16_BE(void) ATTR_WARN_UNUSED_RESULT ATTR_ALWAYS_INLINE;
 601:/users/hunter/downloads/tmk_core/protocol/lufa/LUFA-git/LUFA/Drivers/USB/Core/AVR8/../AVR8/Endpoint_AVR8.h **** 			static inline uint16_t Endpoint_Read_16_BE(void)
 602:/users/hunter/downloads/tmk_core/protocol/lufa/LUFA-git/LUFA/Drivers/USB/Core/AVR8/../AVR8/Endpoint_AVR8.h **** 			{
 603:/users/hunter/downloads/tmk_core/protocol/lufa/LUFA-git/LUFA/Drivers/USB/Core/AVR8/../AVR8/Endpoint_AVR8.h **** 				union
 604:/users/hunter/downloads/tmk_core/protocol/lufa/LUFA-git/LUFA/Drivers/USB/Core/AVR8/../AVR8/Endpoint_AVR8.h **** 				{
 605:/users/hunter/downloads/tmk_core/protocol/lufa/LUFA-git/LUFA/Drivers/USB/Core/AVR8/../AVR8/Endpoint_AVR8.h **** 					uint16_t Value;
 606:/users/hunter/downloads/tmk_core/protocol/lufa/LUFA-git/LUFA/Drivers/USB/Core/AVR8/../AVR8/Endpoint_AVR8.h **** 					uint8_t  Bytes[2];
 607:/users/hunter/downloads/tmk_core/protocol/lufa/LUFA-git/LUFA/Drivers/USB/Core/AVR8/../AVR8/Endpoint_AVR8.h **** 				} Data;
 608:/users/hunter/downloads/tmk_core/protocol/lufa/LUFA-git/LUFA/Drivers/USB/Core/AVR8/../AVR8/Endpoint_AVR8.h **** 
 609:/users/hunter/downloads/tmk_core/protocol/lufa/LUFA-git/LUFA/Drivers/USB/Core/AVR8/../AVR8/Endpoint_AVR8.h **** 				Data.Bytes[1] = UEDATX;
 610:/users/hunter/downloads/tmk_core/protocol/lufa/LUFA-git/LUFA/Drivers/USB/Core/AVR8/../AVR8/Endpoint_AVR8.h **** 				Data.Bytes[0] = UEDATX;
 611:/users/hunter/downloads/tmk_core/protocol/lufa/LUFA-git/LUFA/Drivers/USB/Core/AVR8/../AVR8/Endpoint_AVR8.h **** 
 612:/users/hunter/downloads/tmk_core/protocol/lufa/LUFA-git/LUFA/Drivers/USB/Core/AVR8/../AVR8/Endpoint_AVR8.h **** 				return Data.Value;
 613:/users/hunter/downloads/tmk_core/protocol/lufa/LUFA-git/LUFA/Drivers/USB/Core/AVR8/../AVR8/Endpoint_AVR8.h **** 			}
 614:/users/hunter/downloads/tmk_core/protocol/lufa/LUFA-git/LUFA/Drivers/USB/Core/AVR8/../AVR8/Endpoint_AVR8.h **** 
 615:/users/hunter/downloads/tmk_core/protocol/lufa/LUFA-git/LUFA/Drivers/USB/Core/AVR8/../AVR8/Endpoint_AVR8.h **** 			/** Writes two bytes to the currently selected endpoint's bank in little endian format, for IN
 616:/users/hunter/downloads/tmk_core/protocol/lufa/LUFA-git/LUFA/Drivers/USB/Core/AVR8/../AVR8/Endpoint_AVR8.h **** 			 *  direction endpoints.
 617:/users/hunter/downloads/tmk_core/protocol/lufa/LUFA-git/LUFA/Drivers/USB/Core/AVR8/../AVR8/Endpoint_AVR8.h **** 			 *
 618:/users/hunter/downloads/tmk_core/protocol/lufa/LUFA-git/LUFA/Drivers/USB/Core/AVR8/../AVR8/Endpoint_AVR8.h **** 			 *  \ingroup Group_EndpointPrimitiveRW_AVR8
 619:/users/hunter/downloads/tmk_core/protocol/lufa/LUFA-git/LUFA/Drivers/USB/Core/AVR8/../AVR8/Endpoint_AVR8.h **** 			 *
 620:/users/hunter/downloads/tmk_core/protocol/lufa/LUFA-git/LUFA/Drivers/USB/Core/AVR8/../AVR8/Endpoint_AVR8.h **** 			 *  \param[in] Data  Data to write to the currently selected endpoint's FIFO buffer.
 621:/users/hunter/downloads/tmk_core/protocol/lufa/LUFA-git/LUFA/Drivers/USB/Core/AVR8/../AVR8/Endpoint_AVR8.h **** 			 */
 622:/users/hunter/downloads/tmk_core/protocol/lufa/LUFA-git/LUFA/Drivers/USB/Core/AVR8/../AVR8/Endpoint_AVR8.h **** 			static inline void Endpoint_Write_16_LE(const uint16_t Data) ATTR_ALWAYS_INLINE;
 623:/users/hunter/downloads/tmk_core/protocol/lufa/LUFA-git/LUFA/Drivers/USB/Core/AVR8/../AVR8/Endpoint_AVR8.h **** 			static inline void Endpoint_Write_16_LE(const uint16_t Data)
 624:/users/hunter/downloads/tmk_core/protocol/lufa/LUFA-git/LUFA/Drivers/USB/Core/AVR8/../AVR8/Endpoint_AVR8.h **** 			{
 625:/users/hunter/downloads/tmk_core/protocol/lufa/LUFA-git/LUFA/Drivers/USB/Core/AVR8/../AVR8/Endpoint_AVR8.h **** 				UEDATX = (Data & 0xFF);
 168               		.loc 2 625 0
 169 009a 8093 F100 		sts 241,r24
 626:/users/hunter/downloads/tmk_core/protocol/lufa/LUFA-git/LUFA/Drivers/USB/Core/AVR8/../AVR8/Endpoint_AVR8.h **** 				UEDATX = (Data >> 8);
 170               		.loc 2 626 0
 171 009e 1092 F100 		sts 241,__zero_reg__
 172               	.LVL14:
 173               	.L66:
 174               	.LBE187:
 175               	.LBE186:
 176               	.LBE177:
 177               	.LBE176:
 178               	.LBB188:
 179               	.LBB189:
 180               	.LBB190:
 181               	.LBB191:
 456:/users/hunter/downloads/tmk_core/protocol/lufa/LUFA-git/LUFA/Drivers/USB/Core/AVR8/../AVR8/Endpoint_AVR8.h **** 				#else
 182               		.loc 2 456 0
 183 00a2 8091 E800 		lds r24,232
 184 00a6 8E77      		andi r24,lo8(126)
 185 00a8 00C0      		rjmp .L65
 186               	.LVL15:
 187               	.L6:
 188               	.LBE191:
 189               	.LBE190:
 190               	.LBE189:
 191               	.LBE188:
  82:/users/hunter/downloads/tmk_core/protocol/lufa/LUFA-git/LUFA/Drivers/USB/Core/DeviceStandardReq.c **** 					(bmRequestType == (REQDIR_HOSTTODEVICE | REQTYPE_STANDARD | REQREC_ENDPOINT)))
 192               		.loc 1 82 0
 193 00aa 282F      		mov r18,r24
 194 00ac 2D7F      		andi r18,lo8(-3)
 195 00ae 01F4      		brne .L3
 196               	.LBB200:
 197               	.LBB201:
 308:/users/hunter/downloads/tmk_core/protocol/lufa/LUFA-git/LUFA/Drivers/USB/Core/DeviceStandardReq.c **** 
 309:/users/hunter/downloads/tmk_core/protocol/lufa/LUFA-git/LUFA/Drivers/USB/Core/DeviceStandardReq.c **** 			CurrentStatus = Endpoint_IsStalled();
 310:/users/hunter/downloads/tmk_core/protocol/lufa/LUFA-git/LUFA/Drivers/USB/Core/DeviceStandardReq.c **** 
 311:/users/hunter/downloads/tmk_core/protocol/lufa/LUFA-git/LUFA/Drivers/USB/Core/DeviceStandardReq.c **** 			Endpoint_SelectEndpoint(ENDPOINT_CONTROLEP);
 312:/users/hunter/downloads/tmk_core/protocol/lufa/LUFA-git/LUFA/Drivers/USB/Core/DeviceStandardReq.c **** 			#endif
 313:/users/hunter/downloads/tmk_core/protocol/lufa/LUFA-git/LUFA/Drivers/USB/Core/DeviceStandardReq.c **** 
 314:/users/hunter/downloads/tmk_core/protocol/lufa/LUFA-git/LUFA/Drivers/USB/Core/DeviceStandardReq.c **** 			break;
 315:/users/hunter/downloads/tmk_core/protocol/lufa/LUFA-git/LUFA/Drivers/USB/Core/DeviceStandardReq.c **** 		default:
 316:/users/hunter/downloads/tmk_core/protocol/lufa/LUFA-git/LUFA/Drivers/USB/Core/DeviceStandardReq.c **** 			return;
 317:/users/hunter/downloads/tmk_core/protocol/lufa/LUFA-git/LUFA/Drivers/USB/Core/DeviceStandardReq.c **** 	}
 318:/users/hunter/downloads/tmk_core/protocol/lufa/LUFA-git/LUFA/Drivers/USB/Core/DeviceStandardReq.c **** 
 319:/users/hunter/downloads/tmk_core/protocol/lufa/LUFA-git/LUFA/Drivers/USB/Core/DeviceStandardReq.c **** 	Endpoint_ClearSETUP();
 320:/users/hunter/downloads/tmk_core/protocol/lufa/LUFA-git/LUFA/Drivers/USB/Core/DeviceStandardReq.c **** 
 321:/users/hunter/downloads/tmk_core/protocol/lufa/LUFA-git/LUFA/Drivers/USB/Core/DeviceStandardReq.c **** 	Endpoint_Write_16_LE(CurrentStatus);
 322:/users/hunter/downloads/tmk_core/protocol/lufa/LUFA-git/LUFA/Drivers/USB/Core/DeviceStandardReq.c **** 	Endpoint_ClearIN();
 323:/users/hunter/downloads/tmk_core/protocol/lufa/LUFA-git/LUFA/Drivers/USB/Core/DeviceStandardReq.c **** 
 324:/users/hunter/downloads/tmk_core/protocol/lufa/LUFA-git/LUFA/Drivers/USB/Core/DeviceStandardReq.c **** 	Endpoint_ClearStatusStage();
 325:/users/hunter/downloads/tmk_core/protocol/lufa/LUFA-git/LUFA/Drivers/USB/Core/DeviceStandardReq.c **** }
 326:/users/hunter/downloads/tmk_core/protocol/lufa/LUFA-git/LUFA/Drivers/USB/Core/DeviceStandardReq.c **** 
 327:/users/hunter/downloads/tmk_core/protocol/lufa/LUFA-git/LUFA/Drivers/USB/Core/DeviceStandardReq.c **** static void USB_Device_ClearSetFeature(void)
 328:/users/hunter/downloads/tmk_core/protocol/lufa/LUFA-git/LUFA/Drivers/USB/Core/DeviceStandardReq.c **** {
 329:/users/hunter/downloads/tmk_core/protocol/lufa/LUFA-git/LUFA/Drivers/USB/Core/DeviceStandardReq.c **** 	switch (USB_ControlRequest.bmRequestType & CONTROL_REQTYPE_RECIPIENT)
 198               		.loc 1 329 0
 199 00b0 8823      		tst r24
 200 00b2 01F0      		breq .L14
 201 00b4 8230      		cpi r24,lo8(2)
 202 00b6 01F0      		breq .L15
 203               	.LVL16:
 204               	.L3:
 205               	.LBE201:
 206               	.LBE200:
 207               	.LBE175:
 208               	.LBB271:
 209               	.LBB272:
 431:/users/hunter/downloads/tmk_core/protocol/lufa/LUFA-git/LUFA/Drivers/USB/Core/AVR8/../AVR8/Endpoint_AVR8.h **** 			}
 210               		.loc 2 431 0
 211 00b8 8091 E800 		lds r24,232
 212               	.LBE272:
 213               	.LBE271:
 118:/users/hunter/downloads/tmk_core/protocol/lufa/LUFA-git/LUFA/Drivers/USB/Core/DeviceStandardReq.c **** 	{
 214               		.loc 1 118 0
 215 00bc 83FF      		sbrs r24,3
 216 00be 00C0      		rjmp .L1
 217               	.LBB273:
 218               	.LBB274:
 444:/users/hunter/downloads/tmk_core/protocol/lufa/LUFA-git/LUFA/Drivers/USB/Core/AVR8/../AVR8/Endpoint_AVR8.h **** 			}
 219               		.loc 2 444 0
 220 00c0 8091 E800 		lds r24,232
 221 00c4 877F      		andi r24,lo8(-9)
 222 00c6 8093 E800 		sts 232,r24
 223               	.LBE274:
 224               	.LBE273:
 225               	.LBB275:
 226               	.LBB276:
 491:/users/hunter/downloads/tmk_core/protocol/lufa/LUFA-git/LUFA/Drivers/USB/Core/AVR8/../AVR8/Endpoint_AVR8.h **** 			}
 227               		.loc 2 491 0
 228 00ca 8091 EB00 		lds r24,235
 229 00ce 8062      		ori r24,lo8(32)
 230 00d0 8093 EB00 		sts 235,r24
 231               	.L1:
 232               	/* epilogue start */
 233               	.LBE276:
 234               	.LBE275:
 123:/users/hunter/downloads/tmk_core/protocol/lufa/LUFA-git/LUFA/Drivers/USB/Core/DeviceStandardReq.c **** 
 235               		.loc 1 123 0
 236 00d4 AA96      		adiw r28,42
 237 00d6 0FB6      		in __tmp_reg__,__SREG__
 238 00d8 F894      		cli
 239 00da DEBF      		out __SP_H__,r29
 240 00dc 0FBE      		out __SREG__,__tmp_reg__
 241 00de CDBF      		out __SP_L__,r28
 242 00e0 DF91      		pop r29
 243 00e2 CF91      		pop r28
 244 00e4 1F91      		pop r17
 245 00e6 0895      		ret
 246               	.LVL17:
 247               	.L14:
 248               	.LBB277:
 249               	.LBB223:
 250               	.LBB221:
 330:/users/hunter/downloads/tmk_core/protocol/lufa/LUFA-git/LUFA/Drivers/USB/Core/DeviceStandardReq.c **** 	{
 331:/users/hunter/downloads/tmk_core/protocol/lufa/LUFA-git/LUFA/Drivers/USB/Core/DeviceStandardReq.c **** 		#if !defined(NO_DEVICE_REMOTE_WAKEUP)
 332:/users/hunter/downloads/tmk_core/protocol/lufa/LUFA-git/LUFA/Drivers/USB/Core/DeviceStandardReq.c **** 		case REQREC_DEVICE:
 333:/users/hunter/downloads/tmk_core/protocol/lufa/LUFA-git/LUFA/Drivers/USB/Core/DeviceStandardReq.c **** 			if ((uint8_t)USB_ControlRequest.wValue == FEATURE_SEL_DeviceRemoteWakeup)
 251               		.loc 1 333 0
 252 00e8 8091 0000 		lds r24,USB_ControlRequest+2
 253               	.LVL18:
 254 00ec 8130      		cpi r24,lo8(1)
 255 00ee 01F4      		brne .L3
 334:/users/hunter/downloads/tmk_core/protocol/lufa/LUFA-git/LUFA/Drivers/USB/Core/DeviceStandardReq.c **** 			  USB_Device_RemoteWakeupEnabled = (USB_ControlRequest.bRequest == REQ_SetFeature);
 256               		.loc 1 334 0
 257 00f0 9330      		cpi r25,lo8(3)
 258 00f2 01F0      		breq .L16
 259 00f4 80E0      		ldi r24,0
 260               	.L16:
 261 00f6 8093 0000 		sts USB_Device_RemoteWakeupEnabled,r24
 262               	.LVL19:
 263               	.L17:
 264               	.LBB202:
 265               	.LBB203:
 270:/users/hunter/downloads/tmk_core/protocol/lufa/LUFA-git/LUFA/Drivers/USB/Core/AVR8/../AVR8/Endpoint_AVR8.h **** 				#endif
 266               		.loc 2 270 0
 267 00fa 1092 E900 		sts 233,__zero_reg__
 268               	.LVL20:
 269               	.LBE203:
 270               	.LBE202:
 271               	.LBB204:
 272               	.LBB205:
 444:/users/hunter/downloads/tmk_core/protocol/lufa/LUFA-git/LUFA/Drivers/USB/Core/AVR8/../AVR8/Endpoint_AVR8.h **** 			}
 273               		.loc 2 444 0
 274 00fe 8091 E800 		lds r24,232
 275 0102 877F      		andi r24,lo8(-9)
 276               	.L65:
 277               	.LBE205:
 278               	.LBE204:
 279               	.LBE221:
 280               	.LBE223:
 281               	.LBB224:
 282               	.LBB198:
 283               	.LBB193:
 284               	.LBB192:
 456:/users/hunter/downloads/tmk_core/protocol/lufa/LUFA-git/LUFA/Drivers/USB/Core/AVR8/../AVR8/Endpoint_AVR8.h **** 				#else
 285               		.loc 2 456 0
 286 0104 8093 E800 		sts 232,r24
 287               	.LBE192:
 288               	.LBE193:
 215:/users/hunter/downloads/tmk_core/protocol/lufa/LUFA-git/LUFA/Drivers/USB/Core/DeviceStandardReq.c **** }
 289               		.loc 1 215 0
 290 0108 0E94 0000 		call Endpoint_ClearStatusStage
 291               	.LVL21:
 292 010c 00C0      		rjmp .L3
 293               	.LVL22:
 294               	.L15:
 295               	.LBE198:
 296               	.LBE224:
 297               	.LBB225:
 298               	.LBB222:
 335:/users/hunter/downloads/tmk_core/protocol/lufa/LUFA-git/LUFA/Drivers/USB/Core/DeviceStandardReq.c **** 			else
 336:/users/hunter/downloads/tmk_core/protocol/lufa/LUFA-git/LUFA/Drivers/USB/Core/DeviceStandardReq.c **** 			  return;
 337:/users/hunter/downloads/tmk_core/protocol/lufa/LUFA-git/LUFA/Drivers/USB/Core/DeviceStandardReq.c **** 
 338:/users/hunter/downloads/tmk_core/protocol/lufa/LUFA-git/LUFA/Drivers/USB/Core/DeviceStandardReq.c **** 			break;
 339:/users/hunter/downloads/tmk_core/protocol/lufa/LUFA-git/LUFA/Drivers/USB/Core/DeviceStandardReq.c **** 		#endif
 340:/users/hunter/downloads/tmk_core/protocol/lufa/LUFA-git/LUFA/Drivers/USB/Core/DeviceStandardReq.c **** 		#if !defined(CONTROL_ONLY_DEVICE)
 341:/users/hunter/downloads/tmk_core/protocol/lufa/LUFA-git/LUFA/Drivers/USB/Core/DeviceStandardReq.c **** 		case REQREC_ENDPOINT:
 342:/users/hunter/downloads/tmk_core/protocol/lufa/LUFA-git/LUFA/Drivers/USB/Core/DeviceStandardReq.c **** 			if ((uint8_t)USB_ControlRequest.wValue == FEATURE_SEL_EndpointHalt)
 299               		.loc 1 342 0
 300 010e 8091 0000 		lds r24,USB_ControlRequest+2
 301               	.LVL23:
 302 0112 8111      		cpse r24,__zero_reg__
 303 0114 00C0      		rjmp .L17
 304               	.LBB206:
 343:/users/hunter/downloads/tmk_core/protocol/lufa/LUFA-git/LUFA/Drivers/USB/Core/DeviceStandardReq.c **** 			{
 344:/users/hunter/downloads/tmk_core/protocol/lufa/LUFA-git/LUFA/Drivers/USB/Core/DeviceStandardReq.c **** 				uint8_t EndpointIndex = ((uint8_t)USB_ControlRequest.wIndex & ENDPOINT_EPNUM_MASK);
 305               		.loc 1 344 0
 306 0116 8091 0000 		lds r24,USB_ControlRequest+4
 307 011a 8F70      		andi r24,lo8(15)
 308               	.LVL24:
 345:/users/hunter/downloads/tmk_core/protocol/lufa/LUFA-git/LUFA/Drivers/USB/Core/DeviceStandardReq.c **** 
 346:/users/hunter/downloads/tmk_core/protocol/lufa/LUFA-git/LUFA/Drivers/USB/Core/DeviceStandardReq.c **** 				if (EndpointIndex == ENDPOINT_CONTROLEP)
 309               		.loc 1 346 0
 310 011c 01F0      		breq .L3
 311               	.LVL25:
 312               	.LBB207:
 313               	.LBB208:
 270:/users/hunter/downloads/tmk_core/protocol/lufa/LUFA-git/LUFA/Drivers/USB/Core/AVR8/../AVR8/Endpoint_AVR8.h **** 				#endif
 314               		.loc 2 270 0
 315 011e 8093 E900 		sts 233,r24
 316               	.LVL26:
 317               	.LBE208:
 318               	.LBE207:
 319               	.LBB209:
 320               	.LBB210:
 313:/users/hunter/downloads/tmk_core/protocol/lufa/LUFA-git/LUFA/Drivers/USB/Core/AVR8/../AVR8/Endpoint_AVR8.h **** 			}
 321               		.loc 2 313 0
 322 0122 2091 EB00 		lds r18,235
 323               	.LBE210:
 324               	.LBE209:
 347:/users/hunter/downloads/tmk_core/protocol/lufa/LUFA-git/LUFA/Drivers/USB/Core/DeviceStandardReq.c **** 				  return;
 348:/users/hunter/downloads/tmk_core/protocol/lufa/LUFA-git/LUFA/Drivers/USB/Core/DeviceStandardReq.c **** 
 349:/users/hunter/downloads/tmk_core/protocol/lufa/LUFA-git/LUFA/Drivers/USB/Core/DeviceStandardReq.c **** 				Endpoint_SelectEndpoint(EndpointIndex);
 350:/users/hunter/downloads/tmk_core/protocol/lufa/LUFA-git/LUFA/Drivers/USB/Core/DeviceStandardReq.c **** 
 351:/users/hunter/downloads/tmk_core/protocol/lufa/LUFA-git/LUFA/Drivers/USB/Core/DeviceStandardReq.c **** 				if (Endpoint_IsEnabled())
 325               		.loc 1 351 0
 326 0126 20FF      		sbrs r18,0
 327 0128 00C0      		rjmp .L17
 352:/users/hunter/downloads/tmk_core/protocol/lufa/LUFA-git/LUFA/Drivers/USB/Core/DeviceStandardReq.c **** 				{
 353:/users/hunter/downloads/tmk_core/protocol/lufa/LUFA-git/LUFA/Drivers/USB/Core/DeviceStandardReq.c **** 					if (USB_ControlRequest.bRequest == REQ_SetFeature)
 328               		.loc 1 353 0
 329 012a 9330      		cpi r25,lo8(3)
 330 012c 01F4      		brne .L20
 331               	.LBB211:
 332               	.LBB212:
 491:/users/hunter/downloads/tmk_core/protocol/lufa/LUFA-git/LUFA/Drivers/USB/Core/AVR8/../AVR8/Endpoint_AVR8.h **** 			}
 333               		.loc 2 491 0
 334 012e 8091 EB00 		lds r24,235
 335               	.LVL27:
 336 0132 8062      		ori r24,lo8(32)
 337               	.LVL28:
 338               	.L63:
 339               	.LBE212:
 340               	.LBE211:
 341               	.LBB213:
 342               	.LBB214:
 520:/users/hunter/downloads/tmk_core/protocol/lufa/LUFA-git/LUFA/Drivers/USB/Core/AVR8/../AVR8/Endpoint_AVR8.h **** 			}
 343               		.loc 2 520 0
 344 0134 8093 EB00 		sts 235,r24
 345 0138 00C0      		rjmp .L17
 346               	.LVL29:
 347               	.L20:
 348               	.LBE214:
 349               	.LBE213:
 350               	.LBB216:
 351               	.LBB217:
 501:/users/hunter/downloads/tmk_core/protocol/lufa/LUFA-git/LUFA/Drivers/USB/Core/AVR8/../AVR8/Endpoint_AVR8.h **** 			}
 352               		.loc 2 501 0
 353 013a 9091 EB00 		lds r25,235
 354 013e 9061      		ori r25,lo8(16)
 355 0140 9093 EB00 		sts 235,r25
 356               	.LVL30:
 357               	.LBE217:
 358               	.LBE216:
 359               	.LBB218:
 360               	.LBB219:
 282:/users/hunter/downloads/tmk_core/protocol/lufa/LUFA-git/LUFA/Drivers/USB/Core/AVR8/../AVR8/Endpoint_AVR8.h **** 				UERST = 0;
 361               		.loc 2 282 0
 362 0144 21E0      		ldi r18,lo8(1)
 363 0146 30E0      		ldi r19,0
 364 0148 00C0      		rjmp 2f
 365               		1:
 366 014a 220F      		lsl r18
 367               		2:
 368 014c 8A95      		dec r24
 369 014e 02F4      		brpl 1b
 370 0150 2093 EA00 		sts 234,r18
 283:/users/hunter/downloads/tmk_core/protocol/lufa/LUFA-git/LUFA/Drivers/USB/Core/AVR8/../AVR8/Endpoint_AVR8.h **** 			}
 371               		.loc 2 283 0
 372 0154 1092 EA00 		sts 234,__zero_reg__
 373               	.LVL31:
 374               	.LBE219:
 375               	.LBE218:
 376               	.LBB220:
 377               	.LBB215:
 520:/users/hunter/downloads/tmk_core/protocol/lufa/LUFA-git/LUFA/Drivers/USB/Core/AVR8/../AVR8/Endpoint_AVR8.h **** 			}
 378               		.loc 2 520 0
 379 0158 8091 EB00 		lds r24,235
 380               	.LVL32:
 381 015c 8860      		ori r24,lo8(8)
 382 015e 00C0      		rjmp .L63
 383               	.LVL33:
 384               	.L7:
 385               	.LBE215:
 386               	.LBE220:
 387               	.LBE206:
 388               	.LBE222:
 389               	.LBE225:
  90:/users/hunter/downloads/tmk_core/protocol/lufa/LUFA-git/LUFA/Drivers/USB/Core/DeviceStandardReq.c **** 				  USB_Device_SetAddress();
 390               		.loc 1 90 0
 391 0160 8111      		cpse r24,__zero_reg__
 392 0162 00C0      		rjmp .L3
 393               	.LBB226:
 394               	.LBB227:
 127:/users/hunter/downloads/tmk_core/protocol/lufa/LUFA-git/LUFA/Drivers/USB/Core/DeviceStandardReq.c **** 
 395               		.loc 1 127 0
 396 0164 1091 0000 		lds r17,USB_ControlRequest+2
 397 0168 1F77      		andi r17,lo8(127)
 398               	.LVL34:
 399               	.LBB228:
 400               	.LBB229:
 401               		.file 3 "/users/hunter/downloads/tmk_core/protocol/lufa/LUFA-git/LUFA/Drivers/USB/Core/AVR8/../AVR
   1:/users/hunter/downloads/tmk_core/protocol/lufa/LUFA-git/LUFA/Drivers/USB/Core/AVR8/../AVR8/Device_AVR8.h **** /*
   2:/users/hunter/downloads/tmk_core/protocol/lufa/LUFA-git/LUFA/Drivers/USB/Core/AVR8/../AVR8/Device_AVR8.h ****              LUFA Library
   3:/users/hunter/downloads/tmk_core/protocol/lufa/LUFA-git/LUFA/Drivers/USB/Core/AVR8/../AVR8/Device_AVR8.h ****      Copyright (C) Dean Camera, 2014.
   4:/users/hunter/downloads/tmk_core/protocol/lufa/LUFA-git/LUFA/Drivers/USB/Core/AVR8/../AVR8/Device_AVR8.h **** 
   5:/users/hunter/downloads/tmk_core/protocol/lufa/LUFA-git/LUFA/Drivers/USB/Core/AVR8/../AVR8/Device_AVR8.h ****   dean [at] fourwalledcubicle [dot] com
   6:/users/hunter/downloads/tmk_core/protocol/lufa/LUFA-git/LUFA/Drivers/USB/Core/AVR8/../AVR8/Device_AVR8.h ****            www.lufa-lib.org
   7:/users/hunter/downloads/tmk_core/protocol/lufa/LUFA-git/LUFA/Drivers/USB/Core/AVR8/../AVR8/Device_AVR8.h **** */
   8:/users/hunter/downloads/tmk_core/protocol/lufa/LUFA-git/LUFA/Drivers/USB/Core/AVR8/../AVR8/Device_AVR8.h **** 
   9:/users/hunter/downloads/tmk_core/protocol/lufa/LUFA-git/LUFA/Drivers/USB/Core/AVR8/../AVR8/Device_AVR8.h **** /*
  10:/users/hunter/downloads/tmk_core/protocol/lufa/LUFA-git/LUFA/Drivers/USB/Core/AVR8/../AVR8/Device_AVR8.h ****   Copyright 2014  Dean Camera (dean [at] fourwalledcubicle [dot] com)
  11:/users/hunter/downloads/tmk_core/protocol/lufa/LUFA-git/LUFA/Drivers/USB/Core/AVR8/../AVR8/Device_AVR8.h **** 
  12:/users/hunter/downloads/tmk_core/protocol/lufa/LUFA-git/LUFA/Drivers/USB/Core/AVR8/../AVR8/Device_AVR8.h ****   Permission to use, copy, modify, distribute, and sell this
  13:/users/hunter/downloads/tmk_core/protocol/lufa/LUFA-git/LUFA/Drivers/USB/Core/AVR8/../AVR8/Device_AVR8.h ****   software and its documentation for any purpose is hereby granted
  14:/users/hunter/downloads/tmk_core/protocol/lufa/LUFA-git/LUFA/Drivers/USB/Core/AVR8/../AVR8/Device_AVR8.h ****   without fee, provided that the above copyright notice appear in
  15:/users/hunter/downloads/tmk_core/protocol/lufa/LUFA-git/LUFA/Drivers/USB/Core/AVR8/../AVR8/Device_AVR8.h ****   all copies and that both that the copyright notice and this
  16:/users/hunter/downloads/tmk_core/protocol/lufa/LUFA-git/LUFA/Drivers/USB/Core/AVR8/../AVR8/Device_AVR8.h ****   permission notice and warranty disclaimer appear in supporting
  17:/users/hunter/downloads/tmk_core/protocol/lufa/LUFA-git/LUFA/Drivers/USB/Core/AVR8/../AVR8/Device_AVR8.h ****   documentation, and that the name of the author not be used in
  18:/users/hunter/downloads/tmk_core/protocol/lufa/LUFA-git/LUFA/Drivers/USB/Core/AVR8/../AVR8/Device_AVR8.h ****   advertising or publicity pertaining to distribution of the
  19:/users/hunter/downloads/tmk_core/protocol/lufa/LUFA-git/LUFA/Drivers/USB/Core/AVR8/../AVR8/Device_AVR8.h ****   software without specific, written prior permission.
  20:/users/hunter/downloads/tmk_core/protocol/lufa/LUFA-git/LUFA/Drivers/USB/Core/AVR8/../AVR8/Device_AVR8.h **** 
  21:/users/hunter/downloads/tmk_core/protocol/lufa/LUFA-git/LUFA/Drivers/USB/Core/AVR8/../AVR8/Device_AVR8.h ****   The author disclaims all warranties with regard to this
  22:/users/hunter/downloads/tmk_core/protocol/lufa/LUFA-git/LUFA/Drivers/USB/Core/AVR8/../AVR8/Device_AVR8.h ****   software, including all implied warranties of merchantability
  23:/users/hunter/downloads/tmk_core/protocol/lufa/LUFA-git/LUFA/Drivers/USB/Core/AVR8/../AVR8/Device_AVR8.h ****   and fitness.  In no event shall the author be liable for any
  24:/users/hunter/downloads/tmk_core/protocol/lufa/LUFA-git/LUFA/Drivers/USB/Core/AVR8/../AVR8/Device_AVR8.h ****   special, indirect or consequential damages or any damages
  25:/users/hunter/downloads/tmk_core/protocol/lufa/LUFA-git/LUFA/Drivers/USB/Core/AVR8/../AVR8/Device_AVR8.h ****   whatsoever resulting from loss of use, data or profits, whether
  26:/users/hunter/downloads/tmk_core/protocol/lufa/LUFA-git/LUFA/Drivers/USB/Core/AVR8/../AVR8/Device_AVR8.h ****   in an action of contract, negligence or other tortious action,
  27:/users/hunter/downloads/tmk_core/protocol/lufa/LUFA-git/LUFA/Drivers/USB/Core/AVR8/../AVR8/Device_AVR8.h ****   arising out of or in connection with the use or performance of
  28:/users/hunter/downloads/tmk_core/protocol/lufa/LUFA-git/LUFA/Drivers/USB/Core/AVR8/../AVR8/Device_AVR8.h ****   this software.
  29:/users/hunter/downloads/tmk_core/protocol/lufa/LUFA-git/LUFA/Drivers/USB/Core/AVR8/../AVR8/Device_AVR8.h **** */
  30:/users/hunter/downloads/tmk_core/protocol/lufa/LUFA-git/LUFA/Drivers/USB/Core/AVR8/../AVR8/Device_AVR8.h **** 
  31:/users/hunter/downloads/tmk_core/protocol/lufa/LUFA-git/LUFA/Drivers/USB/Core/AVR8/../AVR8/Device_AVR8.h **** /** \file
  32:/users/hunter/downloads/tmk_core/protocol/lufa/LUFA-git/LUFA/Drivers/USB/Core/AVR8/../AVR8/Device_AVR8.h ****  *  \brief USB Device definitions for the AVR8 microcontrollers.
  33:/users/hunter/downloads/tmk_core/protocol/lufa/LUFA-git/LUFA/Drivers/USB/Core/AVR8/../AVR8/Device_AVR8.h ****  *  \copydetails Group_Device_AVR8
  34:/users/hunter/downloads/tmk_core/protocol/lufa/LUFA-git/LUFA/Drivers/USB/Core/AVR8/../AVR8/Device_AVR8.h ****  *
  35:/users/hunter/downloads/tmk_core/protocol/lufa/LUFA-git/LUFA/Drivers/USB/Core/AVR8/../AVR8/Device_AVR8.h ****  *  \note This file should not be included directly. It is automatically included as needed by the 
  36:/users/hunter/downloads/tmk_core/protocol/lufa/LUFA-git/LUFA/Drivers/USB/Core/AVR8/../AVR8/Device_AVR8.h ****  *        dispatch header located in LUFA/Drivers/USB/USB.h.
  37:/users/hunter/downloads/tmk_core/protocol/lufa/LUFA-git/LUFA/Drivers/USB/Core/AVR8/../AVR8/Device_AVR8.h ****  */
  38:/users/hunter/downloads/tmk_core/protocol/lufa/LUFA-git/LUFA/Drivers/USB/Core/AVR8/../AVR8/Device_AVR8.h **** 
  39:/users/hunter/downloads/tmk_core/protocol/lufa/LUFA-git/LUFA/Drivers/USB/Core/AVR8/../AVR8/Device_AVR8.h **** /** \ingroup Group_Device
  40:/users/hunter/downloads/tmk_core/protocol/lufa/LUFA-git/LUFA/Drivers/USB/Core/AVR8/../AVR8/Device_AVR8.h ****  *  \defgroup Group_Device_AVR8 Device Management (AVR8)
  41:/users/hunter/downloads/tmk_core/protocol/lufa/LUFA-git/LUFA/Drivers/USB/Core/AVR8/../AVR8/Device_AVR8.h ****  *  \brief USB Device definitions for the AVR8 microcontrollers.
  42:/users/hunter/downloads/tmk_core/protocol/lufa/LUFA-git/LUFA/Drivers/USB/Core/AVR8/../AVR8/Device_AVR8.h ****  *
  43:/users/hunter/downloads/tmk_core/protocol/lufa/LUFA-git/LUFA/Drivers/USB/Core/AVR8/../AVR8/Device_AVR8.h ****  *  Architecture specific USB Device definitions for the Atmel 8-bit AVR microcontrollers.
  44:/users/hunter/downloads/tmk_core/protocol/lufa/LUFA-git/LUFA/Drivers/USB/Core/AVR8/../AVR8/Device_AVR8.h ****  *
  45:/users/hunter/downloads/tmk_core/protocol/lufa/LUFA-git/LUFA/Drivers/USB/Core/AVR8/../AVR8/Device_AVR8.h ****  *  @{
  46:/users/hunter/downloads/tmk_core/protocol/lufa/LUFA-git/LUFA/Drivers/USB/Core/AVR8/../AVR8/Device_AVR8.h ****  */
  47:/users/hunter/downloads/tmk_core/protocol/lufa/LUFA-git/LUFA/Drivers/USB/Core/AVR8/../AVR8/Device_AVR8.h **** 
  48:/users/hunter/downloads/tmk_core/protocol/lufa/LUFA-git/LUFA/Drivers/USB/Core/AVR8/../AVR8/Device_AVR8.h **** #ifndef __USBDEVICE_AVR8_H__
  49:/users/hunter/downloads/tmk_core/protocol/lufa/LUFA-git/LUFA/Drivers/USB/Core/AVR8/../AVR8/Device_AVR8.h **** #define __USBDEVICE_AVR8_H__
  50:/users/hunter/downloads/tmk_core/protocol/lufa/LUFA-git/LUFA/Drivers/USB/Core/AVR8/../AVR8/Device_AVR8.h **** 
  51:/users/hunter/downloads/tmk_core/protocol/lufa/LUFA-git/LUFA/Drivers/USB/Core/AVR8/../AVR8/Device_AVR8.h **** 	/* Includes: */
  52:/users/hunter/downloads/tmk_core/protocol/lufa/LUFA-git/LUFA/Drivers/USB/Core/AVR8/../AVR8/Device_AVR8.h **** 		#include "../../../../Common/Common.h"
  53:/users/hunter/downloads/tmk_core/protocol/lufa/LUFA-git/LUFA/Drivers/USB/Core/AVR8/../AVR8/Device_AVR8.h **** 		#include "../USBController.h"
  54:/users/hunter/downloads/tmk_core/protocol/lufa/LUFA-git/LUFA/Drivers/USB/Core/AVR8/../AVR8/Device_AVR8.h **** 		#include "../StdDescriptors.h"
  55:/users/hunter/downloads/tmk_core/protocol/lufa/LUFA-git/LUFA/Drivers/USB/Core/AVR8/../AVR8/Device_AVR8.h **** 		#include "../USBInterrupt.h"
  56:/users/hunter/downloads/tmk_core/protocol/lufa/LUFA-git/LUFA/Drivers/USB/Core/AVR8/../AVR8/Device_AVR8.h **** 		#include "../Endpoint.h"
  57:/users/hunter/downloads/tmk_core/protocol/lufa/LUFA-git/LUFA/Drivers/USB/Core/AVR8/../AVR8/Device_AVR8.h **** 
  58:/users/hunter/downloads/tmk_core/protocol/lufa/LUFA-git/LUFA/Drivers/USB/Core/AVR8/../AVR8/Device_AVR8.h **** 	/* Enable C linkage for C++ Compilers: */
  59:/users/hunter/downloads/tmk_core/protocol/lufa/LUFA-git/LUFA/Drivers/USB/Core/AVR8/../AVR8/Device_AVR8.h **** 		#if defined(__cplusplus)
  60:/users/hunter/downloads/tmk_core/protocol/lufa/LUFA-git/LUFA/Drivers/USB/Core/AVR8/../AVR8/Device_AVR8.h **** 			extern "C" {
  61:/users/hunter/downloads/tmk_core/protocol/lufa/LUFA-git/LUFA/Drivers/USB/Core/AVR8/../AVR8/Device_AVR8.h **** 		#endif
  62:/users/hunter/downloads/tmk_core/protocol/lufa/LUFA-git/LUFA/Drivers/USB/Core/AVR8/../AVR8/Device_AVR8.h **** 
  63:/users/hunter/downloads/tmk_core/protocol/lufa/LUFA-git/LUFA/Drivers/USB/Core/AVR8/../AVR8/Device_AVR8.h **** 	/* Preprocessor Checks: */
  64:/users/hunter/downloads/tmk_core/protocol/lufa/LUFA-git/LUFA/Drivers/USB/Core/AVR8/../AVR8/Device_AVR8.h **** 		#if !defined(__INCLUDE_FROM_USB_DRIVER)
  65:/users/hunter/downloads/tmk_core/protocol/lufa/LUFA-git/LUFA/Drivers/USB/Core/AVR8/../AVR8/Device_AVR8.h **** 			#error Do not include this file directly. Include LUFA/Drivers/USB/USB.h instead.
  66:/users/hunter/downloads/tmk_core/protocol/lufa/LUFA-git/LUFA/Drivers/USB/Core/AVR8/../AVR8/Device_AVR8.h **** 		#endif
  67:/users/hunter/downloads/tmk_core/protocol/lufa/LUFA-git/LUFA/Drivers/USB/Core/AVR8/../AVR8/Device_AVR8.h **** 
  68:/users/hunter/downloads/tmk_core/protocol/lufa/LUFA-git/LUFA/Drivers/USB/Core/AVR8/../AVR8/Device_AVR8.h **** 		#if (defined(USE_RAM_DESCRIPTORS) && defined(USE_EEPROM_DESCRIPTORS))
  69:/users/hunter/downloads/tmk_core/protocol/lufa/LUFA-git/LUFA/Drivers/USB/Core/AVR8/../AVR8/Device_AVR8.h **** 			#error USE_RAM_DESCRIPTORS and USE_EEPROM_DESCRIPTORS are mutually exclusive.
  70:/users/hunter/downloads/tmk_core/protocol/lufa/LUFA-git/LUFA/Drivers/USB/Core/AVR8/../AVR8/Device_AVR8.h **** 		#endif
  71:/users/hunter/downloads/tmk_core/protocol/lufa/LUFA-git/LUFA/Drivers/USB/Core/AVR8/../AVR8/Device_AVR8.h **** 
  72:/users/hunter/downloads/tmk_core/protocol/lufa/LUFA-git/LUFA/Drivers/USB/Core/AVR8/../AVR8/Device_AVR8.h **** 		#if (defined(USE_FLASH_DESCRIPTORS) && defined(USE_EEPROM_DESCRIPTORS))
  73:/users/hunter/downloads/tmk_core/protocol/lufa/LUFA-git/LUFA/Drivers/USB/Core/AVR8/../AVR8/Device_AVR8.h **** 			#error USE_FLASH_DESCRIPTORS and USE_EEPROM_DESCRIPTORS are mutually exclusive.
  74:/users/hunter/downloads/tmk_core/protocol/lufa/LUFA-git/LUFA/Drivers/USB/Core/AVR8/../AVR8/Device_AVR8.h **** 		#endif
  75:/users/hunter/downloads/tmk_core/protocol/lufa/LUFA-git/LUFA/Drivers/USB/Core/AVR8/../AVR8/Device_AVR8.h **** 
  76:/users/hunter/downloads/tmk_core/protocol/lufa/LUFA-git/LUFA/Drivers/USB/Core/AVR8/../AVR8/Device_AVR8.h **** 		#if (defined(USE_FLASH_DESCRIPTORS) && defined(USE_RAM_DESCRIPTORS))
  77:/users/hunter/downloads/tmk_core/protocol/lufa/LUFA-git/LUFA/Drivers/USB/Core/AVR8/../AVR8/Device_AVR8.h **** 			#error USE_FLASH_DESCRIPTORS and USE_RAM_DESCRIPTORS are mutually exclusive.
  78:/users/hunter/downloads/tmk_core/protocol/lufa/LUFA-git/LUFA/Drivers/USB/Core/AVR8/../AVR8/Device_AVR8.h **** 		#endif
  79:/users/hunter/downloads/tmk_core/protocol/lufa/LUFA-git/LUFA/Drivers/USB/Core/AVR8/../AVR8/Device_AVR8.h **** 
  80:/users/hunter/downloads/tmk_core/protocol/lufa/LUFA-git/LUFA/Drivers/USB/Core/AVR8/../AVR8/Device_AVR8.h **** 	/* Public Interface - May be used in end-application: */
  81:/users/hunter/downloads/tmk_core/protocol/lufa/LUFA-git/LUFA/Drivers/USB/Core/AVR8/../AVR8/Device_AVR8.h **** 		/* Macros: */
  82:/users/hunter/downloads/tmk_core/protocol/lufa/LUFA-git/LUFA/Drivers/USB/Core/AVR8/../AVR8/Device_AVR8.h **** 			/** \name USB Device Mode Option Masks */
  83:/users/hunter/downloads/tmk_core/protocol/lufa/LUFA-git/LUFA/Drivers/USB/Core/AVR8/../AVR8/Device_AVR8.h **** 			//@{
  84:/users/hunter/downloads/tmk_core/protocol/lufa/LUFA-git/LUFA/Drivers/USB/Core/AVR8/../AVR8/Device_AVR8.h **** 			#if defined(USB_SERIES_4_AVR) || defined(USB_SERIES_6_AVR) || defined(USB_SERIES_7_AVR) || defin
  85:/users/hunter/downloads/tmk_core/protocol/lufa/LUFA-git/LUFA/Drivers/USB/Core/AVR8/../AVR8/Device_AVR8.h **** 				/** Mask for the Options parameter of the \ref USB_Init() function. This indicates that the
  86:/users/hunter/downloads/tmk_core/protocol/lufa/LUFA-git/LUFA/Drivers/USB/Core/AVR8/../AVR8/Device_AVR8.h **** 				 *  USB interface should be initialized in low speed (1.5Mb/s) mode.
  87:/users/hunter/downloads/tmk_core/protocol/lufa/LUFA-git/LUFA/Drivers/USB/Core/AVR8/../AVR8/Device_AVR8.h **** 				 *
  88:/users/hunter/downloads/tmk_core/protocol/lufa/LUFA-git/LUFA/Drivers/USB/Core/AVR8/../AVR8/Device_AVR8.h **** 				 *  \note Low Speed mode is not available on all USB AVR models.
  89:/users/hunter/downloads/tmk_core/protocol/lufa/LUFA-git/LUFA/Drivers/USB/Core/AVR8/../AVR8/Device_AVR8.h **** 				 *        \n
  90:/users/hunter/downloads/tmk_core/protocol/lufa/LUFA-git/LUFA/Drivers/USB/Core/AVR8/../AVR8/Device_AVR8.h **** 				 *
  91:/users/hunter/downloads/tmk_core/protocol/lufa/LUFA-git/LUFA/Drivers/USB/Core/AVR8/../AVR8/Device_AVR8.h **** 				 *  \note Restrictions apply on the number, size and type of endpoints which can be used
  92:/users/hunter/downloads/tmk_core/protocol/lufa/LUFA-git/LUFA/Drivers/USB/Core/AVR8/../AVR8/Device_AVR8.h **** 				 *        when running in low speed mode - please refer to the USB 2.0 specification.
  93:/users/hunter/downloads/tmk_core/protocol/lufa/LUFA-git/LUFA/Drivers/USB/Core/AVR8/../AVR8/Device_AVR8.h **** 				 */
  94:/users/hunter/downloads/tmk_core/protocol/lufa/LUFA-git/LUFA/Drivers/USB/Core/AVR8/../AVR8/Device_AVR8.h **** 				#define USB_DEVICE_OPT_LOWSPEED            (1 << 0)
  95:/users/hunter/downloads/tmk_core/protocol/lufa/LUFA-git/LUFA/Drivers/USB/Core/AVR8/../AVR8/Device_AVR8.h **** 			#endif
  96:/users/hunter/downloads/tmk_core/protocol/lufa/LUFA-git/LUFA/Drivers/USB/Core/AVR8/../AVR8/Device_AVR8.h **** 
  97:/users/hunter/downloads/tmk_core/protocol/lufa/LUFA-git/LUFA/Drivers/USB/Core/AVR8/../AVR8/Device_AVR8.h **** 			/** Mask for the Options parameter of the \ref USB_Init() function. This indicates that the
  98:/users/hunter/downloads/tmk_core/protocol/lufa/LUFA-git/LUFA/Drivers/USB/Core/AVR8/../AVR8/Device_AVR8.h **** 			 *  USB interface should be initialized in full speed (12Mb/s) mode.
  99:/users/hunter/downloads/tmk_core/protocol/lufa/LUFA-git/LUFA/Drivers/USB/Core/AVR8/../AVR8/Device_AVR8.h **** 			 */
 100:/users/hunter/downloads/tmk_core/protocol/lufa/LUFA-git/LUFA/Drivers/USB/Core/AVR8/../AVR8/Device_AVR8.h **** 			#define USB_DEVICE_OPT_FULLSPEED               (0 << 0)
 101:/users/hunter/downloads/tmk_core/protocol/lufa/LUFA-git/LUFA/Drivers/USB/Core/AVR8/../AVR8/Device_AVR8.h **** 			//@}
 102:/users/hunter/downloads/tmk_core/protocol/lufa/LUFA-git/LUFA/Drivers/USB/Core/AVR8/../AVR8/Device_AVR8.h **** 
 103:/users/hunter/downloads/tmk_core/protocol/lufa/LUFA-git/LUFA/Drivers/USB/Core/AVR8/../AVR8/Device_AVR8.h **** 			#if (!defined(NO_INTERNAL_SERIAL) && \
 104:/users/hunter/downloads/tmk_core/protocol/lufa/LUFA-git/LUFA/Drivers/USB/Core/AVR8/../AVR8/Device_AVR8.h **** 			     (defined(USB_SERIES_7_AVR) || defined(USB_SERIES_6_AVR) || \
 105:/users/hunter/downloads/tmk_core/protocol/lufa/LUFA-git/LUFA/Drivers/USB/Core/AVR8/../AVR8/Device_AVR8.h **** 			      defined(USB_SERIES_4_AVR) || defined(USB_SERIES_2_AVR) || \
 106:/users/hunter/downloads/tmk_core/protocol/lufa/LUFA-git/LUFA/Drivers/USB/Core/AVR8/../AVR8/Device_AVR8.h **** 				  defined(__DOXYGEN__)))
 107:/users/hunter/downloads/tmk_core/protocol/lufa/LUFA-git/LUFA/Drivers/USB/Core/AVR8/../AVR8/Device_AVR8.h **** 				/** String descriptor index for the device's unique serial number string descriptor within the 
 108:/users/hunter/downloads/tmk_core/protocol/lufa/LUFA-git/LUFA/Drivers/USB/Core/AVR8/../AVR8/Device_AVR8.h **** 				 *  This unique serial number is used by the host to associate resources to the device (such as
 109:/users/hunter/downloads/tmk_core/protocol/lufa/LUFA-git/LUFA/Drivers/USB/Core/AVR8/../AVR8/Device_AVR8.h **** 				 *  number allocations) to a device regardless of the port it is plugged in to on the host. Som
 110:/users/hunter/downloads/tmk_core/protocol/lufa/LUFA-git/LUFA/Drivers/USB/Core/AVR8/../AVR8/Device_AVR8.h **** 				 *  a unique serial number internally, and setting the device descriptors serial number string 
 111:/users/hunter/downloads/tmk_core/protocol/lufa/LUFA-git/LUFA/Drivers/USB/Core/AVR8/../AVR8/Device_AVR8.h **** 				 *  will cause it to use the internal serial number.
 112:/users/hunter/downloads/tmk_core/protocol/lufa/LUFA-git/LUFA/Drivers/USB/Core/AVR8/../AVR8/Device_AVR8.h **** 				 *
 113:/users/hunter/downloads/tmk_core/protocol/lufa/LUFA-git/LUFA/Drivers/USB/Core/AVR8/../AVR8/Device_AVR8.h **** 				 *  On unsupported devices, this will evaluate to \ref NO_DESCRIPTOR and so will force the host
 114:/users/hunter/downloads/tmk_core/protocol/lufa/LUFA-git/LUFA/Drivers/USB/Core/AVR8/../AVR8/Device_AVR8.h **** 				 *  number for the device.
 115:/users/hunter/downloads/tmk_core/protocol/lufa/LUFA-git/LUFA/Drivers/USB/Core/AVR8/../AVR8/Device_AVR8.h **** 				 */
 116:/users/hunter/downloads/tmk_core/protocol/lufa/LUFA-git/LUFA/Drivers/USB/Core/AVR8/../AVR8/Device_AVR8.h **** 				#define USE_INTERNAL_SERIAL            0xDC
 117:/users/hunter/downloads/tmk_core/protocol/lufa/LUFA-git/LUFA/Drivers/USB/Core/AVR8/../AVR8/Device_AVR8.h **** 
 118:/users/hunter/downloads/tmk_core/protocol/lufa/LUFA-git/LUFA/Drivers/USB/Core/AVR8/../AVR8/Device_AVR8.h **** 				/** Length of the device's unique internal serial number, in bits, if present on the selected m
 119:/users/hunter/downloads/tmk_core/protocol/lufa/LUFA-git/LUFA/Drivers/USB/Core/AVR8/../AVR8/Device_AVR8.h **** 				 *  model.
 120:/users/hunter/downloads/tmk_core/protocol/lufa/LUFA-git/LUFA/Drivers/USB/Core/AVR8/../AVR8/Device_AVR8.h **** 				 */
 121:/users/hunter/downloads/tmk_core/protocol/lufa/LUFA-git/LUFA/Drivers/USB/Core/AVR8/../AVR8/Device_AVR8.h **** 				#define INTERNAL_SERIAL_LENGTH_BITS    80
 122:/users/hunter/downloads/tmk_core/protocol/lufa/LUFA-git/LUFA/Drivers/USB/Core/AVR8/../AVR8/Device_AVR8.h **** 
 123:/users/hunter/downloads/tmk_core/protocol/lufa/LUFA-git/LUFA/Drivers/USB/Core/AVR8/../AVR8/Device_AVR8.h **** 				/** Start address of the internal serial number, in the appropriate address space, if present o
 124:/users/hunter/downloads/tmk_core/protocol/lufa/LUFA-git/LUFA/Drivers/USB/Core/AVR8/../AVR8/Device_AVR8.h **** 				 *  model.
 125:/users/hunter/downloads/tmk_core/protocol/lufa/LUFA-git/LUFA/Drivers/USB/Core/AVR8/../AVR8/Device_AVR8.h **** 				 */
 126:/users/hunter/downloads/tmk_core/protocol/lufa/LUFA-git/LUFA/Drivers/USB/Core/AVR8/../AVR8/Device_AVR8.h **** 				#define INTERNAL_SERIAL_START_ADDRESS  0x0E
 127:/users/hunter/downloads/tmk_core/protocol/lufa/LUFA-git/LUFA/Drivers/USB/Core/AVR8/../AVR8/Device_AVR8.h **** 			#else
 128:/users/hunter/downloads/tmk_core/protocol/lufa/LUFA-git/LUFA/Drivers/USB/Core/AVR8/../AVR8/Device_AVR8.h **** 				#define USE_INTERNAL_SERIAL            NO_DESCRIPTOR
 129:/users/hunter/downloads/tmk_core/protocol/lufa/LUFA-git/LUFA/Drivers/USB/Core/AVR8/../AVR8/Device_AVR8.h **** 
 130:/users/hunter/downloads/tmk_core/protocol/lufa/LUFA-git/LUFA/Drivers/USB/Core/AVR8/../AVR8/Device_AVR8.h **** 				#define INTERNAL_SERIAL_LENGTH_BITS    0
 131:/users/hunter/downloads/tmk_core/protocol/lufa/LUFA-git/LUFA/Drivers/USB/Core/AVR8/../AVR8/Device_AVR8.h **** 				#define INTERNAL_SERIAL_START_ADDRESS  0
 132:/users/hunter/downloads/tmk_core/protocol/lufa/LUFA-git/LUFA/Drivers/USB/Core/AVR8/../AVR8/Device_AVR8.h **** 			#endif
 133:/users/hunter/downloads/tmk_core/protocol/lufa/LUFA-git/LUFA/Drivers/USB/Core/AVR8/../AVR8/Device_AVR8.h **** 
 134:/users/hunter/downloads/tmk_core/protocol/lufa/LUFA-git/LUFA/Drivers/USB/Core/AVR8/../AVR8/Device_AVR8.h **** 		/* Function Prototypes: */
 135:/users/hunter/downloads/tmk_core/protocol/lufa/LUFA-git/LUFA/Drivers/USB/Core/AVR8/../AVR8/Device_AVR8.h **** 			/** Sends a Remote Wakeup request to the host. This signals to the host that the device should
 136:/users/hunter/downloads/tmk_core/protocol/lufa/LUFA-git/LUFA/Drivers/USB/Core/AVR8/../AVR8/Device_AVR8.h **** 			 *  be taken out of suspended mode, and communications should resume.
 137:/users/hunter/downloads/tmk_core/protocol/lufa/LUFA-git/LUFA/Drivers/USB/Core/AVR8/../AVR8/Device_AVR8.h **** 			 *
 138:/users/hunter/downloads/tmk_core/protocol/lufa/LUFA-git/LUFA/Drivers/USB/Core/AVR8/../AVR8/Device_AVR8.h **** 			 *  Typically, this is implemented so that HID devices (mice, keyboards, etc.) can wake up the
 139:/users/hunter/downloads/tmk_core/protocol/lufa/LUFA-git/LUFA/Drivers/USB/Core/AVR8/../AVR8/Device_AVR8.h **** 			 *  host computer when the host has suspended all USB devices to enter a low power state.
 140:/users/hunter/downloads/tmk_core/protocol/lufa/LUFA-git/LUFA/Drivers/USB/Core/AVR8/../AVR8/Device_AVR8.h **** 			 *
 141:/users/hunter/downloads/tmk_core/protocol/lufa/LUFA-git/LUFA/Drivers/USB/Core/AVR8/../AVR8/Device_AVR8.h **** 			 *  \attention This function should only be used if the device has indicated to the host that it
 142:/users/hunter/downloads/tmk_core/protocol/lufa/LUFA-git/LUFA/Drivers/USB/Core/AVR8/../AVR8/Device_AVR8.h **** 			 *             supports the Remote Wakeup feature in the device descriptors, and should only be
 143:/users/hunter/downloads/tmk_core/protocol/lufa/LUFA-git/LUFA/Drivers/USB/Core/AVR8/../AVR8/Device_AVR8.h **** 			 *             issued if the host is currently allowing remote wakeup events from the device (i.
 144:/users/hunter/downloads/tmk_core/protocol/lufa/LUFA-git/LUFA/Drivers/USB/Core/AVR8/../AVR8/Device_AVR8.h **** 			 *             the \ref USB_Device_RemoteWakeupEnabled flag is set). When the \c NO_DEVICE_REMOT
 145:/users/hunter/downloads/tmk_core/protocol/lufa/LUFA-git/LUFA/Drivers/USB/Core/AVR8/../AVR8/Device_AVR8.h **** 			 *             compile time option is used, this function is unavailable.
 146:/users/hunter/downloads/tmk_core/protocol/lufa/LUFA-git/LUFA/Drivers/USB/Core/AVR8/../AVR8/Device_AVR8.h **** 			 *             \n\n
 147:/users/hunter/downloads/tmk_core/protocol/lufa/LUFA-git/LUFA/Drivers/USB/Core/AVR8/../AVR8/Device_AVR8.h **** 			 *
 148:/users/hunter/downloads/tmk_core/protocol/lufa/LUFA-git/LUFA/Drivers/USB/Core/AVR8/../AVR8/Device_AVR8.h **** 			 *  \attention The USB clock must be running for this function to operate. If the stack is initi
 149:/users/hunter/downloads/tmk_core/protocol/lufa/LUFA-git/LUFA/Drivers/USB/Core/AVR8/../AVR8/Device_AVR8.h **** 			 *             the \ref USB_OPT_MANUAL_PLL option enabled, the user must ensure that the PLL is 
 150:/users/hunter/downloads/tmk_core/protocol/lufa/LUFA-git/LUFA/Drivers/USB/Core/AVR8/../AVR8/Device_AVR8.h **** 			 *             before attempting to call this function.
 151:/users/hunter/downloads/tmk_core/protocol/lufa/LUFA-git/LUFA/Drivers/USB/Core/AVR8/../AVR8/Device_AVR8.h **** 			 *
 152:/users/hunter/downloads/tmk_core/protocol/lufa/LUFA-git/LUFA/Drivers/USB/Core/AVR8/../AVR8/Device_AVR8.h **** 			 *  \see \ref Group_StdDescriptors for more information on the RMWAKEUP feature and device descr
 153:/users/hunter/downloads/tmk_core/protocol/lufa/LUFA-git/LUFA/Drivers/USB/Core/AVR8/../AVR8/Device_AVR8.h **** 			 */
 154:/users/hunter/downloads/tmk_core/protocol/lufa/LUFA-git/LUFA/Drivers/USB/Core/AVR8/../AVR8/Device_AVR8.h **** 			void USB_Device_SendRemoteWakeup(void);
 155:/users/hunter/downloads/tmk_core/protocol/lufa/LUFA-git/LUFA/Drivers/USB/Core/AVR8/../AVR8/Device_AVR8.h **** 
 156:/users/hunter/downloads/tmk_core/protocol/lufa/LUFA-git/LUFA/Drivers/USB/Core/AVR8/../AVR8/Device_AVR8.h **** 		/* Inline Functions: */
 157:/users/hunter/downloads/tmk_core/protocol/lufa/LUFA-git/LUFA/Drivers/USB/Core/AVR8/../AVR8/Device_AVR8.h **** 			/** Returns the current USB frame number, when in device mode. Every millisecond the USB bus is 
 158:/users/hunter/downloads/tmk_core/protocol/lufa/LUFA-git/LUFA/Drivers/USB/Core/AVR8/../AVR8/Device_AVR8.h **** 			 *  the frame number is incremented by one.
 159:/users/hunter/downloads/tmk_core/protocol/lufa/LUFA-git/LUFA/Drivers/USB/Core/AVR8/../AVR8/Device_AVR8.h **** 			 *
 160:/users/hunter/downloads/tmk_core/protocol/lufa/LUFA-git/LUFA/Drivers/USB/Core/AVR8/../AVR8/Device_AVR8.h **** 			 *  \return Current USB frame number from the USB controller.
 161:/users/hunter/downloads/tmk_core/protocol/lufa/LUFA-git/LUFA/Drivers/USB/Core/AVR8/../AVR8/Device_AVR8.h **** 			 */
 162:/users/hunter/downloads/tmk_core/protocol/lufa/LUFA-git/LUFA/Drivers/USB/Core/AVR8/../AVR8/Device_AVR8.h **** 			static inline uint16_t USB_Device_GetFrameNumber(void) ATTR_ALWAYS_INLINE ATTR_WARN_UNUSED_RESUL
 163:/users/hunter/downloads/tmk_core/protocol/lufa/LUFA-git/LUFA/Drivers/USB/Core/AVR8/../AVR8/Device_AVR8.h **** 			static inline uint16_t USB_Device_GetFrameNumber(void)
 164:/users/hunter/downloads/tmk_core/protocol/lufa/LUFA-git/LUFA/Drivers/USB/Core/AVR8/../AVR8/Device_AVR8.h **** 			{
 165:/users/hunter/downloads/tmk_core/protocol/lufa/LUFA-git/LUFA/Drivers/USB/Core/AVR8/../AVR8/Device_AVR8.h **** 				return UDFNUM;
 166:/users/hunter/downloads/tmk_core/protocol/lufa/LUFA-git/LUFA/Drivers/USB/Core/AVR8/../AVR8/Device_AVR8.h **** 			}
 167:/users/hunter/downloads/tmk_core/protocol/lufa/LUFA-git/LUFA/Drivers/USB/Core/AVR8/../AVR8/Device_AVR8.h **** 
 168:/users/hunter/downloads/tmk_core/protocol/lufa/LUFA-git/LUFA/Drivers/USB/Core/AVR8/../AVR8/Device_AVR8.h **** 			#if !defined(NO_SOF_EVENTS)
 169:/users/hunter/downloads/tmk_core/protocol/lufa/LUFA-git/LUFA/Drivers/USB/Core/AVR8/../AVR8/Device_AVR8.h **** 				/** Enables the device mode Start Of Frame events. When enabled, this causes the
 170:/users/hunter/downloads/tmk_core/protocol/lufa/LUFA-git/LUFA/Drivers/USB/Core/AVR8/../AVR8/Device_AVR8.h **** 				 *  \ref EVENT_USB_Device_StartOfFrame() event to fire once per millisecond, synchronized to th
 171:/users/hunter/downloads/tmk_core/protocol/lufa/LUFA-git/LUFA/Drivers/USB/Core/AVR8/../AVR8/Device_AVR8.h **** 				 *  at the start of each USB frame when enumerated in device mode.
 172:/users/hunter/downloads/tmk_core/protocol/lufa/LUFA-git/LUFA/Drivers/USB/Core/AVR8/../AVR8/Device_AVR8.h **** 				 *
 173:/users/hunter/downloads/tmk_core/protocol/lufa/LUFA-git/LUFA/Drivers/USB/Core/AVR8/../AVR8/Device_AVR8.h **** 				 *  \note This function is not available when the \c NO_SOF_EVENTS compile time token is define
 174:/users/hunter/downloads/tmk_core/protocol/lufa/LUFA-git/LUFA/Drivers/USB/Core/AVR8/../AVR8/Device_AVR8.h **** 				 */
 175:/users/hunter/downloads/tmk_core/protocol/lufa/LUFA-git/LUFA/Drivers/USB/Core/AVR8/../AVR8/Device_AVR8.h **** 				static inline void USB_Device_EnableSOFEvents(void) ATTR_ALWAYS_INLINE;
 176:/users/hunter/downloads/tmk_core/protocol/lufa/LUFA-git/LUFA/Drivers/USB/Core/AVR8/../AVR8/Device_AVR8.h **** 				static inline void USB_Device_EnableSOFEvents(void)
 177:/users/hunter/downloads/tmk_core/protocol/lufa/LUFA-git/LUFA/Drivers/USB/Core/AVR8/../AVR8/Device_AVR8.h **** 				{
 178:/users/hunter/downloads/tmk_core/protocol/lufa/LUFA-git/LUFA/Drivers/USB/Core/AVR8/../AVR8/Device_AVR8.h **** 					USB_INT_Enable(USB_INT_SOFI);
 179:/users/hunter/downloads/tmk_core/protocol/lufa/LUFA-git/LUFA/Drivers/USB/Core/AVR8/../AVR8/Device_AVR8.h **** 				}
 180:/users/hunter/downloads/tmk_core/protocol/lufa/LUFA-git/LUFA/Drivers/USB/Core/AVR8/../AVR8/Device_AVR8.h **** 
 181:/users/hunter/downloads/tmk_core/protocol/lufa/LUFA-git/LUFA/Drivers/USB/Core/AVR8/../AVR8/Device_AVR8.h **** 				/** Disables the device mode Start Of Frame events. When disabled, this stops the firing of the
 182:/users/hunter/downloads/tmk_core/protocol/lufa/LUFA-git/LUFA/Drivers/USB/Core/AVR8/../AVR8/Device_AVR8.h **** 				 *  \ref EVENT_USB_Device_StartOfFrame() event when enumerated in device mode.
 183:/users/hunter/downloads/tmk_core/protocol/lufa/LUFA-git/LUFA/Drivers/USB/Core/AVR8/../AVR8/Device_AVR8.h **** 				 *
 184:/users/hunter/downloads/tmk_core/protocol/lufa/LUFA-git/LUFA/Drivers/USB/Core/AVR8/../AVR8/Device_AVR8.h **** 				 *  \note This function is not available when the \c NO_SOF_EVENTS compile time token is define
 185:/users/hunter/downloads/tmk_core/protocol/lufa/LUFA-git/LUFA/Drivers/USB/Core/AVR8/../AVR8/Device_AVR8.h **** 				 */
 186:/users/hunter/downloads/tmk_core/protocol/lufa/LUFA-git/LUFA/Drivers/USB/Core/AVR8/../AVR8/Device_AVR8.h **** 				static inline void USB_Device_DisableSOFEvents(void) ATTR_ALWAYS_INLINE;
 187:/users/hunter/downloads/tmk_core/protocol/lufa/LUFA-git/LUFA/Drivers/USB/Core/AVR8/../AVR8/Device_AVR8.h **** 				static inline void USB_Device_DisableSOFEvents(void)
 188:/users/hunter/downloads/tmk_core/protocol/lufa/LUFA-git/LUFA/Drivers/USB/Core/AVR8/../AVR8/Device_AVR8.h **** 				{
 189:/users/hunter/downloads/tmk_core/protocol/lufa/LUFA-git/LUFA/Drivers/USB/Core/AVR8/../AVR8/Device_AVR8.h **** 					USB_INT_Disable(USB_INT_SOFI);
 190:/users/hunter/downloads/tmk_core/protocol/lufa/LUFA-git/LUFA/Drivers/USB/Core/AVR8/../AVR8/Device_AVR8.h **** 				}
 191:/users/hunter/downloads/tmk_core/protocol/lufa/LUFA-git/LUFA/Drivers/USB/Core/AVR8/../AVR8/Device_AVR8.h **** 			#endif
 192:/users/hunter/downloads/tmk_core/protocol/lufa/LUFA-git/LUFA/Drivers/USB/Core/AVR8/../AVR8/Device_AVR8.h **** 
 193:/users/hunter/downloads/tmk_core/protocol/lufa/LUFA-git/LUFA/Drivers/USB/Core/AVR8/../AVR8/Device_AVR8.h **** 	/* Private Interface - For use in library only: */
 194:/users/hunter/downloads/tmk_core/protocol/lufa/LUFA-git/LUFA/Drivers/USB/Core/AVR8/../AVR8/Device_AVR8.h **** 	#if !defined(__DOXYGEN__)
 195:/users/hunter/downloads/tmk_core/protocol/lufa/LUFA-git/LUFA/Drivers/USB/Core/AVR8/../AVR8/Device_AVR8.h **** 		/* Inline Functions: */
 196:/users/hunter/downloads/tmk_core/protocol/lufa/LUFA-git/LUFA/Drivers/USB/Core/AVR8/../AVR8/Device_AVR8.h **** 			#if defined(USB_DEVICE_OPT_LOWSPEED)
 197:/users/hunter/downloads/tmk_core/protocol/lufa/LUFA-git/LUFA/Drivers/USB/Core/AVR8/../AVR8/Device_AVR8.h **** 			static inline void USB_Device_SetLowSpeed(void) ATTR_ALWAYS_INLINE;
 198:/users/hunter/downloads/tmk_core/protocol/lufa/LUFA-git/LUFA/Drivers/USB/Core/AVR8/../AVR8/Device_AVR8.h **** 			static inline void USB_Device_SetLowSpeed(void)
 199:/users/hunter/downloads/tmk_core/protocol/lufa/LUFA-git/LUFA/Drivers/USB/Core/AVR8/../AVR8/Device_AVR8.h **** 			{
 200:/users/hunter/downloads/tmk_core/protocol/lufa/LUFA-git/LUFA/Drivers/USB/Core/AVR8/../AVR8/Device_AVR8.h **** 				UDCON |=  (1 << LSM);
 201:/users/hunter/downloads/tmk_core/protocol/lufa/LUFA-git/LUFA/Drivers/USB/Core/AVR8/../AVR8/Device_AVR8.h **** 			}
 202:/users/hunter/downloads/tmk_core/protocol/lufa/LUFA-git/LUFA/Drivers/USB/Core/AVR8/../AVR8/Device_AVR8.h **** 
 203:/users/hunter/downloads/tmk_core/protocol/lufa/LUFA-git/LUFA/Drivers/USB/Core/AVR8/../AVR8/Device_AVR8.h **** 			static inline void USB_Device_SetFullSpeed(void) ATTR_ALWAYS_INLINE;
 204:/users/hunter/downloads/tmk_core/protocol/lufa/LUFA-git/LUFA/Drivers/USB/Core/AVR8/../AVR8/Device_AVR8.h **** 			static inline void USB_Device_SetFullSpeed(void)
 205:/users/hunter/downloads/tmk_core/protocol/lufa/LUFA-git/LUFA/Drivers/USB/Core/AVR8/../AVR8/Device_AVR8.h **** 			{
 206:/users/hunter/downloads/tmk_core/protocol/lufa/LUFA-git/LUFA/Drivers/USB/Core/AVR8/../AVR8/Device_AVR8.h **** 				UDCON &= ~(1 << LSM);
 207:/users/hunter/downloads/tmk_core/protocol/lufa/LUFA-git/LUFA/Drivers/USB/Core/AVR8/../AVR8/Device_AVR8.h **** 			}
 208:/users/hunter/downloads/tmk_core/protocol/lufa/LUFA-git/LUFA/Drivers/USB/Core/AVR8/../AVR8/Device_AVR8.h **** 			#endif
 209:/users/hunter/downloads/tmk_core/protocol/lufa/LUFA-git/LUFA/Drivers/USB/Core/AVR8/../AVR8/Device_AVR8.h **** 
 210:/users/hunter/downloads/tmk_core/protocol/lufa/LUFA-git/LUFA/Drivers/USB/Core/AVR8/../AVR8/Device_AVR8.h **** 			static inline void USB_Device_SetDeviceAddress(const uint8_t Address) ATTR_ALWAYS_INLINE;
 211:/users/hunter/downloads/tmk_core/protocol/lufa/LUFA-git/LUFA/Drivers/USB/Core/AVR8/../AVR8/Device_AVR8.h **** 			static inline void USB_Device_SetDeviceAddress(const uint8_t Address)
 212:/users/hunter/downloads/tmk_core/protocol/lufa/LUFA-git/LUFA/Drivers/USB/Core/AVR8/../AVR8/Device_AVR8.h **** 			{
 213:/users/hunter/downloads/tmk_core/protocol/lufa/LUFA-git/LUFA/Drivers/USB/Core/AVR8/../AVR8/Device_AVR8.h **** 				UDADDR = (UDADDR & (1 << ADDEN)) | (Address & 0x7F);
 402               		.loc 3 213 0
 403 016a 8091 E300 		lds r24,227
 404               	.LVL35:
 405 016e 8078      		andi r24,lo8(-128)
 406 0170 812B      		or r24,r17
 407 0172 8093 E300 		sts 227,r24
 408               	.LVL36:
 409               	.LBE229:
 410               	.LBE228:
 411               	.LBB230:
 412               	.LBB231:
 444:/users/hunter/downloads/tmk_core/protocol/lufa/LUFA-git/LUFA/Drivers/USB/Core/AVR8/../AVR8/Endpoint_AVR8.h **** 			}
 413               		.loc 2 444 0
 414 0176 8091 E800 		lds r24,232
 415 017a 877F      		andi r24,lo8(-9)
 416 017c 8093 E800 		sts 232,r24
 417               	.LBE231:
 418               	.LBE230:
 133:/users/hunter/downloads/tmk_core/protocol/lufa/LUFA-git/LUFA/Drivers/USB/Core/DeviceStandardReq.c **** 
 419               		.loc 1 133 0
 420 0180 0E94 0000 		call Endpoint_ClearStatusStage
 421               	.LVL37:
 422               	.L21:
 423               	.LBB232:
 424               	.LBB233:
 407:/users/hunter/downloads/tmk_core/protocol/lufa/LUFA-git/LUFA/Drivers/USB/Core/AVR8/../AVR8/Endpoint_AVR8.h **** 			}
 425               		.loc 2 407 0
 426 0184 8091 E800 		lds r24,232
 427               	.LBE233:
 428               	.LBE232:
 135:/users/hunter/downloads/tmk_core/protocol/lufa/LUFA-git/LUFA/Drivers/USB/Core/DeviceStandardReq.c **** 
 429               		.loc 1 135 0
 430 0188 80FF      		sbrs r24,0
 431 018a 00C0      		rjmp .L21
 432               	.LVL38:
 433               	.LBB234:
 434               	.LBB235:
 214:/users/hunter/downloads/tmk_core/protocol/lufa/LUFA-git/LUFA/Drivers/USB/Core/AVR8/../AVR8/Device_AVR8.h **** 			}
 215:/users/hunter/downloads/tmk_core/protocol/lufa/LUFA-git/LUFA/Drivers/USB/Core/AVR8/../AVR8/Device_AVR8.h **** 
 216:/users/hunter/downloads/tmk_core/protocol/lufa/LUFA-git/LUFA/Drivers/USB/Core/AVR8/../AVR8/Device_AVR8.h **** 			static inline void USB_Device_EnableDeviceAddress(const uint8_t Address) ATTR_ALWAYS_INLINE;
 217:/users/hunter/downloads/tmk_core/protocol/lufa/LUFA-git/LUFA/Drivers/USB/Core/AVR8/../AVR8/Device_AVR8.h **** 			static inline void USB_Device_EnableDeviceAddress(const uint8_t Address)
 218:/users/hunter/downloads/tmk_core/protocol/lufa/LUFA-git/LUFA/Drivers/USB/Core/AVR8/../AVR8/Device_AVR8.h **** 			{
 219:/users/hunter/downloads/tmk_core/protocol/lufa/LUFA-git/LUFA/Drivers/USB/Core/AVR8/../AVR8/Device_AVR8.h **** 				(void)Address;
 220:/users/hunter/downloads/tmk_core/protocol/lufa/LUFA-git/LUFA/Drivers/USB/Core/AVR8/../AVR8/Device_AVR8.h **** 
 221:/users/hunter/downloads/tmk_core/protocol/lufa/LUFA-git/LUFA/Drivers/USB/Core/AVR8/../AVR8/Device_AVR8.h **** 				UDADDR |= (1 << ADDEN);
 435               		.loc 3 221 0
 436 018c 8091 E300 		lds r24,227
 437 0190 8068      		ori r24,lo8(-128)
 438 0192 8093 E300 		sts 227,r24
 439               	.LVL39:
 440               	.LBE235:
 441               	.LBE234:
 139:/users/hunter/downloads/tmk_core/protocol/lufa/LUFA-git/LUFA/Drivers/USB/Core/DeviceStandardReq.c **** }
 442               		.loc 1 139 0
 443 0196 83E0      		ldi r24,lo8(3)
 444 0198 1111      		cpse r17,__zero_reg__
 445 019a 00C0      		rjmp .L22
 446 019c 82E0      		ldi r24,lo8(2)
 447               	.L22:
 448 019e 8093 0000 		sts USB_DeviceState,r24
 449 01a2 00C0      		rjmp .L3
 450               	.LVL40:
 451               	.L8:
 452               	.LBE227:
 453               	.LBE226:
  95:/users/hunter/downloads/tmk_core/protocol/lufa/LUFA-git/LUFA/Drivers/USB/Core/DeviceStandardReq.c **** 					(bmRequestType == (REQDIR_DEVICETOHOST | REQTYPE_STANDARD | REQREC_INTERFACE)))
 454               		.loc 1 95 0
 455 01a4 8058      		subi r24,lo8(-(-128))
 456               	.LVL41:
 457 01a6 8230      		cpi r24,lo8(2)
 458 01a8 00F0      		brlo .+2
 459 01aa 00C0      		rjmp .L3
 460               	.LBB236:
 461               	.LBB237:
 250:/users/hunter/downloads/tmk_core/protocol/lufa/LUFA-git/LUFA/Drivers/USB/Core/DeviceStandardReq.c **** 	{
 462               		.loc 1 250 0
 463 01ac 8091 0000 		lds r24,USB_ControlRequest+2
 464 01b0 9091 0000 		lds r25,USB_ControlRequest+2+1
 465 01b4 8C3D      		cpi r24,-36
 466 01b6 23E0      		ldi r18,3
 467 01b8 9207      		cpc r25,r18
 468 01ba 01F4      		brne .L23
 469               	.LBB238:
 470               	.LBB239:
 227:/users/hunter/downloads/tmk_core/protocol/lufa/LUFA-git/LUFA/Drivers/USB/Core/DeviceStandardReq.c **** 	SignatureDescriptor.Header.Size = USB_STRING_LEN(INTERNAL_SERIAL_LENGTH_BITS / 4);
 471               		.loc 1 227 0
 472 01bc 83E0      		ldi r24,lo8(3)
 473 01be 8A83      		std Y+2,r24
 228:/users/hunter/downloads/tmk_core/protocol/lufa/LUFA-git/LUFA/Drivers/USB/Core/DeviceStandardReq.c **** 
 474               		.loc 1 228 0
 475 01c0 8AE2      		ldi r24,lo8(42)
 476 01c2 8983      		std Y+1,r24
 477               	.LVL42:
 478               	.LBB240:
 479               	.LBB241:
 480               	.LBB242:
 481               	.LBB243:
 482               		.file 4 "/users/hunter/downloads/tmk_core/protocol/lufa/LUFA-git/LUFA/Drivers/USB/Core/../../../Co
   1:/users/hunter/downloads/tmk_core/protocol/lufa/LUFA-git/LUFA/Drivers/USB/Core/../../../Common/Common.h **** /*
   2:/users/hunter/downloads/tmk_core/protocol/lufa/LUFA-git/LUFA/Drivers/USB/Core/../../../Common/Common.h ****              LUFA Library
   3:/users/hunter/downloads/tmk_core/protocol/lufa/LUFA-git/LUFA/Drivers/USB/Core/../../../Common/Common.h ****      Copyright (C) Dean Camera, 2014.
   4:/users/hunter/downloads/tmk_core/protocol/lufa/LUFA-git/LUFA/Drivers/USB/Core/../../../Common/Common.h **** 
   5:/users/hunter/downloads/tmk_core/protocol/lufa/LUFA-git/LUFA/Drivers/USB/Core/../../../Common/Common.h ****   dean [at] fourwalledcubicle [dot] com
   6:/users/hunter/downloads/tmk_core/protocol/lufa/LUFA-git/LUFA/Drivers/USB/Core/../../../Common/Common.h ****            www.lufa-lib.org
   7:/users/hunter/downloads/tmk_core/protocol/lufa/LUFA-git/LUFA/Drivers/USB/Core/../../../Common/Common.h **** */
   8:/users/hunter/downloads/tmk_core/protocol/lufa/LUFA-git/LUFA/Drivers/USB/Core/../../../Common/Common.h **** 
   9:/users/hunter/downloads/tmk_core/protocol/lufa/LUFA-git/LUFA/Drivers/USB/Core/../../../Common/Common.h **** /*
  10:/users/hunter/downloads/tmk_core/protocol/lufa/LUFA-git/LUFA/Drivers/USB/Core/../../../Common/Common.h ****   Copyright 2014  Dean Camera (dean [at] fourwalledcubicle [dot] com)
  11:/users/hunter/downloads/tmk_core/protocol/lufa/LUFA-git/LUFA/Drivers/USB/Core/../../../Common/Common.h **** 
  12:/users/hunter/downloads/tmk_core/protocol/lufa/LUFA-git/LUFA/Drivers/USB/Core/../../../Common/Common.h ****   Permission to use, copy, modify, distribute, and sell this
  13:/users/hunter/downloads/tmk_core/protocol/lufa/LUFA-git/LUFA/Drivers/USB/Core/../../../Common/Common.h ****   software and its documentation for any purpose is hereby granted
  14:/users/hunter/downloads/tmk_core/protocol/lufa/LUFA-git/LUFA/Drivers/USB/Core/../../../Common/Common.h ****   without fee, provided that the above copyright notice appear in
  15:/users/hunter/downloads/tmk_core/protocol/lufa/LUFA-git/LUFA/Drivers/USB/Core/../../../Common/Common.h ****   all copies and that both that the copyright notice and this
  16:/users/hunter/downloads/tmk_core/protocol/lufa/LUFA-git/LUFA/Drivers/USB/Core/../../../Common/Common.h ****   permission notice and warranty disclaimer appear in supporting
  17:/users/hunter/downloads/tmk_core/protocol/lufa/LUFA-git/LUFA/Drivers/USB/Core/../../../Common/Common.h ****   documentation, and that the name of the author not be used in
  18:/users/hunter/downloads/tmk_core/protocol/lufa/LUFA-git/LUFA/Drivers/USB/Core/../../../Common/Common.h ****   advertising or publicity pertaining to distribution of the
  19:/users/hunter/downloads/tmk_core/protocol/lufa/LUFA-git/LUFA/Drivers/USB/Core/../../../Common/Common.h ****   software without specific, written prior permission.
  20:/users/hunter/downloads/tmk_core/protocol/lufa/LUFA-git/LUFA/Drivers/USB/Core/../../../Common/Common.h **** 
  21:/users/hunter/downloads/tmk_core/protocol/lufa/LUFA-git/LUFA/Drivers/USB/Core/../../../Common/Common.h ****   The author disclaims all warranties with regard to this
  22:/users/hunter/downloads/tmk_core/protocol/lufa/LUFA-git/LUFA/Drivers/USB/Core/../../../Common/Common.h ****   software, including all implied warranties of merchantability
  23:/users/hunter/downloads/tmk_core/protocol/lufa/LUFA-git/LUFA/Drivers/USB/Core/../../../Common/Common.h ****   and fitness.  In no event shall the author be liable for any
  24:/users/hunter/downloads/tmk_core/protocol/lufa/LUFA-git/LUFA/Drivers/USB/Core/../../../Common/Common.h ****   special, indirect or consequential damages or any damages
  25:/users/hunter/downloads/tmk_core/protocol/lufa/LUFA-git/LUFA/Drivers/USB/Core/../../../Common/Common.h ****   whatsoever resulting from loss of use, data or profits, whether
  26:/users/hunter/downloads/tmk_core/protocol/lufa/LUFA-git/LUFA/Drivers/USB/Core/../../../Common/Common.h ****   in an action of contract, negligence or other tortious action,
  27:/users/hunter/downloads/tmk_core/protocol/lufa/LUFA-git/LUFA/Drivers/USB/Core/../../../Common/Common.h ****   arising out of or in connection with the use or performance of
  28:/users/hunter/downloads/tmk_core/protocol/lufa/LUFA-git/LUFA/Drivers/USB/Core/../../../Common/Common.h ****   this software.
  29:/users/hunter/downloads/tmk_core/protocol/lufa/LUFA-git/LUFA/Drivers/USB/Core/../../../Common/Common.h **** */
  30:/users/hunter/downloads/tmk_core/protocol/lufa/LUFA-git/LUFA/Drivers/USB/Core/../../../Common/Common.h **** 
  31:/users/hunter/downloads/tmk_core/protocol/lufa/LUFA-git/LUFA/Drivers/USB/Core/../../../Common/Common.h **** /** \dir
  32:/users/hunter/downloads/tmk_core/protocol/lufa/LUFA-git/LUFA/Drivers/USB/Core/../../../Common/Common.h ****  *  \brief Common library header files.
  33:/users/hunter/downloads/tmk_core/protocol/lufa/LUFA-git/LUFA/Drivers/USB/Core/../../../Common/Common.h ****  *
  34:/users/hunter/downloads/tmk_core/protocol/lufa/LUFA-git/LUFA/Drivers/USB/Core/../../../Common/Common.h ****  *  This folder contains header files which are common to all parts of the LUFA library. They may b
  35:/users/hunter/downloads/tmk_core/protocol/lufa/LUFA-git/LUFA/Drivers/USB/Core/../../../Common/Common.h ****  *  user applications.
  36:/users/hunter/downloads/tmk_core/protocol/lufa/LUFA-git/LUFA/Drivers/USB/Core/../../../Common/Common.h ****  */
  37:/users/hunter/downloads/tmk_core/protocol/lufa/LUFA-git/LUFA/Drivers/USB/Core/../../../Common/Common.h **** 
  38:/users/hunter/downloads/tmk_core/protocol/lufa/LUFA-git/LUFA/Drivers/USB/Core/../../../Common/Common.h **** /** \file
  39:/users/hunter/downloads/tmk_core/protocol/lufa/LUFA-git/LUFA/Drivers/USB/Core/../../../Common/Common.h ****  *  \brief Common library convenience headers, macros and functions.
  40:/users/hunter/downloads/tmk_core/protocol/lufa/LUFA-git/LUFA/Drivers/USB/Core/../../../Common/Common.h ****  *
  41:/users/hunter/downloads/tmk_core/protocol/lufa/LUFA-git/LUFA/Drivers/USB/Core/../../../Common/Common.h ****  *  \copydetails Group_Common
  42:/users/hunter/downloads/tmk_core/protocol/lufa/LUFA-git/LUFA/Drivers/USB/Core/../../../Common/Common.h ****  */
  43:/users/hunter/downloads/tmk_core/protocol/lufa/LUFA-git/LUFA/Drivers/USB/Core/../../../Common/Common.h **** 
  44:/users/hunter/downloads/tmk_core/protocol/lufa/LUFA-git/LUFA/Drivers/USB/Core/../../../Common/Common.h **** /** \defgroup Group_Common Common Utility Headers - LUFA/Drivers/Common/Common.h
  45:/users/hunter/downloads/tmk_core/protocol/lufa/LUFA-git/LUFA/Drivers/USB/Core/../../../Common/Common.h ****  *  \brief Common library convenience headers, macros and functions.
  46:/users/hunter/downloads/tmk_core/protocol/lufa/LUFA-git/LUFA/Drivers/USB/Core/../../../Common/Common.h ****  *
  47:/users/hunter/downloads/tmk_core/protocol/lufa/LUFA-git/LUFA/Drivers/USB/Core/../../../Common/Common.h ****  *  Common utility headers containing macros, functions, enums and types which are common to all
  48:/users/hunter/downloads/tmk_core/protocol/lufa/LUFA-git/LUFA/Drivers/USB/Core/../../../Common/Common.h ****  *  aspects of the library.
  49:/users/hunter/downloads/tmk_core/protocol/lufa/LUFA-git/LUFA/Drivers/USB/Core/../../../Common/Common.h ****  *
  50:/users/hunter/downloads/tmk_core/protocol/lufa/LUFA-git/LUFA/Drivers/USB/Core/../../../Common/Common.h ****  *  @{
  51:/users/hunter/downloads/tmk_core/protocol/lufa/LUFA-git/LUFA/Drivers/USB/Core/../../../Common/Common.h ****  */
  52:/users/hunter/downloads/tmk_core/protocol/lufa/LUFA-git/LUFA/Drivers/USB/Core/../../../Common/Common.h **** 
  53:/users/hunter/downloads/tmk_core/protocol/lufa/LUFA-git/LUFA/Drivers/USB/Core/../../../Common/Common.h **** /** \defgroup Group_GlobalInt Global Interrupt Macros
  54:/users/hunter/downloads/tmk_core/protocol/lufa/LUFA-git/LUFA/Drivers/USB/Core/../../../Common/Common.h ****  *  \brief Convenience macros for the management of interrupts globally within the device.
  55:/users/hunter/downloads/tmk_core/protocol/lufa/LUFA-git/LUFA/Drivers/USB/Core/../../../Common/Common.h ****  *
  56:/users/hunter/downloads/tmk_core/protocol/lufa/LUFA-git/LUFA/Drivers/USB/Core/../../../Common/Common.h ****  *  Macros and functions to create and control global interrupts within the device.
  57:/users/hunter/downloads/tmk_core/protocol/lufa/LUFA-git/LUFA/Drivers/USB/Core/../../../Common/Common.h ****  */
  58:/users/hunter/downloads/tmk_core/protocol/lufa/LUFA-git/LUFA/Drivers/USB/Core/../../../Common/Common.h **** 
  59:/users/hunter/downloads/tmk_core/protocol/lufa/LUFA-git/LUFA/Drivers/USB/Core/../../../Common/Common.h **** #ifndef __LUFA_COMMON_H__
  60:/users/hunter/downloads/tmk_core/protocol/lufa/LUFA-git/LUFA/Drivers/USB/Core/../../../Common/Common.h **** #define __LUFA_COMMON_H__
  61:/users/hunter/downloads/tmk_core/protocol/lufa/LUFA-git/LUFA/Drivers/USB/Core/../../../Common/Common.h **** 
  62:/users/hunter/downloads/tmk_core/protocol/lufa/LUFA-git/LUFA/Drivers/USB/Core/../../../Common/Common.h **** 	/* Macros: */
  63:/users/hunter/downloads/tmk_core/protocol/lufa/LUFA-git/LUFA/Drivers/USB/Core/../../../Common/Common.h **** 		#define __INCLUDE_FROM_COMMON_H
  64:/users/hunter/downloads/tmk_core/protocol/lufa/LUFA-git/LUFA/Drivers/USB/Core/../../../Common/Common.h **** 
  65:/users/hunter/downloads/tmk_core/protocol/lufa/LUFA-git/LUFA/Drivers/USB/Core/../../../Common/Common.h **** 	/* Includes: */
  66:/users/hunter/downloads/tmk_core/protocol/lufa/LUFA-git/LUFA/Drivers/USB/Core/../../../Common/Common.h **** 		#include <stdint.h>
  67:/users/hunter/downloads/tmk_core/protocol/lufa/LUFA-git/LUFA/Drivers/USB/Core/../../../Common/Common.h **** 		#include <stdbool.h>
  68:/users/hunter/downloads/tmk_core/protocol/lufa/LUFA-git/LUFA/Drivers/USB/Core/../../../Common/Common.h **** 		#include <string.h>
  69:/users/hunter/downloads/tmk_core/protocol/lufa/LUFA-git/LUFA/Drivers/USB/Core/../../../Common/Common.h **** 		#include <stddef.h>
  70:/users/hunter/downloads/tmk_core/protocol/lufa/LUFA-git/LUFA/Drivers/USB/Core/../../../Common/Common.h **** 
  71:/users/hunter/downloads/tmk_core/protocol/lufa/LUFA-git/LUFA/Drivers/USB/Core/../../../Common/Common.h **** 		#include "Architectures.h"
  72:/users/hunter/downloads/tmk_core/protocol/lufa/LUFA-git/LUFA/Drivers/USB/Core/../../../Common/Common.h **** 		#include "BoardTypes.h"
  73:/users/hunter/downloads/tmk_core/protocol/lufa/LUFA-git/LUFA/Drivers/USB/Core/../../../Common/Common.h **** 		#include "ArchitectureSpecific.h"
  74:/users/hunter/downloads/tmk_core/protocol/lufa/LUFA-git/LUFA/Drivers/USB/Core/../../../Common/Common.h **** 		#include "CompilerSpecific.h"
  75:/users/hunter/downloads/tmk_core/protocol/lufa/LUFA-git/LUFA/Drivers/USB/Core/../../../Common/Common.h **** 		#include "Attributes.h"
  76:/users/hunter/downloads/tmk_core/protocol/lufa/LUFA-git/LUFA/Drivers/USB/Core/../../../Common/Common.h **** 
  77:/users/hunter/downloads/tmk_core/protocol/lufa/LUFA-git/LUFA/Drivers/USB/Core/../../../Common/Common.h **** 		#if defined(USE_LUFA_CONFIG_HEADER)
  78:/users/hunter/downloads/tmk_core/protocol/lufa/LUFA-git/LUFA/Drivers/USB/Core/../../../Common/Common.h **** 			#include "LUFAConfig.h"
  79:/users/hunter/downloads/tmk_core/protocol/lufa/LUFA-git/LUFA/Drivers/USB/Core/../../../Common/Common.h **** 		#endif
  80:/users/hunter/downloads/tmk_core/protocol/lufa/LUFA-git/LUFA/Drivers/USB/Core/../../../Common/Common.h **** 
  81:/users/hunter/downloads/tmk_core/protocol/lufa/LUFA-git/LUFA/Drivers/USB/Core/../../../Common/Common.h **** 	/* Enable C linkage for C++ Compilers: */
  82:/users/hunter/downloads/tmk_core/protocol/lufa/LUFA-git/LUFA/Drivers/USB/Core/../../../Common/Common.h **** 		#if defined(__cplusplus)
  83:/users/hunter/downloads/tmk_core/protocol/lufa/LUFA-git/LUFA/Drivers/USB/Core/../../../Common/Common.h **** 			extern "C" {
  84:/users/hunter/downloads/tmk_core/protocol/lufa/LUFA-git/LUFA/Drivers/USB/Core/../../../Common/Common.h **** 		#endif
  85:/users/hunter/downloads/tmk_core/protocol/lufa/LUFA-git/LUFA/Drivers/USB/Core/../../../Common/Common.h **** 
  86:/users/hunter/downloads/tmk_core/protocol/lufa/LUFA-git/LUFA/Drivers/USB/Core/../../../Common/Common.h **** 	/* Architecture specific utility includes: */
  87:/users/hunter/downloads/tmk_core/protocol/lufa/LUFA-git/LUFA/Drivers/USB/Core/../../../Common/Common.h **** 		#if defined(__DOXYGEN__)
  88:/users/hunter/downloads/tmk_core/protocol/lufa/LUFA-git/LUFA/Drivers/USB/Core/../../../Common/Common.h **** 			/** Type define for an unsigned integer the same width as the selected architecture's machine re
  89:/users/hunter/downloads/tmk_core/protocol/lufa/LUFA-git/LUFA/Drivers/USB/Core/../../../Common/Common.h **** 			 *  This is distinct from the non-specific standard int data type, whose width is machine depend
  90:/users/hunter/downloads/tmk_core/protocol/lufa/LUFA-git/LUFA/Drivers/USB/Core/../../../Common/Common.h **** 			 *  which may not reflect the actual machine register width on some targets (e.g. AVR8).
  91:/users/hunter/downloads/tmk_core/protocol/lufa/LUFA-git/LUFA/Drivers/USB/Core/../../../Common/Common.h **** 			 */
  92:/users/hunter/downloads/tmk_core/protocol/lufa/LUFA-git/LUFA/Drivers/USB/Core/../../../Common/Common.h **** 			typedef MACHINE_REG_t uint_reg_t;
  93:/users/hunter/downloads/tmk_core/protocol/lufa/LUFA-git/LUFA/Drivers/USB/Core/../../../Common/Common.h **** 		#elif (ARCH == ARCH_AVR8)
  94:/users/hunter/downloads/tmk_core/protocol/lufa/LUFA-git/LUFA/Drivers/USB/Core/../../../Common/Common.h **** 			#include <avr/io.h>
  95:/users/hunter/downloads/tmk_core/protocol/lufa/LUFA-git/LUFA/Drivers/USB/Core/../../../Common/Common.h **** 			#include <avr/interrupt.h>
  96:/users/hunter/downloads/tmk_core/protocol/lufa/LUFA-git/LUFA/Drivers/USB/Core/../../../Common/Common.h **** 			#include <avr/pgmspace.h>
  97:/users/hunter/downloads/tmk_core/protocol/lufa/LUFA-git/LUFA/Drivers/USB/Core/../../../Common/Common.h **** 			#include <avr/eeprom.h>
  98:/users/hunter/downloads/tmk_core/protocol/lufa/LUFA-git/LUFA/Drivers/USB/Core/../../../Common/Common.h **** 			#include <avr/boot.h>
  99:/users/hunter/downloads/tmk_core/protocol/lufa/LUFA-git/LUFA/Drivers/USB/Core/../../../Common/Common.h **** 			#include <math.h>
 100:/users/hunter/downloads/tmk_core/protocol/lufa/LUFA-git/LUFA/Drivers/USB/Core/../../../Common/Common.h **** 			#include <util/delay.h>
 101:/users/hunter/downloads/tmk_core/protocol/lufa/LUFA-git/LUFA/Drivers/USB/Core/../../../Common/Common.h **** 
 102:/users/hunter/downloads/tmk_core/protocol/lufa/LUFA-git/LUFA/Drivers/USB/Core/../../../Common/Common.h **** 			typedef uint8_t uint_reg_t;
 103:/users/hunter/downloads/tmk_core/protocol/lufa/LUFA-git/LUFA/Drivers/USB/Core/../../../Common/Common.h **** 
 104:/users/hunter/downloads/tmk_core/protocol/lufa/LUFA-git/LUFA/Drivers/USB/Core/../../../Common/Common.h **** 			#define ARCH_HAS_EEPROM_ADDRESS_SPACE
 105:/users/hunter/downloads/tmk_core/protocol/lufa/LUFA-git/LUFA/Drivers/USB/Core/../../../Common/Common.h **** 			#define ARCH_HAS_FLASH_ADDRESS_SPACE
 106:/users/hunter/downloads/tmk_core/protocol/lufa/LUFA-git/LUFA/Drivers/USB/Core/../../../Common/Common.h **** 			#define ARCH_HAS_MULTI_ADDRESS_SPACE
 107:/users/hunter/downloads/tmk_core/protocol/lufa/LUFA-git/LUFA/Drivers/USB/Core/../../../Common/Common.h **** 			#define ARCH_LITTLE_ENDIAN
 108:/users/hunter/downloads/tmk_core/protocol/lufa/LUFA-git/LUFA/Drivers/USB/Core/../../../Common/Common.h **** 
 109:/users/hunter/downloads/tmk_core/protocol/lufa/LUFA-git/LUFA/Drivers/USB/Core/../../../Common/Common.h **** 			#include "Endianness.h"
 110:/users/hunter/downloads/tmk_core/protocol/lufa/LUFA-git/LUFA/Drivers/USB/Core/../../../Common/Common.h **** 		#elif (ARCH == ARCH_UC3)
 111:/users/hunter/downloads/tmk_core/protocol/lufa/LUFA-git/LUFA/Drivers/USB/Core/../../../Common/Common.h **** 			#include <avr32/io.h>
 112:/users/hunter/downloads/tmk_core/protocol/lufa/LUFA-git/LUFA/Drivers/USB/Core/../../../Common/Common.h **** 			#include <math.h>
 113:/users/hunter/downloads/tmk_core/protocol/lufa/LUFA-git/LUFA/Drivers/USB/Core/../../../Common/Common.h **** 
 114:/users/hunter/downloads/tmk_core/protocol/lufa/LUFA-git/LUFA/Drivers/USB/Core/../../../Common/Common.h **** 			// === TODO: Find abstracted way to handle these ===
 115:/users/hunter/downloads/tmk_core/protocol/lufa/LUFA-git/LUFA/Drivers/USB/Core/../../../Common/Common.h **** 			#define PROGMEM
 116:/users/hunter/downloads/tmk_core/protocol/lufa/LUFA-git/LUFA/Drivers/USB/Core/../../../Common/Common.h **** 			#define pgm_read_byte(x)         *x
 117:/users/hunter/downloads/tmk_core/protocol/lufa/LUFA-git/LUFA/Drivers/USB/Core/../../../Common/Common.h **** 			#define memcmp_P(...)            memcmp(__VA_ARGS__)
 118:/users/hunter/downloads/tmk_core/protocol/lufa/LUFA-git/LUFA/Drivers/USB/Core/../../../Common/Common.h **** 			#define memcpy_P(...)            memcpy(__VA_ARGS__)
 119:/users/hunter/downloads/tmk_core/protocol/lufa/LUFA-git/LUFA/Drivers/USB/Core/../../../Common/Common.h **** 			// =================================================
 120:/users/hunter/downloads/tmk_core/protocol/lufa/LUFA-git/LUFA/Drivers/USB/Core/../../../Common/Common.h **** 
 121:/users/hunter/downloads/tmk_core/protocol/lufa/LUFA-git/LUFA/Drivers/USB/Core/../../../Common/Common.h **** 			typedef uint32_t uint_reg_t;
 122:/users/hunter/downloads/tmk_core/protocol/lufa/LUFA-git/LUFA/Drivers/USB/Core/../../../Common/Common.h **** 
 123:/users/hunter/downloads/tmk_core/protocol/lufa/LUFA-git/LUFA/Drivers/USB/Core/../../../Common/Common.h **** 			#define ARCH_BIG_ENDIAN
 124:/users/hunter/downloads/tmk_core/protocol/lufa/LUFA-git/LUFA/Drivers/USB/Core/../../../Common/Common.h **** 
 125:/users/hunter/downloads/tmk_core/protocol/lufa/LUFA-git/LUFA/Drivers/USB/Core/../../../Common/Common.h **** 			#include "Endianness.h"
 126:/users/hunter/downloads/tmk_core/protocol/lufa/LUFA-git/LUFA/Drivers/USB/Core/../../../Common/Common.h **** 		#elif (ARCH == ARCH_XMEGA)
 127:/users/hunter/downloads/tmk_core/protocol/lufa/LUFA-git/LUFA/Drivers/USB/Core/../../../Common/Common.h **** 			#include <avr/io.h>
 128:/users/hunter/downloads/tmk_core/protocol/lufa/LUFA-git/LUFA/Drivers/USB/Core/../../../Common/Common.h **** 			#include <avr/interrupt.h>
 129:/users/hunter/downloads/tmk_core/protocol/lufa/LUFA-git/LUFA/Drivers/USB/Core/../../../Common/Common.h **** 			#include <avr/pgmspace.h>
 130:/users/hunter/downloads/tmk_core/protocol/lufa/LUFA-git/LUFA/Drivers/USB/Core/../../../Common/Common.h **** 			#include <avr/eeprom.h>
 131:/users/hunter/downloads/tmk_core/protocol/lufa/LUFA-git/LUFA/Drivers/USB/Core/../../../Common/Common.h **** 			#include <math.h>
 132:/users/hunter/downloads/tmk_core/protocol/lufa/LUFA-git/LUFA/Drivers/USB/Core/../../../Common/Common.h **** 			#include <util/delay.h>
 133:/users/hunter/downloads/tmk_core/protocol/lufa/LUFA-git/LUFA/Drivers/USB/Core/../../../Common/Common.h **** 
 134:/users/hunter/downloads/tmk_core/protocol/lufa/LUFA-git/LUFA/Drivers/USB/Core/../../../Common/Common.h **** 			typedef uint8_t uint_reg_t;
 135:/users/hunter/downloads/tmk_core/protocol/lufa/LUFA-git/LUFA/Drivers/USB/Core/../../../Common/Common.h **** 
 136:/users/hunter/downloads/tmk_core/protocol/lufa/LUFA-git/LUFA/Drivers/USB/Core/../../../Common/Common.h **** 			#define ARCH_HAS_EEPROM_ADDRESS_SPACE
 137:/users/hunter/downloads/tmk_core/protocol/lufa/LUFA-git/LUFA/Drivers/USB/Core/../../../Common/Common.h **** 			#define ARCH_HAS_FLASH_ADDRESS_SPACE
 138:/users/hunter/downloads/tmk_core/protocol/lufa/LUFA-git/LUFA/Drivers/USB/Core/../../../Common/Common.h **** 			#define ARCH_HAS_MULTI_ADDRESS_SPACE
 139:/users/hunter/downloads/tmk_core/protocol/lufa/LUFA-git/LUFA/Drivers/USB/Core/../../../Common/Common.h **** 			#define ARCH_LITTLE_ENDIAN
 140:/users/hunter/downloads/tmk_core/protocol/lufa/LUFA-git/LUFA/Drivers/USB/Core/../../../Common/Common.h **** 
 141:/users/hunter/downloads/tmk_core/protocol/lufa/LUFA-git/LUFA/Drivers/USB/Core/../../../Common/Common.h **** 			#include "Endianness.h"
 142:/users/hunter/downloads/tmk_core/protocol/lufa/LUFA-git/LUFA/Drivers/USB/Core/../../../Common/Common.h **** 		#else
 143:/users/hunter/downloads/tmk_core/protocol/lufa/LUFA-git/LUFA/Drivers/USB/Core/../../../Common/Common.h **** 			#error Unknown device architecture specified.
 144:/users/hunter/downloads/tmk_core/protocol/lufa/LUFA-git/LUFA/Drivers/USB/Core/../../../Common/Common.h **** 		#endif
 145:/users/hunter/downloads/tmk_core/protocol/lufa/LUFA-git/LUFA/Drivers/USB/Core/../../../Common/Common.h **** 
 146:/users/hunter/downloads/tmk_core/protocol/lufa/LUFA-git/LUFA/Drivers/USB/Core/../../../Common/Common.h **** 	/* Public Interface - May be used in end-application: */
 147:/users/hunter/downloads/tmk_core/protocol/lufa/LUFA-git/LUFA/Drivers/USB/Core/../../../Common/Common.h **** 		/* Macros: */
 148:/users/hunter/downloads/tmk_core/protocol/lufa/LUFA-git/LUFA/Drivers/USB/Core/../../../Common/Common.h **** 			#if !defined(__DOXYGEN__)
 149:/users/hunter/downloads/tmk_core/protocol/lufa/LUFA-git/LUFA/Drivers/USB/Core/../../../Common/Common.h **** 				// Obsolete, retained for compatibility with user code
 150:/users/hunter/downloads/tmk_core/protocol/lufa/LUFA-git/LUFA/Drivers/USB/Core/../../../Common/Common.h **** 				#define MACROS                  do
 151:/users/hunter/downloads/tmk_core/protocol/lufa/LUFA-git/LUFA/Drivers/USB/Core/../../../Common/Common.h **** 				#define MACROE                  while (0)
 152:/users/hunter/downloads/tmk_core/protocol/lufa/LUFA-git/LUFA/Drivers/USB/Core/../../../Common/Common.h **** 			#endif
 153:/users/hunter/downloads/tmk_core/protocol/lufa/LUFA-git/LUFA/Drivers/USB/Core/../../../Common/Common.h **** 
 154:/users/hunter/downloads/tmk_core/protocol/lufa/LUFA-git/LUFA/Drivers/USB/Core/../../../Common/Common.h **** 			/** Convenience macro to determine the larger of two values.
 155:/users/hunter/downloads/tmk_core/protocol/lufa/LUFA-git/LUFA/Drivers/USB/Core/../../../Common/Common.h **** 			 *
 156:/users/hunter/downloads/tmk_core/protocol/lufa/LUFA-git/LUFA/Drivers/USB/Core/../../../Common/Common.h **** 			 *  \attention This macro should only be used with operands that do not have side effects from b
 157:/users/hunter/downloads/tmk_core/protocol/lufa/LUFA-git/LUFA/Drivers/USB/Core/../../../Common/Common.h **** 			 *             multiple times.
 158:/users/hunter/downloads/tmk_core/protocol/lufa/LUFA-git/LUFA/Drivers/USB/Core/../../../Common/Common.h **** 			 *
 159:/users/hunter/downloads/tmk_core/protocol/lufa/LUFA-git/LUFA/Drivers/USB/Core/../../../Common/Common.h **** 			 *  \param[in] x  First value to compare
 160:/users/hunter/downloads/tmk_core/protocol/lufa/LUFA-git/LUFA/Drivers/USB/Core/../../../Common/Common.h **** 			 *  \param[in] y  First value to compare
 161:/users/hunter/downloads/tmk_core/protocol/lufa/LUFA-git/LUFA/Drivers/USB/Core/../../../Common/Common.h **** 			 *
 162:/users/hunter/downloads/tmk_core/protocol/lufa/LUFA-git/LUFA/Drivers/USB/Core/../../../Common/Common.h **** 			 *  \return The larger of the two input parameters
 163:/users/hunter/downloads/tmk_core/protocol/lufa/LUFA-git/LUFA/Drivers/USB/Core/../../../Common/Common.h **** 			 */
 164:/users/hunter/downloads/tmk_core/protocol/lufa/LUFA-git/LUFA/Drivers/USB/Core/../../../Common/Common.h **** 			#if !defined(MAX) || defined(__DOXYGEN__)
 165:/users/hunter/downloads/tmk_core/protocol/lufa/LUFA-git/LUFA/Drivers/USB/Core/../../../Common/Common.h **** 				#define MAX(x, y)               (((x) > (y)) ? (x) : (y))
 166:/users/hunter/downloads/tmk_core/protocol/lufa/LUFA-git/LUFA/Drivers/USB/Core/../../../Common/Common.h **** 			#endif
 167:/users/hunter/downloads/tmk_core/protocol/lufa/LUFA-git/LUFA/Drivers/USB/Core/../../../Common/Common.h **** 
 168:/users/hunter/downloads/tmk_core/protocol/lufa/LUFA-git/LUFA/Drivers/USB/Core/../../../Common/Common.h **** 			/** Convenience macro to determine the smaller of two values.
 169:/users/hunter/downloads/tmk_core/protocol/lufa/LUFA-git/LUFA/Drivers/USB/Core/../../../Common/Common.h **** 			 *
 170:/users/hunter/downloads/tmk_core/protocol/lufa/LUFA-git/LUFA/Drivers/USB/Core/../../../Common/Common.h **** 			 *  \attention This macro should only be used with operands that do not have side effects from b
 171:/users/hunter/downloads/tmk_core/protocol/lufa/LUFA-git/LUFA/Drivers/USB/Core/../../../Common/Common.h **** 			 *             multiple times.
 172:/users/hunter/downloads/tmk_core/protocol/lufa/LUFA-git/LUFA/Drivers/USB/Core/../../../Common/Common.h **** 			 *
 173:/users/hunter/downloads/tmk_core/protocol/lufa/LUFA-git/LUFA/Drivers/USB/Core/../../../Common/Common.h **** 			 *  \param[in] x  First value to compare.
 174:/users/hunter/downloads/tmk_core/protocol/lufa/LUFA-git/LUFA/Drivers/USB/Core/../../../Common/Common.h **** 			 *  \param[in] y  First value to compare.
 175:/users/hunter/downloads/tmk_core/protocol/lufa/LUFA-git/LUFA/Drivers/USB/Core/../../../Common/Common.h **** 			 *
 176:/users/hunter/downloads/tmk_core/protocol/lufa/LUFA-git/LUFA/Drivers/USB/Core/../../../Common/Common.h **** 			 *  \return The smaller of the two input parameters
 177:/users/hunter/downloads/tmk_core/protocol/lufa/LUFA-git/LUFA/Drivers/USB/Core/../../../Common/Common.h **** 			 */
 178:/users/hunter/downloads/tmk_core/protocol/lufa/LUFA-git/LUFA/Drivers/USB/Core/../../../Common/Common.h **** 			#if !defined(MIN) || defined(__DOXYGEN__)
 179:/users/hunter/downloads/tmk_core/protocol/lufa/LUFA-git/LUFA/Drivers/USB/Core/../../../Common/Common.h **** 				#define MIN(x, y)               (((x) < (y)) ? (x) : (y))
 180:/users/hunter/downloads/tmk_core/protocol/lufa/LUFA-git/LUFA/Drivers/USB/Core/../../../Common/Common.h **** 			#endif
 181:/users/hunter/downloads/tmk_core/protocol/lufa/LUFA-git/LUFA/Drivers/USB/Core/../../../Common/Common.h **** 
 182:/users/hunter/downloads/tmk_core/protocol/lufa/LUFA-git/LUFA/Drivers/USB/Core/../../../Common/Common.h **** 			#if !defined(STRINGIFY) || defined(__DOXYGEN__)
 183:/users/hunter/downloads/tmk_core/protocol/lufa/LUFA-git/LUFA/Drivers/USB/Core/../../../Common/Common.h **** 				/** Converts the given input into a string, via the C Preprocessor. This macro puts literal quo
 184:/users/hunter/downloads/tmk_core/protocol/lufa/LUFA-git/LUFA/Drivers/USB/Core/../../../Common/Common.h **** 				 *  marks around the input, converting the source into a string literal.
 185:/users/hunter/downloads/tmk_core/protocol/lufa/LUFA-git/LUFA/Drivers/USB/Core/../../../Common/Common.h **** 				 *
 186:/users/hunter/downloads/tmk_core/protocol/lufa/LUFA-git/LUFA/Drivers/USB/Core/../../../Common/Common.h **** 				 *  \param[in] x  Input to convert into a string literal.
 187:/users/hunter/downloads/tmk_core/protocol/lufa/LUFA-git/LUFA/Drivers/USB/Core/../../../Common/Common.h **** 				 *
 188:/users/hunter/downloads/tmk_core/protocol/lufa/LUFA-git/LUFA/Drivers/USB/Core/../../../Common/Common.h **** 				 *  \return String version of the input.
 189:/users/hunter/downloads/tmk_core/protocol/lufa/LUFA-git/LUFA/Drivers/USB/Core/../../../Common/Common.h **** 				 */
 190:/users/hunter/downloads/tmk_core/protocol/lufa/LUFA-git/LUFA/Drivers/USB/Core/../../../Common/Common.h **** 				#define STRINGIFY(x)            #x
 191:/users/hunter/downloads/tmk_core/protocol/lufa/LUFA-git/LUFA/Drivers/USB/Core/../../../Common/Common.h **** 
 192:/users/hunter/downloads/tmk_core/protocol/lufa/LUFA-git/LUFA/Drivers/USB/Core/../../../Common/Common.h **** 				/** Converts the given input into a string after macro expansion, via the C Preprocessor. This 
 193:/users/hunter/downloads/tmk_core/protocol/lufa/LUFA-git/LUFA/Drivers/USB/Core/../../../Common/Common.h **** 				 *  literal quotation marks around the expanded input, converting the source into a string lite
 194:/users/hunter/downloads/tmk_core/protocol/lufa/LUFA-git/LUFA/Drivers/USB/Core/../../../Common/Common.h **** 				 *
 195:/users/hunter/downloads/tmk_core/protocol/lufa/LUFA-git/LUFA/Drivers/USB/Core/../../../Common/Common.h **** 				 *  \param[in] x  Input to expand and convert into a string literal.
 196:/users/hunter/downloads/tmk_core/protocol/lufa/LUFA-git/LUFA/Drivers/USB/Core/../../../Common/Common.h **** 				 *
 197:/users/hunter/downloads/tmk_core/protocol/lufa/LUFA-git/LUFA/Drivers/USB/Core/../../../Common/Common.h **** 				 *  \return String version of the expanded input.
 198:/users/hunter/downloads/tmk_core/protocol/lufa/LUFA-git/LUFA/Drivers/USB/Core/../../../Common/Common.h **** 				 */
 199:/users/hunter/downloads/tmk_core/protocol/lufa/LUFA-git/LUFA/Drivers/USB/Core/../../../Common/Common.h **** 				#define STRINGIFY_EXPANDED(x)   STRINGIFY(x)
 200:/users/hunter/downloads/tmk_core/protocol/lufa/LUFA-git/LUFA/Drivers/USB/Core/../../../Common/Common.h **** 			#endif
 201:/users/hunter/downloads/tmk_core/protocol/lufa/LUFA-git/LUFA/Drivers/USB/Core/../../../Common/Common.h **** 
 202:/users/hunter/downloads/tmk_core/protocol/lufa/LUFA-git/LUFA/Drivers/USB/Core/../../../Common/Common.h **** 			#if !defined(CONCAT) || defined(__DOXYGEN__)
 203:/users/hunter/downloads/tmk_core/protocol/lufa/LUFA-git/LUFA/Drivers/USB/Core/../../../Common/Common.h **** 				/** Concatenates the given input into a single token, via the C Preprocessor.
 204:/users/hunter/downloads/tmk_core/protocol/lufa/LUFA-git/LUFA/Drivers/USB/Core/../../../Common/Common.h **** 				 *
 205:/users/hunter/downloads/tmk_core/protocol/lufa/LUFA-git/LUFA/Drivers/USB/Core/../../../Common/Common.h **** 				 *  \param[in] x  First item to concatenate.
 206:/users/hunter/downloads/tmk_core/protocol/lufa/LUFA-git/LUFA/Drivers/USB/Core/../../../Common/Common.h **** 				 *  \param[in] y  Second item to concatenate.
 207:/users/hunter/downloads/tmk_core/protocol/lufa/LUFA-git/LUFA/Drivers/USB/Core/../../../Common/Common.h **** 				 *
 208:/users/hunter/downloads/tmk_core/protocol/lufa/LUFA-git/LUFA/Drivers/USB/Core/../../../Common/Common.h **** 				 *  \return Concatenated version of the input.
 209:/users/hunter/downloads/tmk_core/protocol/lufa/LUFA-git/LUFA/Drivers/USB/Core/../../../Common/Common.h **** 				 */
 210:/users/hunter/downloads/tmk_core/protocol/lufa/LUFA-git/LUFA/Drivers/USB/Core/../../../Common/Common.h **** 				#define CONCAT(x, y)            x ## y
 211:/users/hunter/downloads/tmk_core/protocol/lufa/LUFA-git/LUFA/Drivers/USB/Core/../../../Common/Common.h **** 
 212:/users/hunter/downloads/tmk_core/protocol/lufa/LUFA-git/LUFA/Drivers/USB/Core/../../../Common/Common.h **** 				/** CConcatenates the given input into a single token after macro expansion, via the C Preproce
 213:/users/hunter/downloads/tmk_core/protocol/lufa/LUFA-git/LUFA/Drivers/USB/Core/../../../Common/Common.h **** 				 *
 214:/users/hunter/downloads/tmk_core/protocol/lufa/LUFA-git/LUFA/Drivers/USB/Core/../../../Common/Common.h **** 				 *  \param[in] x  First item to concatenate.
 215:/users/hunter/downloads/tmk_core/protocol/lufa/LUFA-git/LUFA/Drivers/USB/Core/../../../Common/Common.h **** 				 *  \param[in] y  Second item to concatenate.
 216:/users/hunter/downloads/tmk_core/protocol/lufa/LUFA-git/LUFA/Drivers/USB/Core/../../../Common/Common.h **** 				 *
 217:/users/hunter/downloads/tmk_core/protocol/lufa/LUFA-git/LUFA/Drivers/USB/Core/../../../Common/Common.h **** 				 *  \return Concatenated version of the expanded input.
 218:/users/hunter/downloads/tmk_core/protocol/lufa/LUFA-git/LUFA/Drivers/USB/Core/../../../Common/Common.h **** 				 */
 219:/users/hunter/downloads/tmk_core/protocol/lufa/LUFA-git/LUFA/Drivers/USB/Core/../../../Common/Common.h **** 				#define CONCAT_EXPANDED(x, y)   CONCAT(x, y)
 220:/users/hunter/downloads/tmk_core/protocol/lufa/LUFA-git/LUFA/Drivers/USB/Core/../../../Common/Common.h **** 			#endif
 221:/users/hunter/downloads/tmk_core/protocol/lufa/LUFA-git/LUFA/Drivers/USB/Core/../../../Common/Common.h **** 
 222:/users/hunter/downloads/tmk_core/protocol/lufa/LUFA-git/LUFA/Drivers/USB/Core/../../../Common/Common.h **** 			#if !defined(ISR) || defined(__DOXYGEN__)
 223:/users/hunter/downloads/tmk_core/protocol/lufa/LUFA-git/LUFA/Drivers/USB/Core/../../../Common/Common.h **** 				/** Macro for the definition of interrupt service routines, so that the compiler can insert the
 224:/users/hunter/downloads/tmk_core/protocol/lufa/LUFA-git/LUFA/Drivers/USB/Core/../../../Common/Common.h **** 				 *  prologue and epilogue code to properly manage the interrupt routine without affecting the m
 225:/users/hunter/downloads/tmk_core/protocol/lufa/LUFA-git/LUFA/Drivers/USB/Core/../../../Common/Common.h **** 				 *  state with unintentional side-effects.
 226:/users/hunter/downloads/tmk_core/protocol/lufa/LUFA-git/LUFA/Drivers/USB/Core/../../../Common/Common.h **** 				 *
 227:/users/hunter/downloads/tmk_core/protocol/lufa/LUFA-git/LUFA/Drivers/USB/Core/../../../Common/Common.h **** 				 *  Interrupt handlers written using this macro may still need to be registered with the microc
 228:/users/hunter/downloads/tmk_core/protocol/lufa/LUFA-git/LUFA/Drivers/USB/Core/../../../Common/Common.h **** 				 *  Interrupt Controller (if present) before they will properly handle incoming interrupt event
 229:/users/hunter/downloads/tmk_core/protocol/lufa/LUFA-git/LUFA/Drivers/USB/Core/../../../Common/Common.h **** 				 *
 230:/users/hunter/downloads/tmk_core/protocol/lufa/LUFA-git/LUFA/Drivers/USB/Core/../../../Common/Common.h **** 				 *  \note This macro is only supplied on some architectures, where the standard library does no
 231:/users/hunter/downloads/tmk_core/protocol/lufa/LUFA-git/LUFA/Drivers/USB/Core/../../../Common/Common.h **** 				 *        definition. If an existing definition exists, the alternative definition here will be
 232:/users/hunter/downloads/tmk_core/protocol/lufa/LUFA-git/LUFA/Drivers/USB/Core/../../../Common/Common.h **** 				 *
 233:/users/hunter/downloads/tmk_core/protocol/lufa/LUFA-git/LUFA/Drivers/USB/Core/../../../Common/Common.h **** 				 *  \ingroup Group_GlobalInt
 234:/users/hunter/downloads/tmk_core/protocol/lufa/LUFA-git/LUFA/Drivers/USB/Core/../../../Common/Common.h **** 				 *
 235:/users/hunter/downloads/tmk_core/protocol/lufa/LUFA-git/LUFA/Drivers/USB/Core/../../../Common/Common.h **** 				 *  \param[in] Name  Unique name of the interrupt service routine.
 236:/users/hunter/downloads/tmk_core/protocol/lufa/LUFA-git/LUFA/Drivers/USB/Core/../../../Common/Common.h **** 				 */
 237:/users/hunter/downloads/tmk_core/protocol/lufa/LUFA-git/LUFA/Drivers/USB/Core/../../../Common/Common.h **** 				#define ISR(Name, ...)          void Name (void) __attribute__((__interrupt__)) __VA_ARGS__; vo
 238:/users/hunter/downloads/tmk_core/protocol/lufa/LUFA-git/LUFA/Drivers/USB/Core/../../../Common/Common.h **** 			#endif
 239:/users/hunter/downloads/tmk_core/protocol/lufa/LUFA-git/LUFA/Drivers/USB/Core/../../../Common/Common.h **** 
 240:/users/hunter/downloads/tmk_core/protocol/lufa/LUFA-git/LUFA/Drivers/USB/Core/../../../Common/Common.h **** 		/* Inline Functions: */
 241:/users/hunter/downloads/tmk_core/protocol/lufa/LUFA-git/LUFA/Drivers/USB/Core/../../../Common/Common.h **** 			/** Function to reverse the individual bits in a byte - i.e. bit 7 is moved to bit 0, bit 6 to b
 242:/users/hunter/downloads/tmk_core/protocol/lufa/LUFA-git/LUFA/Drivers/USB/Core/../../../Common/Common.h **** 			 *  etc.
 243:/users/hunter/downloads/tmk_core/protocol/lufa/LUFA-git/LUFA/Drivers/USB/Core/../../../Common/Common.h **** 			 *
 244:/users/hunter/downloads/tmk_core/protocol/lufa/LUFA-git/LUFA/Drivers/USB/Core/../../../Common/Common.h **** 			 *  \param[in] Byte  Byte of data whose bits are to be reversed.
 245:/users/hunter/downloads/tmk_core/protocol/lufa/LUFA-git/LUFA/Drivers/USB/Core/../../../Common/Common.h **** 			 *
 246:/users/hunter/downloads/tmk_core/protocol/lufa/LUFA-git/LUFA/Drivers/USB/Core/../../../Common/Common.h **** 			 *  \return Input data with the individual bits reversed (mirrored).
 247:/users/hunter/downloads/tmk_core/protocol/lufa/LUFA-git/LUFA/Drivers/USB/Core/../../../Common/Common.h **** 			 */
 248:/users/hunter/downloads/tmk_core/protocol/lufa/LUFA-git/LUFA/Drivers/USB/Core/../../../Common/Common.h **** 			static inline uint8_t BitReverse(uint8_t Byte) ATTR_WARN_UNUSED_RESULT ATTR_CONST;
 249:/users/hunter/downloads/tmk_core/protocol/lufa/LUFA-git/LUFA/Drivers/USB/Core/../../../Common/Common.h **** 			static inline uint8_t BitReverse(uint8_t Byte)
 250:/users/hunter/downloads/tmk_core/protocol/lufa/LUFA-git/LUFA/Drivers/USB/Core/../../../Common/Common.h **** 			{
 251:/users/hunter/downloads/tmk_core/protocol/lufa/LUFA-git/LUFA/Drivers/USB/Core/../../../Common/Common.h **** 				Byte = (((Byte & 0xF0) >> 4) | ((Byte & 0x0F) << 4));
 252:/users/hunter/downloads/tmk_core/protocol/lufa/LUFA-git/LUFA/Drivers/USB/Core/../../../Common/Common.h **** 				Byte = (((Byte & 0xCC) >> 2) | ((Byte & 0x33) << 2));
 253:/users/hunter/downloads/tmk_core/protocol/lufa/LUFA-git/LUFA/Drivers/USB/Core/../../../Common/Common.h **** 				Byte = (((Byte & 0xAA) >> 1) | ((Byte & 0x55) << 1));
 254:/users/hunter/downloads/tmk_core/protocol/lufa/LUFA-git/LUFA/Drivers/USB/Core/../../../Common/Common.h **** 
 255:/users/hunter/downloads/tmk_core/protocol/lufa/LUFA-git/LUFA/Drivers/USB/Core/../../../Common/Common.h **** 				return Byte;
 256:/users/hunter/downloads/tmk_core/protocol/lufa/LUFA-git/LUFA/Drivers/USB/Core/../../../Common/Common.h **** 			}
 257:/users/hunter/downloads/tmk_core/protocol/lufa/LUFA-git/LUFA/Drivers/USB/Core/../../../Common/Common.h **** 
 258:/users/hunter/downloads/tmk_core/protocol/lufa/LUFA-git/LUFA/Drivers/USB/Core/../../../Common/Common.h **** 			/** Function to perform a blocking delay for a specified number of milliseconds. The actual dela
 259:/users/hunter/downloads/tmk_core/protocol/lufa/LUFA-git/LUFA/Drivers/USB/Core/../../../Common/Common.h **** 			 *  at a minimum the specified number of milliseconds, however due to loop overhead and internal
 260:/users/hunter/downloads/tmk_core/protocol/lufa/LUFA-git/LUFA/Drivers/USB/Core/../../../Common/Common.h **** 			 *  may be slightly higher.
 261:/users/hunter/downloads/tmk_core/protocol/lufa/LUFA-git/LUFA/Drivers/USB/Core/../../../Common/Common.h **** 			 *
 262:/users/hunter/downloads/tmk_core/protocol/lufa/LUFA-git/LUFA/Drivers/USB/Core/../../../Common/Common.h **** 			 *  \param[in] Milliseconds  Number of milliseconds to delay
 263:/users/hunter/downloads/tmk_core/protocol/lufa/LUFA-git/LUFA/Drivers/USB/Core/../../../Common/Common.h **** 			 */
 264:/users/hunter/downloads/tmk_core/protocol/lufa/LUFA-git/LUFA/Drivers/USB/Core/../../../Common/Common.h **** 			static inline void Delay_MS(uint16_t Milliseconds) ATTR_ALWAYS_INLINE;
 265:/users/hunter/downloads/tmk_core/protocol/lufa/LUFA-git/LUFA/Drivers/USB/Core/../../../Common/Common.h **** 			static inline void Delay_MS(uint16_t Milliseconds)
 266:/users/hunter/downloads/tmk_core/protocol/lufa/LUFA-git/LUFA/Drivers/USB/Core/../../../Common/Common.h **** 			{
 267:/users/hunter/downloads/tmk_core/protocol/lufa/LUFA-git/LUFA/Drivers/USB/Core/../../../Common/Common.h **** 				#if (ARCH == ARCH_AVR8)
 268:/users/hunter/downloads/tmk_core/protocol/lufa/LUFA-git/LUFA/Drivers/USB/Core/../../../Common/Common.h **** 				if (GCC_IS_COMPILE_CONST(Milliseconds))
 269:/users/hunter/downloads/tmk_core/protocol/lufa/LUFA-git/LUFA/Drivers/USB/Core/../../../Common/Common.h **** 				{
 270:/users/hunter/downloads/tmk_core/protocol/lufa/LUFA-git/LUFA/Drivers/USB/Core/../../../Common/Common.h **** 					_delay_ms(Milliseconds);
 271:/users/hunter/downloads/tmk_core/protocol/lufa/LUFA-git/LUFA/Drivers/USB/Core/../../../Common/Common.h **** 				}
 272:/users/hunter/downloads/tmk_core/protocol/lufa/LUFA-git/LUFA/Drivers/USB/Core/../../../Common/Common.h **** 				else
 273:/users/hunter/downloads/tmk_core/protocol/lufa/LUFA-git/LUFA/Drivers/USB/Core/../../../Common/Common.h **** 				{
 274:/users/hunter/downloads/tmk_core/protocol/lufa/LUFA-git/LUFA/Drivers/USB/Core/../../../Common/Common.h **** 					while (Milliseconds--)
 275:/users/hunter/downloads/tmk_core/protocol/lufa/LUFA-git/LUFA/Drivers/USB/Core/../../../Common/Common.h **** 					  _delay_ms(1);
 276:/users/hunter/downloads/tmk_core/protocol/lufa/LUFA-git/LUFA/Drivers/USB/Core/../../../Common/Common.h **** 				}
 277:/users/hunter/downloads/tmk_core/protocol/lufa/LUFA-git/LUFA/Drivers/USB/Core/../../../Common/Common.h **** 				#elif (ARCH == ARCH_UC3)
 278:/users/hunter/downloads/tmk_core/protocol/lufa/LUFA-git/LUFA/Drivers/USB/Core/../../../Common/Common.h **** 				while (Milliseconds--)
 279:/users/hunter/downloads/tmk_core/protocol/lufa/LUFA-git/LUFA/Drivers/USB/Core/../../../Common/Common.h **** 				{
 280:/users/hunter/downloads/tmk_core/protocol/lufa/LUFA-git/LUFA/Drivers/USB/Core/../../../Common/Common.h **** 					__builtin_mtsr(AVR32_COUNT, 0);
 281:/users/hunter/downloads/tmk_core/protocol/lufa/LUFA-git/LUFA/Drivers/USB/Core/../../../Common/Common.h **** 					while ((uint32_t)__builtin_mfsr(AVR32_COUNT) < (F_CPU / 1000));
 282:/users/hunter/downloads/tmk_core/protocol/lufa/LUFA-git/LUFA/Drivers/USB/Core/../../../Common/Common.h **** 				}
 283:/users/hunter/downloads/tmk_core/protocol/lufa/LUFA-git/LUFA/Drivers/USB/Core/../../../Common/Common.h **** 				#elif (ARCH == ARCH_XMEGA)
 284:/users/hunter/downloads/tmk_core/protocol/lufa/LUFA-git/LUFA/Drivers/USB/Core/../../../Common/Common.h **** 				if (GCC_IS_COMPILE_CONST(Milliseconds))
 285:/users/hunter/downloads/tmk_core/protocol/lufa/LUFA-git/LUFA/Drivers/USB/Core/../../../Common/Common.h **** 				{
 286:/users/hunter/downloads/tmk_core/protocol/lufa/LUFA-git/LUFA/Drivers/USB/Core/../../../Common/Common.h **** 					_delay_ms(Milliseconds);
 287:/users/hunter/downloads/tmk_core/protocol/lufa/LUFA-git/LUFA/Drivers/USB/Core/../../../Common/Common.h **** 				}
 288:/users/hunter/downloads/tmk_core/protocol/lufa/LUFA-git/LUFA/Drivers/USB/Core/../../../Common/Common.h **** 				else
 289:/users/hunter/downloads/tmk_core/protocol/lufa/LUFA-git/LUFA/Drivers/USB/Core/../../../Common/Common.h **** 				{
 290:/users/hunter/downloads/tmk_core/protocol/lufa/LUFA-git/LUFA/Drivers/USB/Core/../../../Common/Common.h **** 					while (Milliseconds--)
 291:/users/hunter/downloads/tmk_core/protocol/lufa/LUFA-git/LUFA/Drivers/USB/Core/../../../Common/Common.h **** 					  _delay_ms(1);
 292:/users/hunter/downloads/tmk_core/protocol/lufa/LUFA-git/LUFA/Drivers/USB/Core/../../../Common/Common.h **** 				}
 293:/users/hunter/downloads/tmk_core/protocol/lufa/LUFA-git/LUFA/Drivers/USB/Core/../../../Common/Common.h **** 				#endif
 294:/users/hunter/downloads/tmk_core/protocol/lufa/LUFA-git/LUFA/Drivers/USB/Core/../../../Common/Common.h **** 			}
 295:/users/hunter/downloads/tmk_core/protocol/lufa/LUFA-git/LUFA/Drivers/USB/Core/../../../Common/Common.h **** 
 296:/users/hunter/downloads/tmk_core/protocol/lufa/LUFA-git/LUFA/Drivers/USB/Core/../../../Common/Common.h **** 			/** Retrieves a mask which contains the current state of the global interrupts for the device. T
 297:/users/hunter/downloads/tmk_core/protocol/lufa/LUFA-git/LUFA/Drivers/USB/Core/../../../Common/Common.h **** 			 *  value can be stored before altering the global interrupt enable state, before restoring the
 298:/users/hunter/downloads/tmk_core/protocol/lufa/LUFA-git/LUFA/Drivers/USB/Core/../../../Common/Common.h **** 			 *  flag(s) back to their previous values after a critical section using \ref SetGlobalInterrupt
 299:/users/hunter/downloads/tmk_core/protocol/lufa/LUFA-git/LUFA/Drivers/USB/Core/../../../Common/Common.h **** 			 *
 300:/users/hunter/downloads/tmk_core/protocol/lufa/LUFA-git/LUFA/Drivers/USB/Core/../../../Common/Common.h **** 			 *  \ingroup Group_GlobalInt
 301:/users/hunter/downloads/tmk_core/protocol/lufa/LUFA-git/LUFA/Drivers/USB/Core/../../../Common/Common.h **** 			 *
 302:/users/hunter/downloads/tmk_core/protocol/lufa/LUFA-git/LUFA/Drivers/USB/Core/../../../Common/Common.h **** 			 *  \return  Mask containing the current Global Interrupt Enable Mask bit(s).
 303:/users/hunter/downloads/tmk_core/protocol/lufa/LUFA-git/LUFA/Drivers/USB/Core/../../../Common/Common.h **** 			 */
 304:/users/hunter/downloads/tmk_core/protocol/lufa/LUFA-git/LUFA/Drivers/USB/Core/../../../Common/Common.h **** 			static inline uint_reg_t GetGlobalInterruptMask(void) ATTR_ALWAYS_INLINE ATTR_WARN_UNUSED_RESULT
 305:/users/hunter/downloads/tmk_core/protocol/lufa/LUFA-git/LUFA/Drivers/USB/Core/../../../Common/Common.h **** 			static inline uint_reg_t GetGlobalInterruptMask(void)
 306:/users/hunter/downloads/tmk_core/protocol/lufa/LUFA-git/LUFA/Drivers/USB/Core/../../../Common/Common.h **** 			{
 307:/users/hunter/downloads/tmk_core/protocol/lufa/LUFA-git/LUFA/Drivers/USB/Core/../../../Common/Common.h **** 				GCC_MEMORY_BARRIER();
 483               		.loc 4 307 0
 308:/users/hunter/downloads/tmk_core/protocol/lufa/LUFA-git/LUFA/Drivers/USB/Core/../../../Common/Common.h **** 
 309:/users/hunter/downloads/tmk_core/protocol/lufa/LUFA-git/LUFA/Drivers/USB/Core/../../../Common/Common.h **** 				#if (ARCH == ARCH_AVR8)
 310:/users/hunter/downloads/tmk_core/protocol/lufa/LUFA-git/LUFA/Drivers/USB/Core/../../../Common/Common.h **** 				return SREG;
 484               		.loc 4 310 0
 485 01c4 4FB7      		in r20,__SREG__
 486               	.LBE243:
 487               	.LBE242:
 488               	.LBB244:
 489               	.LBB245:
 311:/users/hunter/downloads/tmk_core/protocol/lufa/LUFA-git/LUFA/Drivers/USB/Core/../../../Common/Common.h **** 				#elif (ARCH == ARCH_UC3)
 312:/users/hunter/downloads/tmk_core/protocol/lufa/LUFA-git/LUFA/Drivers/USB/Core/../../../Common/Common.h **** 				return __builtin_mfsr(AVR32_SR);
 313:/users/hunter/downloads/tmk_core/protocol/lufa/LUFA-git/LUFA/Drivers/USB/Core/../../../Common/Common.h **** 				#elif (ARCH == ARCH_XMEGA)
 314:/users/hunter/downloads/tmk_core/protocol/lufa/LUFA-git/LUFA/Drivers/USB/Core/../../../Common/Common.h **** 				return SREG;
 315:/users/hunter/downloads/tmk_core/protocol/lufa/LUFA-git/LUFA/Drivers/USB/Core/../../../Common/Common.h **** 				#endif
 316:/users/hunter/downloads/tmk_core/protocol/lufa/LUFA-git/LUFA/Drivers/USB/Core/../../../Common/Common.h **** 			}
 317:/users/hunter/downloads/tmk_core/protocol/lufa/LUFA-git/LUFA/Drivers/USB/Core/../../../Common/Common.h **** 
 318:/users/hunter/downloads/tmk_core/protocol/lufa/LUFA-git/LUFA/Drivers/USB/Core/../../../Common/Common.h **** 			/** Sets the global interrupt enable state of the microcontroller to the mask passed into the fu
 319:/users/hunter/downloads/tmk_core/protocol/lufa/LUFA-git/LUFA/Drivers/USB/Core/../../../Common/Common.h **** 			 *  This can be combined with \ref GetGlobalInterruptMask() to save and restore the Global Inter
 320:/users/hunter/downloads/tmk_core/protocol/lufa/LUFA-git/LUFA/Drivers/USB/Core/../../../Common/Common.h **** 			 *  Mask bit(s) of the device after a critical section has completed.
 321:/users/hunter/downloads/tmk_core/protocol/lufa/LUFA-git/LUFA/Drivers/USB/Core/../../../Common/Common.h **** 			 *
 322:/users/hunter/downloads/tmk_core/protocol/lufa/LUFA-git/LUFA/Drivers/USB/Core/../../../Common/Common.h **** 			 *  \ingroup Group_GlobalInt
 323:/users/hunter/downloads/tmk_core/protocol/lufa/LUFA-git/LUFA/Drivers/USB/Core/../../../Common/Common.h **** 			 *
 324:/users/hunter/downloads/tmk_core/protocol/lufa/LUFA-git/LUFA/Drivers/USB/Core/../../../Common/Common.h **** 			 *  \param[in] GlobalIntState  Global Interrupt Enable Mask value to use
 325:/users/hunter/downloads/tmk_core/protocol/lufa/LUFA-git/LUFA/Drivers/USB/Core/../../../Common/Common.h **** 			 */
 326:/users/hunter/downloads/tmk_core/protocol/lufa/LUFA-git/LUFA/Drivers/USB/Core/../../../Common/Common.h **** 			static inline void SetGlobalInterruptMask(const uint_reg_t GlobalIntState) ATTR_ALWAYS_INLINE;
