   1               		.file	"lufa.c"
   2               	__SP_H__ = 0x3e
   3               	__SP_L__ = 0x3d
   4               	__SREG__ = 0x3f
   5               	__tmp_reg__ = 0
   6               	__zero_reg__ = 1
   7               		.text
   8               	.Ltext0:
   9               		.cfi_sections	.debug_frame
  10               		.section	.text.keyboard_leds,"ax",@progbits
  12               	keyboard_leds:
  13               	.LFB117:
  14               		.file 1 "/users/hunter/downloads/tmk_core/protocol/lufa/lufa.c"
   1:/users/hunter/downloads/tmk_core/protocol/lufa/lufa.c **** /*
   2:/users/hunter/downloads/tmk_core/protocol/lufa/lufa.c ****  * Copyright 2012 Jun Wako <wakojun@gmail.com>
   3:/users/hunter/downloads/tmk_core/protocol/lufa/lufa.c ****  * This file is based on:
   4:/users/hunter/downloads/tmk_core/protocol/lufa/lufa.c ****  *     LUFA-120219/Demos/Device/Lowlevel/KeyboardMouse
   5:/users/hunter/downloads/tmk_core/protocol/lufa/lufa.c ****  *     LUFA-120219/Demos/Device/Lowlevel/GenericHID
   6:/users/hunter/downloads/tmk_core/protocol/lufa/lufa.c ****  */
   7:/users/hunter/downloads/tmk_core/protocol/lufa/lufa.c **** 
   8:/users/hunter/downloads/tmk_core/protocol/lufa/lufa.c **** /*
   9:/users/hunter/downloads/tmk_core/protocol/lufa/lufa.c ****              LUFA Library
  10:/users/hunter/downloads/tmk_core/protocol/lufa/lufa.c ****      Copyright (C) Dean Camera, 2012.
  11:/users/hunter/downloads/tmk_core/protocol/lufa/lufa.c **** 
  12:/users/hunter/downloads/tmk_core/protocol/lufa/lufa.c ****   dean [at] fourwalledcubicle [dot] com
  13:/users/hunter/downloads/tmk_core/protocol/lufa/lufa.c ****            www.lufa-lib.org
  14:/users/hunter/downloads/tmk_core/protocol/lufa/lufa.c **** */
  15:/users/hunter/downloads/tmk_core/protocol/lufa/lufa.c **** 
  16:/users/hunter/downloads/tmk_core/protocol/lufa/lufa.c **** /*
  17:/users/hunter/downloads/tmk_core/protocol/lufa/lufa.c ****   Copyright 2012  Dean Camera (dean [at] fourwalledcubicle [dot] com)
  18:/users/hunter/downloads/tmk_core/protocol/lufa/lufa.c ****   Copyright 2010  Denver Gingerich (denver [at] ossguy [dot] com)
  19:/users/hunter/downloads/tmk_core/protocol/lufa/lufa.c **** 
  20:/users/hunter/downloads/tmk_core/protocol/lufa/lufa.c ****   Permission to use, copy, modify, distribute, and sell this
  21:/users/hunter/downloads/tmk_core/protocol/lufa/lufa.c ****   software and its documentation for any purpose is hereby granted
  22:/users/hunter/downloads/tmk_core/protocol/lufa/lufa.c ****   without fee, provided that the above copyright notice appear in
  23:/users/hunter/downloads/tmk_core/protocol/lufa/lufa.c ****   all copies and that both that the copyright notice and this
  24:/users/hunter/downloads/tmk_core/protocol/lufa/lufa.c ****   permission notice and warranty disclaimer appear in supporting
  25:/users/hunter/downloads/tmk_core/protocol/lufa/lufa.c ****   documentation, and that the name of the author not be used in
  26:/users/hunter/downloads/tmk_core/protocol/lufa/lufa.c ****   advertising or publicity pertaining to distribution of the
  27:/users/hunter/downloads/tmk_core/protocol/lufa/lufa.c ****   software without specific, written prior permission.
  28:/users/hunter/downloads/tmk_core/protocol/lufa/lufa.c **** 
  29:/users/hunter/downloads/tmk_core/protocol/lufa/lufa.c ****   The author disclaim all warranties with regard to this
  30:/users/hunter/downloads/tmk_core/protocol/lufa/lufa.c ****   software, including all implied warranties of merchantability
  31:/users/hunter/downloads/tmk_core/protocol/lufa/lufa.c ****   and fitness.  In no event shall the author be liable for any
  32:/users/hunter/downloads/tmk_core/protocol/lufa/lufa.c ****   special, indirect or consequential damages or any damages
  33:/users/hunter/downloads/tmk_core/protocol/lufa/lufa.c ****   whatsoever resulting from loss of use, data or profits, whether
  34:/users/hunter/downloads/tmk_core/protocol/lufa/lufa.c ****   in an action of contract, negligence or other tortious action,
  35:/users/hunter/downloads/tmk_core/protocol/lufa/lufa.c ****   arising out of or in connection with the use or performance of
  36:/users/hunter/downloads/tmk_core/protocol/lufa/lufa.c ****   this software.
  37:/users/hunter/downloads/tmk_core/protocol/lufa/lufa.c **** */
  38:/users/hunter/downloads/tmk_core/protocol/lufa/lufa.c **** 
  39:/users/hunter/downloads/tmk_core/protocol/lufa/lufa.c **** #include "report.h"
  40:/users/hunter/downloads/tmk_core/protocol/lufa/lufa.c **** #include "host.h"
  41:/users/hunter/downloads/tmk_core/protocol/lufa/lufa.c **** #include "host_driver.h"
  42:/users/hunter/downloads/tmk_core/protocol/lufa/lufa.c **** #include "keyboard.h"
  43:/users/hunter/downloads/tmk_core/protocol/lufa/lufa.c **** #include "action.h"
  44:/users/hunter/downloads/tmk_core/protocol/lufa/lufa.c **** #include "led.h"
  45:/users/hunter/downloads/tmk_core/protocol/lufa/lufa.c **** #include "sendchar.h"
  46:/users/hunter/downloads/tmk_core/protocol/lufa/lufa.c **** #include "debug.h"
  47:/users/hunter/downloads/tmk_core/protocol/lufa/lufa.c **** #ifdef SLEEP_LED_ENABLE
  48:/users/hunter/downloads/tmk_core/protocol/lufa/lufa.c **** #include "sleep_led.h"
  49:/users/hunter/downloads/tmk_core/protocol/lufa/lufa.c **** #endif
  50:/users/hunter/downloads/tmk_core/protocol/lufa/lufa.c **** #include "suspend.h"
  51:/users/hunter/downloads/tmk_core/protocol/lufa/lufa.c **** #include "hook.h"
  52:/users/hunter/downloads/tmk_core/protocol/lufa/lufa.c **** 
  53:/users/hunter/downloads/tmk_core/protocol/lufa/lufa.c **** #ifdef LUFA_DEBUG_SUART
  54:/users/hunter/downloads/tmk_core/protocol/lufa/lufa.c **** #include "avr/suart.h"
  55:/users/hunter/downloads/tmk_core/protocol/lufa/lufa.c **** #endif
  56:/users/hunter/downloads/tmk_core/protocol/lufa/lufa.c **** 
  57:/users/hunter/downloads/tmk_core/protocol/lufa/lufa.c **** #include "matrix.h"
  58:/users/hunter/downloads/tmk_core/protocol/lufa/lufa.c **** #include "descriptor.h"
  59:/users/hunter/downloads/tmk_core/protocol/lufa/lufa.c **** #include "lufa.h"
  60:/users/hunter/downloads/tmk_core/protocol/lufa/lufa.c **** 
  61:/users/hunter/downloads/tmk_core/protocol/lufa/lufa.c **** 
  62:/users/hunter/downloads/tmk_core/protocol/lufa/lufa.c **** //#define LUFA_DEBUG
  63:/users/hunter/downloads/tmk_core/protocol/lufa/lufa.c **** 
  64:/users/hunter/downloads/tmk_core/protocol/lufa/lufa.c **** 
  65:/users/hunter/downloads/tmk_core/protocol/lufa/lufa.c **** uint8_t keyboard_idle = 0;
  66:/users/hunter/downloads/tmk_core/protocol/lufa/lufa.c **** /* 0: Boot Protocol, 1: Report Protocol(default) */
  67:/users/hunter/downloads/tmk_core/protocol/lufa/lufa.c **** uint8_t keyboard_protocol = 1;
  68:/users/hunter/downloads/tmk_core/protocol/lufa/lufa.c **** static uint8_t keyboard_led_stats = 0;
  69:/users/hunter/downloads/tmk_core/protocol/lufa/lufa.c **** 
  70:/users/hunter/downloads/tmk_core/protocol/lufa/lufa.c **** static report_keyboard_t keyboard_report_sent;
  71:/users/hunter/downloads/tmk_core/protocol/lufa/lufa.c **** 
  72:/users/hunter/downloads/tmk_core/protocol/lufa/lufa.c **** 
  73:/users/hunter/downloads/tmk_core/protocol/lufa/lufa.c **** /* Host driver */
  74:/users/hunter/downloads/tmk_core/protocol/lufa/lufa.c **** static uint8_t keyboard_leds(void);
  75:/users/hunter/downloads/tmk_core/protocol/lufa/lufa.c **** static void send_keyboard(report_keyboard_t *report);
  76:/users/hunter/downloads/tmk_core/protocol/lufa/lufa.c **** static void send_mouse(report_mouse_t *report);
  77:/users/hunter/downloads/tmk_core/protocol/lufa/lufa.c **** static void send_system(uint16_t data);
  78:/users/hunter/downloads/tmk_core/protocol/lufa/lufa.c **** static void send_consumer(uint16_t data);
  79:/users/hunter/downloads/tmk_core/protocol/lufa/lufa.c **** host_driver_t lufa_driver = {
  80:/users/hunter/downloads/tmk_core/protocol/lufa/lufa.c ****     keyboard_leds,
  81:/users/hunter/downloads/tmk_core/protocol/lufa/lufa.c ****     send_keyboard,
  82:/users/hunter/downloads/tmk_core/protocol/lufa/lufa.c ****     send_mouse,
  83:/users/hunter/downloads/tmk_core/protocol/lufa/lufa.c ****     send_system,
  84:/users/hunter/downloads/tmk_core/protocol/lufa/lufa.c ****     send_consumer
  85:/users/hunter/downloads/tmk_core/protocol/lufa/lufa.c **** };
  86:/users/hunter/downloads/tmk_core/protocol/lufa/lufa.c **** 
  87:/users/hunter/downloads/tmk_core/protocol/lufa/lufa.c **** 
  88:/users/hunter/downloads/tmk_core/protocol/lufa/lufa.c **** /*******************************************************************************
  89:/users/hunter/downloads/tmk_core/protocol/lufa/lufa.c ****  * Console
  90:/users/hunter/downloads/tmk_core/protocol/lufa/lufa.c ****  ******************************************************************************/
  91:/users/hunter/downloads/tmk_core/protocol/lufa/lufa.c **** #ifdef CONSOLE_ENABLE
  92:/users/hunter/downloads/tmk_core/protocol/lufa/lufa.c **** static void Console_Task(void)
  93:/users/hunter/downloads/tmk_core/protocol/lufa/lufa.c **** {
  94:/users/hunter/downloads/tmk_core/protocol/lufa/lufa.c ****     /* Device must be connected and configured for the task to run */
  95:/users/hunter/downloads/tmk_core/protocol/lufa/lufa.c ****     if (USB_DeviceState != DEVICE_STATE_Configured)
  96:/users/hunter/downloads/tmk_core/protocol/lufa/lufa.c ****         return;
  97:/users/hunter/downloads/tmk_core/protocol/lufa/lufa.c **** 
  98:/users/hunter/downloads/tmk_core/protocol/lufa/lufa.c ****     uint8_t ep = Endpoint_GetCurrentEndpoint();
  99:/users/hunter/downloads/tmk_core/protocol/lufa/lufa.c **** 
 100:/users/hunter/downloads/tmk_core/protocol/lufa/lufa.c **** #if 0
 101:/users/hunter/downloads/tmk_core/protocol/lufa/lufa.c ****     // TODO: impl receivechar()/recvchar()
 102:/users/hunter/downloads/tmk_core/protocol/lufa/lufa.c ****     Endpoint_SelectEndpoint(CONSOLE_OUT_EPNUM);
 103:/users/hunter/downloads/tmk_core/protocol/lufa/lufa.c **** 
 104:/users/hunter/downloads/tmk_core/protocol/lufa/lufa.c ****     /* Check to see if a packet has been sent from the host */
 105:/users/hunter/downloads/tmk_core/protocol/lufa/lufa.c ****     if (Endpoint_IsOUTReceived())
 106:/users/hunter/downloads/tmk_core/protocol/lufa/lufa.c ****     {
 107:/users/hunter/downloads/tmk_core/protocol/lufa/lufa.c ****         /* Check to see if the packet contains data */
 108:/users/hunter/downloads/tmk_core/protocol/lufa/lufa.c ****         if (Endpoint_IsReadWriteAllowed())
 109:/users/hunter/downloads/tmk_core/protocol/lufa/lufa.c ****         {
 110:/users/hunter/downloads/tmk_core/protocol/lufa/lufa.c ****             /* Create a temporary buffer to hold the read in report from the host */
 111:/users/hunter/downloads/tmk_core/protocol/lufa/lufa.c ****             uint8_t ConsoleData[CONSOLE_EPSIZE];
 112:/users/hunter/downloads/tmk_core/protocol/lufa/lufa.c **** 
 113:/users/hunter/downloads/tmk_core/protocol/lufa/lufa.c ****             /* Read Console Report Data */
 114:/users/hunter/downloads/tmk_core/protocol/lufa/lufa.c ****             Endpoint_Read_Stream_LE(&ConsoleData, sizeof(ConsoleData), NULL);
 115:/users/hunter/downloads/tmk_core/protocol/lufa/lufa.c **** 
 116:/users/hunter/downloads/tmk_core/protocol/lufa/lufa.c ****             /* Process Console Report Data */
 117:/users/hunter/downloads/tmk_core/protocol/lufa/lufa.c ****             //ProcessConsoleHIDReport(ConsoleData);
 118:/users/hunter/downloads/tmk_core/protocol/lufa/lufa.c ****         }
 119:/users/hunter/downloads/tmk_core/protocol/lufa/lufa.c **** 
 120:/users/hunter/downloads/tmk_core/protocol/lufa/lufa.c ****         /* Finalize the stream transfer to send the last packet */
 121:/users/hunter/downloads/tmk_core/protocol/lufa/lufa.c ****         Endpoint_ClearOUT();
 122:/users/hunter/downloads/tmk_core/protocol/lufa/lufa.c ****     }
 123:/users/hunter/downloads/tmk_core/protocol/lufa/lufa.c **** #endif
 124:/users/hunter/downloads/tmk_core/protocol/lufa/lufa.c **** 
 125:/users/hunter/downloads/tmk_core/protocol/lufa/lufa.c ****     /* IN packet */
 126:/users/hunter/downloads/tmk_core/protocol/lufa/lufa.c ****     Endpoint_SelectEndpoint(CONSOLE_IN_EPNUM);
 127:/users/hunter/downloads/tmk_core/protocol/lufa/lufa.c ****     if (!Endpoint_IsEnabled() || !Endpoint_IsConfigured()) {
 128:/users/hunter/downloads/tmk_core/protocol/lufa/lufa.c ****         Endpoint_SelectEndpoint(ep);
 129:/users/hunter/downloads/tmk_core/protocol/lufa/lufa.c ****         return;
 130:/users/hunter/downloads/tmk_core/protocol/lufa/lufa.c ****     }
 131:/users/hunter/downloads/tmk_core/protocol/lufa/lufa.c **** 
 132:/users/hunter/downloads/tmk_core/protocol/lufa/lufa.c ****     // fill empty bank
 133:/users/hunter/downloads/tmk_core/protocol/lufa/lufa.c ****     while (Endpoint_IsReadWriteAllowed())
 134:/users/hunter/downloads/tmk_core/protocol/lufa/lufa.c ****         Endpoint_Write_8(0);
 135:/users/hunter/downloads/tmk_core/protocol/lufa/lufa.c **** 
 136:/users/hunter/downloads/tmk_core/protocol/lufa/lufa.c ****     // flash senchar packet
 137:/users/hunter/downloads/tmk_core/protocol/lufa/lufa.c ****     if (Endpoint_IsINReady()) {
 138:/users/hunter/downloads/tmk_core/protocol/lufa/lufa.c ****         Endpoint_ClearIN();
 139:/users/hunter/downloads/tmk_core/protocol/lufa/lufa.c ****     }
 140:/users/hunter/downloads/tmk_core/protocol/lufa/lufa.c **** 
 141:/users/hunter/downloads/tmk_core/protocol/lufa/lufa.c ****     Endpoint_SelectEndpoint(ep);
 142:/users/hunter/downloads/tmk_core/protocol/lufa/lufa.c **** }
 143:/users/hunter/downloads/tmk_core/protocol/lufa/lufa.c **** #else
 144:/users/hunter/downloads/tmk_core/protocol/lufa/lufa.c **** static void Console_Task(void)
 145:/users/hunter/downloads/tmk_core/protocol/lufa/lufa.c **** {
 146:/users/hunter/downloads/tmk_core/protocol/lufa/lufa.c **** }
 147:/users/hunter/downloads/tmk_core/protocol/lufa/lufa.c **** #endif
 148:/users/hunter/downloads/tmk_core/protocol/lufa/lufa.c **** 
 149:/users/hunter/downloads/tmk_core/protocol/lufa/lufa.c **** 
 150:/users/hunter/downloads/tmk_core/protocol/lufa/lufa.c **** /*******************************************************************************
 151:/users/hunter/downloads/tmk_core/protocol/lufa/lufa.c ****  * USB Events
 152:/users/hunter/downloads/tmk_core/protocol/lufa/lufa.c ****  ******************************************************************************/
 153:/users/hunter/downloads/tmk_core/protocol/lufa/lufa.c **** /*
 154:/users/hunter/downloads/tmk_core/protocol/lufa/lufa.c ****  * Event Order of Plug in:
 155:/users/hunter/downloads/tmk_core/protocol/lufa/lufa.c ****  * 0) EVENT_USB_Device_Connect
 156:/users/hunter/downloads/tmk_core/protocol/lufa/lufa.c ****  * 1) EVENT_USB_Device_Suspend
 157:/users/hunter/downloads/tmk_core/protocol/lufa/lufa.c ****  * 2) EVENT_USB_Device_Reset
 158:/users/hunter/downloads/tmk_core/protocol/lufa/lufa.c ****  * 3) EVENT_USB_Device_Wake
 159:/users/hunter/downloads/tmk_core/protocol/lufa/lufa.c **** */
 160:/users/hunter/downloads/tmk_core/protocol/lufa/lufa.c **** void EVENT_USB_Device_Connect(void)
 161:/users/hunter/downloads/tmk_core/protocol/lufa/lufa.c **** {
 162:/users/hunter/downloads/tmk_core/protocol/lufa/lufa.c ****     print("[C]");
 163:/users/hunter/downloads/tmk_core/protocol/lufa/lufa.c ****     /* For battery powered device */
 164:/users/hunter/downloads/tmk_core/protocol/lufa/lufa.c ****     if (!USB_IsInitialized) {
 165:/users/hunter/downloads/tmk_core/protocol/lufa/lufa.c ****         USB_Disable();
 166:/users/hunter/downloads/tmk_core/protocol/lufa/lufa.c ****         USB_Init();
 167:/users/hunter/downloads/tmk_core/protocol/lufa/lufa.c ****         USB_Device_EnableSOFEvents();
 168:/users/hunter/downloads/tmk_core/protocol/lufa/lufa.c ****     }
 169:/users/hunter/downloads/tmk_core/protocol/lufa/lufa.c **** }
 170:/users/hunter/downloads/tmk_core/protocol/lufa/lufa.c **** 
 171:/users/hunter/downloads/tmk_core/protocol/lufa/lufa.c **** void EVENT_USB_Device_Disconnect(void)
 172:/users/hunter/downloads/tmk_core/protocol/lufa/lufa.c **** {
 173:/users/hunter/downloads/tmk_core/protocol/lufa/lufa.c ****     print("[D]");
 174:/users/hunter/downloads/tmk_core/protocol/lufa/lufa.c ****     /* For battery powered device */
 175:/users/hunter/downloads/tmk_core/protocol/lufa/lufa.c ****     USB_IsInitialized = false;
 176:/users/hunter/downloads/tmk_core/protocol/lufa/lufa.c **** /* TODO: This doesn't work. After several plug in/outs can not be enumerated.
 177:/users/hunter/downloads/tmk_core/protocol/lufa/lufa.c ****     if (USB_IsInitialized) {
 178:/users/hunter/downloads/tmk_core/protocol/lufa/lufa.c ****         USB_Disable();  // Disable all interrupts
 179:/users/hunter/downloads/tmk_core/protocol/lufa/lufa.c **** 	USB_Controller_Enable();
 180:/users/hunter/downloads/tmk_core/protocol/lufa/lufa.c ****         USB_INT_Enable(USB_INT_VBUSTI);
 181:/users/hunter/downloads/tmk_core/protocol/lufa/lufa.c ****     }
 182:/users/hunter/downloads/tmk_core/protocol/lufa/lufa.c **** */
 183:/users/hunter/downloads/tmk_core/protocol/lufa/lufa.c **** }
 184:/users/hunter/downloads/tmk_core/protocol/lufa/lufa.c **** 
 185:/users/hunter/downloads/tmk_core/protocol/lufa/lufa.c **** void EVENT_USB_Device_Reset(void)
 186:/users/hunter/downloads/tmk_core/protocol/lufa/lufa.c **** {
 187:/users/hunter/downloads/tmk_core/protocol/lufa/lufa.c **** #ifdef LUFA_DEBUG
 188:/users/hunter/downloads/tmk_core/protocol/lufa/lufa.c ****     print("[R]");
 189:/users/hunter/downloads/tmk_core/protocol/lufa/lufa.c **** #endif
 190:/users/hunter/downloads/tmk_core/protocol/lufa/lufa.c **** }
 191:/users/hunter/downloads/tmk_core/protocol/lufa/lufa.c **** 
 192:/users/hunter/downloads/tmk_core/protocol/lufa/lufa.c **** void EVENT_USB_Device_Suspend()
 193:/users/hunter/downloads/tmk_core/protocol/lufa/lufa.c **** {
 194:/users/hunter/downloads/tmk_core/protocol/lufa/lufa.c **** #ifdef LUFA_DEBUG
 195:/users/hunter/downloads/tmk_core/protocol/lufa/lufa.c ****     print("[S]");
 196:/users/hunter/downloads/tmk_core/protocol/lufa/lufa.c **** #endif
 197:/users/hunter/downloads/tmk_core/protocol/lufa/lufa.c ****     hook_usb_suspend_entry();
 198:/users/hunter/downloads/tmk_core/protocol/lufa/lufa.c **** }
 199:/users/hunter/downloads/tmk_core/protocol/lufa/lufa.c **** 
 200:/users/hunter/downloads/tmk_core/protocol/lufa/lufa.c **** void EVENT_USB_Device_WakeUp()
 201:/users/hunter/downloads/tmk_core/protocol/lufa/lufa.c **** {
 202:/users/hunter/downloads/tmk_core/protocol/lufa/lufa.c **** #ifdef LUFA_DEBUG
 203:/users/hunter/downloads/tmk_core/protocol/lufa/lufa.c ****     print("[W]");
 204:/users/hunter/downloads/tmk_core/protocol/lufa/lufa.c **** #endif
 205:/users/hunter/downloads/tmk_core/protocol/lufa/lufa.c ****     hook_usb_wakeup();
 206:/users/hunter/downloads/tmk_core/protocol/lufa/lufa.c **** }
 207:/users/hunter/downloads/tmk_core/protocol/lufa/lufa.c **** 
 208:/users/hunter/downloads/tmk_core/protocol/lufa/lufa.c **** #ifdef CONSOLE_ENABLE
 209:/users/hunter/downloads/tmk_core/protocol/lufa/lufa.c **** static bool console_flush = false;
 210:/users/hunter/downloads/tmk_core/protocol/lufa/lufa.c **** #define CONSOLE_FLUSH_SET(b)   do { \
 211:/users/hunter/downloads/tmk_core/protocol/lufa/lufa.c ****     uint8_t sreg = SREG; cli(); console_flush = b; SREG = sreg; \
 212:/users/hunter/downloads/tmk_core/protocol/lufa/lufa.c **** } while (0)
 213:/users/hunter/downloads/tmk_core/protocol/lufa/lufa.c **** 
 214:/users/hunter/downloads/tmk_core/protocol/lufa/lufa.c **** // called every 1ms
 215:/users/hunter/downloads/tmk_core/protocol/lufa/lufa.c **** void EVENT_USB_Device_StartOfFrame(void)
 216:/users/hunter/downloads/tmk_core/protocol/lufa/lufa.c **** {
 217:/users/hunter/downloads/tmk_core/protocol/lufa/lufa.c ****     static uint8_t count;
 218:/users/hunter/downloads/tmk_core/protocol/lufa/lufa.c ****     if (++count % 50) return;
 219:/users/hunter/downloads/tmk_core/protocol/lufa/lufa.c ****     count = 0;
 220:/users/hunter/downloads/tmk_core/protocol/lufa/lufa.c **** 
 221:/users/hunter/downloads/tmk_core/protocol/lufa/lufa.c ****     if (!console_flush) return;
 222:/users/hunter/downloads/tmk_core/protocol/lufa/lufa.c ****     Console_Task();
 223:/users/hunter/downloads/tmk_core/protocol/lufa/lufa.c ****     console_flush = false;
 224:/users/hunter/downloads/tmk_core/protocol/lufa/lufa.c **** }
 225:/users/hunter/downloads/tmk_core/protocol/lufa/lufa.c **** #endif
 226:/users/hunter/downloads/tmk_core/protocol/lufa/lufa.c **** 
 227:/users/hunter/downloads/tmk_core/protocol/lufa/lufa.c **** /** Event handler for the USB_ConfigurationChanged event.
 228:/users/hunter/downloads/tmk_core/protocol/lufa/lufa.c ****  * This is fired when the host sets the current configuration of the USB device after enumeration.
 229:/users/hunter/downloads/tmk_core/protocol/lufa/lufa.c ****  *
 230:/users/hunter/downloads/tmk_core/protocol/lufa/lufa.c ****  * ATMega32u2 supports dual bank(ping-pong mode) only on endpoint 3 and 4,
 231:/users/hunter/downloads/tmk_core/protocol/lufa/lufa.c ****  * it is safe to use singl bank for all endpoints.
 232:/users/hunter/downloads/tmk_core/protocol/lufa/lufa.c ****  */
 233:/users/hunter/downloads/tmk_core/protocol/lufa/lufa.c **** void EVENT_USB_Device_ConfigurationChanged(void)
 234:/users/hunter/downloads/tmk_core/protocol/lufa/lufa.c **** {
 235:/users/hunter/downloads/tmk_core/protocol/lufa/lufa.c **** #ifdef LUFA_DEBUG
 236:/users/hunter/downloads/tmk_core/protocol/lufa/lufa.c ****     print("[c]");
 237:/users/hunter/downloads/tmk_core/protocol/lufa/lufa.c **** #endif
 238:/users/hunter/downloads/tmk_core/protocol/lufa/lufa.c ****     bool ConfigSuccess = true;
 239:/users/hunter/downloads/tmk_core/protocol/lufa/lufa.c **** 
 240:/users/hunter/downloads/tmk_core/protocol/lufa/lufa.c ****     /* Setup Keyboard HID Report Endpoints */
 241:/users/hunter/downloads/tmk_core/protocol/lufa/lufa.c ****     ConfigSuccess &= ENDPOINT_CONFIG(KEYBOARD_IN_EPNUM, EP_TYPE_INTERRUPT, ENDPOINT_DIR_IN,
 242:/users/hunter/downloads/tmk_core/protocol/lufa/lufa.c ****                                      KEYBOARD_EPSIZE, ENDPOINT_BANK_SINGLE);
 243:/users/hunter/downloads/tmk_core/protocol/lufa/lufa.c **** 
 244:/users/hunter/downloads/tmk_core/protocol/lufa/lufa.c **** #ifdef MOUSE_ENABLE
 245:/users/hunter/downloads/tmk_core/protocol/lufa/lufa.c ****     /* Setup Mouse HID Report Endpoint */
 246:/users/hunter/downloads/tmk_core/protocol/lufa/lufa.c ****     ConfigSuccess &= ENDPOINT_CONFIG(MOUSE_IN_EPNUM, EP_TYPE_INTERRUPT, ENDPOINT_DIR_IN,
 247:/users/hunter/downloads/tmk_core/protocol/lufa/lufa.c ****                                      MOUSE_EPSIZE, ENDPOINT_BANK_SINGLE);
 248:/users/hunter/downloads/tmk_core/protocol/lufa/lufa.c **** #endif
 249:/users/hunter/downloads/tmk_core/protocol/lufa/lufa.c **** 
 250:/users/hunter/downloads/tmk_core/protocol/lufa/lufa.c **** #ifdef EXTRAKEY_ENABLE
 251:/users/hunter/downloads/tmk_core/protocol/lufa/lufa.c ****     /* Setup Extra HID Report Endpoint */
 252:/users/hunter/downloads/tmk_core/protocol/lufa/lufa.c ****     ConfigSuccess &= ENDPOINT_CONFIG(EXTRAKEY_IN_EPNUM, EP_TYPE_INTERRUPT, ENDPOINT_DIR_IN,
 253:/users/hunter/downloads/tmk_core/protocol/lufa/lufa.c ****                                      EXTRAKEY_EPSIZE, ENDPOINT_BANK_SINGLE);
 254:/users/hunter/downloads/tmk_core/protocol/lufa/lufa.c **** #endif
 255:/users/hunter/downloads/tmk_core/protocol/lufa/lufa.c **** 
 256:/users/hunter/downloads/tmk_core/protocol/lufa/lufa.c **** #ifdef CONSOLE_ENABLE
 257:/users/hunter/downloads/tmk_core/protocol/lufa/lufa.c ****     /* Setup Console HID Report Endpoints */
 258:/users/hunter/downloads/tmk_core/protocol/lufa/lufa.c ****     ConfigSuccess &= ENDPOINT_CONFIG(CONSOLE_IN_EPNUM, EP_TYPE_INTERRUPT, ENDPOINT_DIR_IN,
 259:/users/hunter/downloads/tmk_core/protocol/lufa/lufa.c ****                                      CONSOLE_EPSIZE, ENDPOINT_BANK_SINGLE);
 260:/users/hunter/downloads/tmk_core/protocol/lufa/lufa.c **** #if 0
 261:/users/hunter/downloads/tmk_core/protocol/lufa/lufa.c ****     ConfigSuccess &= ENDPOINT_CONFIG(CONSOLE_OUT_EPNUM, EP_TYPE_INTERRUPT, ENDPOINT_DIR_OUT,
 262:/users/hunter/downloads/tmk_core/protocol/lufa/lufa.c ****                                      CONSOLE_EPSIZE, ENDPOINT_BANK_SINGLE);
 263:/users/hunter/downloads/tmk_core/protocol/lufa/lufa.c **** #endif
 264:/users/hunter/downloads/tmk_core/protocol/lufa/lufa.c **** #endif
 265:/users/hunter/downloads/tmk_core/protocol/lufa/lufa.c **** 
 266:/users/hunter/downloads/tmk_core/protocol/lufa/lufa.c **** #ifdef NKRO_ENABLE
 267:/users/hunter/downloads/tmk_core/protocol/lufa/lufa.c ****     /* Setup NKRO HID Report Endpoints */
 268:/users/hunter/downloads/tmk_core/protocol/lufa/lufa.c ****     ConfigSuccess &= ENDPOINT_CONFIG(NKRO_IN_EPNUM, EP_TYPE_INTERRUPT, ENDPOINT_DIR_IN,
 269:/users/hunter/downloads/tmk_core/protocol/lufa/lufa.c ****                                      NKRO_EPSIZE, ENDPOINT_BANK_SINGLE);
 270:/users/hunter/downloads/tmk_core/protocol/lufa/lufa.c **** #endif
 271:/users/hunter/downloads/tmk_core/protocol/lufa/lufa.c **** }
 272:/users/hunter/downloads/tmk_core/protocol/lufa/lufa.c **** 
 273:/users/hunter/downloads/tmk_core/protocol/lufa/lufa.c **** /*
 274:/users/hunter/downloads/tmk_core/protocol/lufa/lufa.c **** Appendix G: HID Request Support Requirements
 275:/users/hunter/downloads/tmk_core/protocol/lufa/lufa.c **** 
 276:/users/hunter/downloads/tmk_core/protocol/lufa/lufa.c **** The following table enumerates the requests that need to be supported by various types of HID class
 277:/users/hunter/downloads/tmk_core/protocol/lufa/lufa.c **** 
 278:/users/hunter/downloads/tmk_core/protocol/lufa/lufa.c **** Device type     GetReport   SetReport   GetIdle     SetIdle     GetProtocol SetProtocol
 279:/users/hunter/downloads/tmk_core/protocol/lufa/lufa.c **** ------------------------------------------------------------------------------------------
 280:/users/hunter/downloads/tmk_core/protocol/lufa/lufa.c **** Boot Mouse      Required    Optional    Optional    Optional    Required    Required
 281:/users/hunter/downloads/tmk_core/protocol/lufa/lufa.c **** Non-Boot Mouse  Required    Optional    Optional    Optional    Optional    Optional
 282:/users/hunter/downloads/tmk_core/protocol/lufa/lufa.c **** Boot Keyboard   Required    Optional    Required    Required    Required    Required
 283:/users/hunter/downloads/tmk_core/protocol/lufa/lufa.c **** Non-Boot Keybrd Required    Optional    Required    Required    Optional    Optional
 284:/users/hunter/downloads/tmk_core/protocol/lufa/lufa.c **** Other Device    Required    Optional    Optional    Optional    Optional    Optional
 285:/users/hunter/downloads/tmk_core/protocol/lufa/lufa.c **** */
 286:/users/hunter/downloads/tmk_core/protocol/lufa/lufa.c **** /** Event handler for the USB_ControlRequest event.
 287:/users/hunter/downloads/tmk_core/protocol/lufa/lufa.c ****  *  This is fired before passing along unhandled control requests to the library for processing int
 288:/users/hunter/downloads/tmk_core/protocol/lufa/lufa.c ****  */
 289:/users/hunter/downloads/tmk_core/protocol/lufa/lufa.c **** void EVENT_USB_Device_ControlRequest(void)
 290:/users/hunter/downloads/tmk_core/protocol/lufa/lufa.c **** {
 291:/users/hunter/downloads/tmk_core/protocol/lufa/lufa.c ****     uint8_t* ReportData = NULL;
 292:/users/hunter/downloads/tmk_core/protocol/lufa/lufa.c ****     uint8_t  ReportSize = 0;
 293:/users/hunter/downloads/tmk_core/protocol/lufa/lufa.c **** 
 294:/users/hunter/downloads/tmk_core/protocol/lufa/lufa.c ****     /* Handle HID Class specific requests */
 295:/users/hunter/downloads/tmk_core/protocol/lufa/lufa.c ****     switch (USB_ControlRequest.bRequest)
 296:/users/hunter/downloads/tmk_core/protocol/lufa/lufa.c ****     {
 297:/users/hunter/downloads/tmk_core/protocol/lufa/lufa.c ****         case HID_REQ_GetReport:
 298:/users/hunter/downloads/tmk_core/protocol/lufa/lufa.c ****             if (USB_ControlRequest.bmRequestType == (REQDIR_DEVICETOHOST | REQTYPE_CLASS | REQREC_I
 299:/users/hunter/downloads/tmk_core/protocol/lufa/lufa.c ****             {
 300:/users/hunter/downloads/tmk_core/protocol/lufa/lufa.c ****                 Endpoint_ClearSETUP();
 301:/users/hunter/downloads/tmk_core/protocol/lufa/lufa.c **** 
 302:/users/hunter/downloads/tmk_core/protocol/lufa/lufa.c ****                 // Interface
 303:/users/hunter/downloads/tmk_core/protocol/lufa/lufa.c ****                 switch (USB_ControlRequest.wIndex) {
 304:/users/hunter/downloads/tmk_core/protocol/lufa/lufa.c ****                 case KEYBOARD_INTERFACE:
 305:/users/hunter/downloads/tmk_core/protocol/lufa/lufa.c ****                     // TODO: test/check
 306:/users/hunter/downloads/tmk_core/protocol/lufa/lufa.c ****                     ReportData = (uint8_t*)&keyboard_report_sent;
 307:/users/hunter/downloads/tmk_core/protocol/lufa/lufa.c ****                     ReportSize = sizeof(keyboard_report_sent);
 308:/users/hunter/downloads/tmk_core/protocol/lufa/lufa.c ****                     break;
 309:/users/hunter/downloads/tmk_core/protocol/lufa/lufa.c ****                 }
 310:/users/hunter/downloads/tmk_core/protocol/lufa/lufa.c **** 
 311:/users/hunter/downloads/tmk_core/protocol/lufa/lufa.c ****                 /* Write the report data to the control endpoint */
 312:/users/hunter/downloads/tmk_core/protocol/lufa/lufa.c ****                 Endpoint_Write_Control_Stream_LE(ReportData, ReportSize);
 313:/users/hunter/downloads/tmk_core/protocol/lufa/lufa.c ****                 Endpoint_ClearOUT();
 314:/users/hunter/downloads/tmk_core/protocol/lufa/lufa.c **** #ifdef LUFA_DEBUG
 315:/users/hunter/downloads/tmk_core/protocol/lufa/lufa.c ****                 xprintf("[r%d]", USB_ControlRequest.wIndex);
 316:/users/hunter/downloads/tmk_core/protocol/lufa/lufa.c **** #endif
 317:/users/hunter/downloads/tmk_core/protocol/lufa/lufa.c ****             }
 318:/users/hunter/downloads/tmk_core/protocol/lufa/lufa.c **** 
 319:/users/hunter/downloads/tmk_core/protocol/lufa/lufa.c ****             break;
 320:/users/hunter/downloads/tmk_core/protocol/lufa/lufa.c ****         case HID_REQ_SetReport:
 321:/users/hunter/downloads/tmk_core/protocol/lufa/lufa.c ****             if (USB_ControlRequest.bmRequestType == (REQDIR_HOSTTODEVICE | REQTYPE_CLASS | REQREC_I
 322:/users/hunter/downloads/tmk_core/protocol/lufa/lufa.c ****             {
 323:/users/hunter/downloads/tmk_core/protocol/lufa/lufa.c **** 
 324:/users/hunter/downloads/tmk_core/protocol/lufa/lufa.c ****                 // Interface
 325:/users/hunter/downloads/tmk_core/protocol/lufa/lufa.c ****                 switch (USB_ControlRequest.wIndex) {
 326:/users/hunter/downloads/tmk_core/protocol/lufa/lufa.c ****                 case KEYBOARD_INTERFACE:
 327:/users/hunter/downloads/tmk_core/protocol/lufa/lufa.c **** #ifdef NKRO_ENABLE
 328:/users/hunter/downloads/tmk_core/protocol/lufa/lufa.c ****                 case NKRO_INTERFACE:
 329:/users/hunter/downloads/tmk_core/protocol/lufa/lufa.c **** #endif
 330:/users/hunter/downloads/tmk_core/protocol/lufa/lufa.c ****                     Endpoint_ClearSETUP();
 331:/users/hunter/downloads/tmk_core/protocol/lufa/lufa.c **** 
 332:/users/hunter/downloads/tmk_core/protocol/lufa/lufa.c ****                     while (!(Endpoint_IsOUTReceived())) {
 333:/users/hunter/downloads/tmk_core/protocol/lufa/lufa.c ****                         if (USB_DeviceState == DEVICE_STATE_Unattached)
 334:/users/hunter/downloads/tmk_core/protocol/lufa/lufa.c ****                           return;
 335:/users/hunter/downloads/tmk_core/protocol/lufa/lufa.c ****                     }
 336:/users/hunter/downloads/tmk_core/protocol/lufa/lufa.c ****                     keyboard_led_stats = Endpoint_Read_8();
 337:/users/hunter/downloads/tmk_core/protocol/lufa/lufa.c **** 
 338:/users/hunter/downloads/tmk_core/protocol/lufa/lufa.c ****                     Endpoint_ClearOUT();
 339:/users/hunter/downloads/tmk_core/protocol/lufa/lufa.c ****                     Endpoint_ClearStatusStage();
 340:/users/hunter/downloads/tmk_core/protocol/lufa/lufa.c **** #ifdef LUFA_DEBUG
 341:/users/hunter/downloads/tmk_core/protocol/lufa/lufa.c ****                     xprintf("[L%d]", USB_ControlRequest.wIndex);
 342:/users/hunter/downloads/tmk_core/protocol/lufa/lufa.c **** #endif
 343:/users/hunter/downloads/tmk_core/protocol/lufa/lufa.c ****                     break;
 344:/users/hunter/downloads/tmk_core/protocol/lufa/lufa.c ****                 }
 345:/users/hunter/downloads/tmk_core/protocol/lufa/lufa.c **** 
 346:/users/hunter/downloads/tmk_core/protocol/lufa/lufa.c ****             }
 347:/users/hunter/downloads/tmk_core/protocol/lufa/lufa.c **** 
 348:/users/hunter/downloads/tmk_core/protocol/lufa/lufa.c ****             break;
 349:/users/hunter/downloads/tmk_core/protocol/lufa/lufa.c **** 
 350:/users/hunter/downloads/tmk_core/protocol/lufa/lufa.c ****         case HID_REQ_GetProtocol:
 351:/users/hunter/downloads/tmk_core/protocol/lufa/lufa.c ****             if (USB_ControlRequest.bmRequestType == (REQDIR_DEVICETOHOST | REQTYPE_CLASS | REQREC_I
 352:/users/hunter/downloads/tmk_core/protocol/lufa/lufa.c ****             {
 353:/users/hunter/downloads/tmk_core/protocol/lufa/lufa.c ****                 if (USB_ControlRequest.wIndex == KEYBOARD_INTERFACE) {
 354:/users/hunter/downloads/tmk_core/protocol/lufa/lufa.c ****                     Endpoint_ClearSETUP();
 355:/users/hunter/downloads/tmk_core/protocol/lufa/lufa.c ****                     while (!(Endpoint_IsINReady()));
 356:/users/hunter/downloads/tmk_core/protocol/lufa/lufa.c ****                     Endpoint_Write_8(keyboard_protocol);
 357:/users/hunter/downloads/tmk_core/protocol/lufa/lufa.c ****                     Endpoint_ClearIN();
 358:/users/hunter/downloads/tmk_core/protocol/lufa/lufa.c ****                     Endpoint_ClearStatusStage();
 359:/users/hunter/downloads/tmk_core/protocol/lufa/lufa.c **** #ifdef LUFA_DEBUG
 360:/users/hunter/downloads/tmk_core/protocol/lufa/lufa.c ****                     print("[p]");
 361:/users/hunter/downloads/tmk_core/protocol/lufa/lufa.c **** #endif
 362:/users/hunter/downloads/tmk_core/protocol/lufa/lufa.c ****                 }
 363:/users/hunter/downloads/tmk_core/protocol/lufa/lufa.c ****             }
 364:/users/hunter/downloads/tmk_core/protocol/lufa/lufa.c **** 
 365:/users/hunter/downloads/tmk_core/protocol/lufa/lufa.c ****             break;
 366:/users/hunter/downloads/tmk_core/protocol/lufa/lufa.c ****         case HID_REQ_SetProtocol:
 367:/users/hunter/downloads/tmk_core/protocol/lufa/lufa.c ****             if (USB_ControlRequest.bmRequestType == (REQDIR_HOSTTODEVICE | REQTYPE_CLASS | REQREC_I
 368:/users/hunter/downloads/tmk_core/protocol/lufa/lufa.c ****             {
 369:/users/hunter/downloads/tmk_core/protocol/lufa/lufa.c ****                 if (USB_ControlRequest.wIndex == KEYBOARD_INTERFACE) {
 370:/users/hunter/downloads/tmk_core/protocol/lufa/lufa.c ****                     Endpoint_ClearSETUP();
 371:/users/hunter/downloads/tmk_core/protocol/lufa/lufa.c ****                     Endpoint_ClearStatusStage();
 372:/users/hunter/downloads/tmk_core/protocol/lufa/lufa.c **** 
 373:/users/hunter/downloads/tmk_core/protocol/lufa/lufa.c ****                     keyboard_protocol = (USB_ControlRequest.wValue & 0xFF);
 374:/users/hunter/downloads/tmk_core/protocol/lufa/lufa.c ****                     clear_keyboard();
 375:/users/hunter/downloads/tmk_core/protocol/lufa/lufa.c **** #ifdef LUFA_DEBUG
 376:/users/hunter/downloads/tmk_core/protocol/lufa/lufa.c ****                     print("[P]");
 377:/users/hunter/downloads/tmk_core/protocol/lufa/lufa.c **** #endif
 378:/users/hunter/downloads/tmk_core/protocol/lufa/lufa.c ****                 }
 379:/users/hunter/downloads/tmk_core/protocol/lufa/lufa.c ****             }
 380:/users/hunter/downloads/tmk_core/protocol/lufa/lufa.c **** 
 381:/users/hunter/downloads/tmk_core/protocol/lufa/lufa.c ****             break;
 382:/users/hunter/downloads/tmk_core/protocol/lufa/lufa.c ****         case HID_REQ_SetIdle:
 383:/users/hunter/downloads/tmk_core/protocol/lufa/lufa.c ****             if (USB_ControlRequest.bmRequestType == (REQDIR_HOSTTODEVICE | REQTYPE_CLASS | REQREC_I
 384:/users/hunter/downloads/tmk_core/protocol/lufa/lufa.c ****             {
 385:/users/hunter/downloads/tmk_core/protocol/lufa/lufa.c ****                 Endpoint_ClearSETUP();
 386:/users/hunter/downloads/tmk_core/protocol/lufa/lufa.c ****                 Endpoint_ClearStatusStage();
 387:/users/hunter/downloads/tmk_core/protocol/lufa/lufa.c **** 
 388:/users/hunter/downloads/tmk_core/protocol/lufa/lufa.c ****                 keyboard_idle = ((USB_ControlRequest.wValue & 0xFF00) >> 8);
 389:/users/hunter/downloads/tmk_core/protocol/lufa/lufa.c **** #ifdef LUFA_DEBUG
 390:/users/hunter/downloads/tmk_core/protocol/lufa/lufa.c ****                 xprintf("[I%d]%d", USB_ControlRequest.wIndex, (USB_ControlRequest.wValue & 0xFF00) 
 391:/users/hunter/downloads/tmk_core/protocol/lufa/lufa.c **** #endif
 392:/users/hunter/downloads/tmk_core/protocol/lufa/lufa.c ****             }
 393:/users/hunter/downloads/tmk_core/protocol/lufa/lufa.c **** 
 394:/users/hunter/downloads/tmk_core/protocol/lufa/lufa.c ****             break;
 395:/users/hunter/downloads/tmk_core/protocol/lufa/lufa.c ****         case HID_REQ_GetIdle:
 396:/users/hunter/downloads/tmk_core/protocol/lufa/lufa.c ****             if (USB_ControlRequest.bmRequestType == (REQDIR_DEVICETOHOST | REQTYPE_CLASS | REQREC_I
 397:/users/hunter/downloads/tmk_core/protocol/lufa/lufa.c ****             {
 398:/users/hunter/downloads/tmk_core/protocol/lufa/lufa.c ****                 Endpoint_ClearSETUP();
 399:/users/hunter/downloads/tmk_core/protocol/lufa/lufa.c ****                 while (!(Endpoint_IsINReady()));
 400:/users/hunter/downloads/tmk_core/protocol/lufa/lufa.c ****                 Endpoint_Write_8(keyboard_idle);
 401:/users/hunter/downloads/tmk_core/protocol/lufa/lufa.c ****                 Endpoint_ClearIN();
 402:/users/hunter/downloads/tmk_core/protocol/lufa/lufa.c ****                 Endpoint_ClearStatusStage();
 403:/users/hunter/downloads/tmk_core/protocol/lufa/lufa.c **** #ifdef LUFA_DEBUG
 404:/users/hunter/downloads/tmk_core/protocol/lufa/lufa.c ****                 print("[i]");
 405:/users/hunter/downloads/tmk_core/protocol/lufa/lufa.c **** #endif
 406:/users/hunter/downloads/tmk_core/protocol/lufa/lufa.c ****             }
 407:/users/hunter/downloads/tmk_core/protocol/lufa/lufa.c **** 
 408:/users/hunter/downloads/tmk_core/protocol/lufa/lufa.c ****             break;
 409:/users/hunter/downloads/tmk_core/protocol/lufa/lufa.c ****     }
 410:/users/hunter/downloads/tmk_core/protocol/lufa/lufa.c **** }
 411:/users/hunter/downloads/tmk_core/protocol/lufa/lufa.c **** 
 412:/users/hunter/downloads/tmk_core/protocol/lufa/lufa.c **** /*******************************************************************************
 413:/users/hunter/downloads/tmk_core/protocol/lufa/lufa.c ****  * Host driver
 414:/users/hunter/downloads/tmk_core/protocol/lufa/lufa.c ****  ******************************************************************************/
 415:/users/hunter/downloads/tmk_core/protocol/lufa/lufa.c **** static uint8_t keyboard_leds(void)
 416:/users/hunter/downloads/tmk_core/protocol/lufa/lufa.c **** {
  15               		.loc 1 416 0
  16               		.cfi_startproc
  17               	/* prologue: function */
  18               	/* frame size = 0 */
  19               	/* stack size = 0 */
  20               	.L__stack_usage = 0
 417:/users/hunter/downloads/tmk_core/protocol/lufa/lufa.c ****     return keyboard_led_stats;
 418:/users/hunter/downloads/tmk_core/protocol/lufa/lufa.c **** }
  21               		.loc 1 418 0
  22 0000 8091 0000 		lds r24,keyboard_led_stats
  23               	/* epilogue start */
  24 0004 0895      		ret
  25               		.cfi_endproc
  26               	.LFE117:
  28               		.section	.text.send_mouse,"ax",@progbits
  30               	send_mouse:
  31               	.LFB119:
 419:/users/hunter/downloads/tmk_core/protocol/lufa/lufa.c **** 
 420:/users/hunter/downloads/tmk_core/protocol/lufa/lufa.c **** static void send_keyboard(report_keyboard_t *report)
 421:/users/hunter/downloads/tmk_core/protocol/lufa/lufa.c **** {
 422:/users/hunter/downloads/tmk_core/protocol/lufa/lufa.c ****     uint8_t timeout = 255;
 423:/users/hunter/downloads/tmk_core/protocol/lufa/lufa.c **** 
 424:/users/hunter/downloads/tmk_core/protocol/lufa/lufa.c ****     if (USB_DeviceState != DEVICE_STATE_Configured)
 425:/users/hunter/downloads/tmk_core/protocol/lufa/lufa.c ****         return;
 426:/users/hunter/downloads/tmk_core/protocol/lufa/lufa.c **** 
 427:/users/hunter/downloads/tmk_core/protocol/lufa/lufa.c ****     /* Select the Keyboard Report Endpoint */
 428:/users/hunter/downloads/tmk_core/protocol/lufa/lufa.c **** #ifdef NKRO_ENABLE
 429:/users/hunter/downloads/tmk_core/protocol/lufa/lufa.c ****     if (keyboard_protocol && keyboard_nkro) {
 430:/users/hunter/downloads/tmk_core/protocol/lufa/lufa.c ****         /* Report protocol - NKRO */
 431:/users/hunter/downloads/tmk_core/protocol/lufa/lufa.c ****         Endpoint_SelectEndpoint(NKRO_IN_EPNUM);
 432:/users/hunter/downloads/tmk_core/protocol/lufa/lufa.c **** 
 433:/users/hunter/downloads/tmk_core/protocol/lufa/lufa.c ****         /* Check if write ready for a polling interval around 1ms */
 434:/users/hunter/downloads/tmk_core/protocol/lufa/lufa.c ****         while (timeout-- && !Endpoint_IsReadWriteAllowed()) _delay_us(4);
 435:/users/hunter/downloads/tmk_core/protocol/lufa/lufa.c ****         if (!Endpoint_IsReadWriteAllowed()) return;
 436:/users/hunter/downloads/tmk_core/protocol/lufa/lufa.c **** 
 437:/users/hunter/downloads/tmk_core/protocol/lufa/lufa.c ****         /* Write Keyboard Report Data */
 438:/users/hunter/downloads/tmk_core/protocol/lufa/lufa.c ****         Endpoint_Write_Stream_LE(report, NKRO_EPSIZE, NULL);
 439:/users/hunter/downloads/tmk_core/protocol/lufa/lufa.c ****     }
 440:/users/hunter/downloads/tmk_core/protocol/lufa/lufa.c ****     else
 441:/users/hunter/downloads/tmk_core/protocol/lufa/lufa.c **** #endif
 442:/users/hunter/downloads/tmk_core/protocol/lufa/lufa.c ****     {
 443:/users/hunter/downloads/tmk_core/protocol/lufa/lufa.c ****         /* Boot protocol */
 444:/users/hunter/downloads/tmk_core/protocol/lufa/lufa.c ****         Endpoint_SelectEndpoint(KEYBOARD_IN_EPNUM);
 445:/users/hunter/downloads/tmk_core/protocol/lufa/lufa.c **** 
 446:/users/hunter/downloads/tmk_core/protocol/lufa/lufa.c ****         /* Check if write ready for a polling interval around 10ms */
 447:/users/hunter/downloads/tmk_core/protocol/lufa/lufa.c ****         while (timeout-- && !Endpoint_IsReadWriteAllowed()) _delay_us(40);
 448:/users/hunter/downloads/tmk_core/protocol/lufa/lufa.c ****         if (!Endpoint_IsReadWriteAllowed()) return;
 449:/users/hunter/downloads/tmk_core/protocol/lufa/lufa.c **** 
 450:/users/hunter/downloads/tmk_core/protocol/lufa/lufa.c ****         /* Write Keyboard Report Data */
 451:/users/hunter/downloads/tmk_core/protocol/lufa/lufa.c ****         Endpoint_Write_Stream_LE(report, KEYBOARD_EPSIZE, NULL);
 452:/users/hunter/downloads/tmk_core/protocol/lufa/lufa.c ****     }
 453:/users/hunter/downloads/tmk_core/protocol/lufa/lufa.c **** 
 454:/users/hunter/downloads/tmk_core/protocol/lufa/lufa.c ****     /* Finalize the stream transfer to send the last packet */
 455:/users/hunter/downloads/tmk_core/protocol/lufa/lufa.c ****     Endpoint_ClearIN();
 456:/users/hunter/downloads/tmk_core/protocol/lufa/lufa.c **** 
 457:/users/hunter/downloads/tmk_core/protocol/lufa/lufa.c ****     keyboard_report_sent = *report;
 458:/users/hunter/downloads/tmk_core/protocol/lufa/lufa.c **** }
 459:/users/hunter/downloads/tmk_core/protocol/lufa/lufa.c **** 
 460:/users/hunter/downloads/tmk_core/protocol/lufa/lufa.c **** static void send_mouse(report_mouse_t *report)
 461:/users/hunter/downloads/tmk_core/protocol/lufa/lufa.c **** {
  32               		.loc 1 461 0
  33               		.cfi_startproc
  34               	.LVL0:
  35               	/* prologue: function */
  36               	/* frame size = 0 */
  37               	/* stack size = 0 */
  38               	.L__stack_usage = 0
  39               	/* epilogue start */
 462:/users/hunter/downloads/tmk_core/protocol/lufa/lufa.c **** #ifdef MOUSE_ENABLE
 463:/users/hunter/downloads/tmk_core/protocol/lufa/lufa.c ****     uint8_t timeout = 255;
 464:/users/hunter/downloads/tmk_core/protocol/lufa/lufa.c **** 
 465:/users/hunter/downloads/tmk_core/protocol/lufa/lufa.c ****     if (USB_DeviceState != DEVICE_STATE_Configured)
 466:/users/hunter/downloads/tmk_core/protocol/lufa/lufa.c ****         return;
 467:/users/hunter/downloads/tmk_core/protocol/lufa/lufa.c **** 
 468:/users/hunter/downloads/tmk_core/protocol/lufa/lufa.c ****     /* Select the Mouse Report Endpoint */
 469:/users/hunter/downloads/tmk_core/protocol/lufa/lufa.c ****     Endpoint_SelectEndpoint(MOUSE_IN_EPNUM);
 470:/users/hunter/downloads/tmk_core/protocol/lufa/lufa.c **** 
 471:/users/hunter/downloads/tmk_core/protocol/lufa/lufa.c ****     /* Check if write ready for a polling interval around 10ms */
 472:/users/hunter/downloads/tmk_core/protocol/lufa/lufa.c ****     while (timeout-- && !Endpoint_IsReadWriteAllowed()) _delay_us(40);
 473:/users/hunter/downloads/tmk_core/protocol/lufa/lufa.c ****     if (!Endpoint_IsReadWriteAllowed()) return;
 474:/users/hunter/downloads/tmk_core/protocol/lufa/lufa.c **** 
 475:/users/hunter/downloads/tmk_core/protocol/lufa/lufa.c ****     /* Write Mouse Report Data */
 476:/users/hunter/downloads/tmk_core/protocol/lufa/lufa.c ****     Endpoint_Write_Stream_LE(report, sizeof(report_mouse_t), NULL);
 477:/users/hunter/downloads/tmk_core/protocol/lufa/lufa.c **** 
 478:/users/hunter/downloads/tmk_core/protocol/lufa/lufa.c ****     /* Finalize the stream transfer to send the last packet */
 479:/users/hunter/downloads/tmk_core/protocol/lufa/lufa.c ****     Endpoint_ClearIN();
 480:/users/hunter/downloads/tmk_core/protocol/lufa/lufa.c **** #endif
 481:/users/hunter/downloads/tmk_core/protocol/lufa/lufa.c **** }
  40               		.loc 1 481 0
  41 0000 0895      		ret
  42               		.cfi_endproc
  43               	.LFE119:
  45               		.section	.text.sendchar,"ax",@progbits
  46               	.global	sendchar
  48               	sendchar:
  49               	.LFB122:
 482:/users/hunter/downloads/tmk_core/protocol/lufa/lufa.c **** 
 483:/users/hunter/downloads/tmk_core/protocol/lufa/lufa.c **** static void send_system(uint16_t data)
 484:/users/hunter/downloads/tmk_core/protocol/lufa/lufa.c **** {
 485:/users/hunter/downloads/tmk_core/protocol/lufa/lufa.c ****     uint8_t timeout = 255;
 486:/users/hunter/downloads/tmk_core/protocol/lufa/lufa.c **** 
 487:/users/hunter/downloads/tmk_core/protocol/lufa/lufa.c ****     if (USB_DeviceState != DEVICE_STATE_Configured)
 488:/users/hunter/downloads/tmk_core/protocol/lufa/lufa.c ****         return;
 489:/users/hunter/downloads/tmk_core/protocol/lufa/lufa.c **** 
 490:/users/hunter/downloads/tmk_core/protocol/lufa/lufa.c ****     report_extra_t r = {
 491:/users/hunter/downloads/tmk_core/protocol/lufa/lufa.c ****         .report_id = REPORT_ID_SYSTEM,
 492:/users/hunter/downloads/tmk_core/protocol/lufa/lufa.c ****         .usage = data
 493:/users/hunter/downloads/tmk_core/protocol/lufa/lufa.c ****     };
 494:/users/hunter/downloads/tmk_core/protocol/lufa/lufa.c ****     Endpoint_SelectEndpoint(EXTRAKEY_IN_EPNUM);
 495:/users/hunter/downloads/tmk_core/protocol/lufa/lufa.c **** 
 496:/users/hunter/downloads/tmk_core/protocol/lufa/lufa.c ****     /* Check if write ready for a polling interval around 10ms */
 497:/users/hunter/downloads/tmk_core/protocol/lufa/lufa.c ****     while (timeout-- && !Endpoint_IsReadWriteAllowed()) _delay_us(40);
 498:/users/hunter/downloads/tmk_core/protocol/lufa/lufa.c ****     if (!Endpoint_IsReadWriteAllowed()) return;
 499:/users/hunter/downloads/tmk_core/protocol/lufa/lufa.c **** 
 500:/users/hunter/downloads/tmk_core/protocol/lufa/lufa.c ****     Endpoint_Write_Stream_LE(&r, sizeof(report_extra_t), NULL);
 501:/users/hunter/downloads/tmk_core/protocol/lufa/lufa.c ****     Endpoint_ClearIN();
 502:/users/hunter/downloads/tmk_core/protocol/lufa/lufa.c **** }
 503:/users/hunter/downloads/tmk_core/protocol/lufa/lufa.c **** 
 504:/users/hunter/downloads/tmk_core/protocol/lufa/lufa.c **** static void send_consumer(uint16_t data)
 505:/users/hunter/downloads/tmk_core/protocol/lufa/lufa.c **** {
 506:/users/hunter/downloads/tmk_core/protocol/lufa/lufa.c ****     uint8_t timeout = 255;
 507:/users/hunter/downloads/tmk_core/protocol/lufa/lufa.c **** 
 508:/users/hunter/downloads/tmk_core/protocol/lufa/lufa.c ****     if (USB_DeviceState != DEVICE_STATE_Configured)
 509:/users/hunter/downloads/tmk_core/protocol/lufa/lufa.c ****         return;
 510:/users/hunter/downloads/tmk_core/protocol/lufa/lufa.c **** 
 511:/users/hunter/downloads/tmk_core/protocol/lufa/lufa.c ****     report_extra_t r = {
 512:/users/hunter/downloads/tmk_core/protocol/lufa/lufa.c ****         .report_id = REPORT_ID_CONSUMER,
 513:/users/hunter/downloads/tmk_core/protocol/lufa/lufa.c ****         .usage = data
 514:/users/hunter/downloads/tmk_core/protocol/lufa/lufa.c ****     };
 515:/users/hunter/downloads/tmk_core/protocol/lufa/lufa.c ****     Endpoint_SelectEndpoint(EXTRAKEY_IN_EPNUM);
 516:/users/hunter/downloads/tmk_core/protocol/lufa/lufa.c **** 
 517:/users/hunter/downloads/tmk_core/protocol/lufa/lufa.c ****     /* Check if write ready for a polling interval around 10ms */
 518:/users/hunter/downloads/tmk_core/protocol/lufa/lufa.c ****     while (timeout-- && !Endpoint_IsReadWriteAllowed()) _delay_us(40);
 519:/users/hunter/downloads/tmk_core/protocol/lufa/lufa.c ****     if (!Endpoint_IsReadWriteAllowed()) return;
 520:/users/hunter/downloads/tmk_core/protocol/lufa/lufa.c **** 
 521:/users/hunter/downloads/tmk_core/protocol/lufa/lufa.c ****     Endpoint_Write_Stream_LE(&r, sizeof(report_extra_t), NULL);
 522:/users/hunter/downloads/tmk_core/protocol/lufa/lufa.c ****     Endpoint_ClearIN();
 523:/users/hunter/downloads/tmk_core/protocol/lufa/lufa.c **** }
 524:/users/hunter/downloads/tmk_core/protocol/lufa/lufa.c **** 
 525:/users/hunter/downloads/tmk_core/protocol/lufa/lufa.c **** 
 526:/users/hunter/downloads/tmk_core/protocol/lufa/lufa.c **** /*******************************************************************************
 527:/users/hunter/downloads/tmk_core/protocol/lufa/lufa.c ****  * sendchar
 528:/users/hunter/downloads/tmk_core/protocol/lufa/lufa.c ****  ******************************************************************************/
 529:/users/hunter/downloads/tmk_core/protocol/lufa/lufa.c **** #ifdef CONSOLE_ENABLE
 530:/users/hunter/downloads/tmk_core/protocol/lufa/lufa.c **** #define SEND_TIMEOUT 5
 531:/users/hunter/downloads/tmk_core/protocol/lufa/lufa.c **** int8_t sendchar(uint8_t c)
 532:/users/hunter/downloads/tmk_core/protocol/lufa/lufa.c **** {
  50               		.loc 1 532 0
  51               		.cfi_startproc
  52               	.LVL1:
  53               	/* prologue: function */
  54               	/* frame size = 0 */
  55               	/* stack size = 0 */
  56               	.L__stack_usage = 0
  57               	.LBB146:
 533:/users/hunter/downloads/tmk_core/protocol/lufa/lufa.c **** #ifdef LUFA_DEBUG_SUART
 534:/users/hunter/downloads/tmk_core/protocol/lufa/lufa.c ****     xmit(c);
 535:/users/hunter/downloads/tmk_core/protocol/lufa/lufa.c **** #endif
 536:/users/hunter/downloads/tmk_core/protocol/lufa/lufa.c ****     // Not wait once timeouted.
 537:/users/hunter/downloads/tmk_core/protocol/lufa/lufa.c ****     // Because sendchar() is called so many times, waiting each call causes big lag.
 538:/users/hunter/downloads/tmk_core/protocol/lufa/lufa.c ****     static bool timeouted = false;
 539:/users/hunter/downloads/tmk_core/protocol/lufa/lufa.c **** 
 540:/users/hunter/downloads/tmk_core/protocol/lufa/lufa.c ****     // prevents Console_Task() from running during sendchar() runs.
 541:/users/hunter/downloads/tmk_core/protocol/lufa/lufa.c ****     // or char will be lost. These two function is mutually exclusive.
 542:/users/hunter/downloads/tmk_core/protocol/lufa/lufa.c ****     CONSOLE_FLUSH_SET(false);
  58               		.loc 1 542 0
  59 0000 9FB7      		in r25,__SREG__
  60               	.LVL2:
  61               	/* #APP */
  62               	 ;  542 "/users/hunter/downloads/tmk_core/protocol/lufa/lufa.c" 1
  63 0002 F894      		cli
  64               	 ;  0 "" 2
  65               	/* #NOAPP */
  66 0004 1092 0000 		sts console_flush,__zero_reg__
  67 0008 9FBF      		out __SREG__,r25
  68               	.LBE146:
 543:/users/hunter/downloads/tmk_core/protocol/lufa/lufa.c **** 
 544:/users/hunter/downloads/tmk_core/protocol/lufa/lufa.c ****     if (USB_DeviceState != DEVICE_STATE_Configured)
  69               		.loc 1 544 0
  70 000a 9091 0000 		lds r25,USB_DeviceState
  71               	.LVL3:
  72 000e 9430      		cpi r25,lo8(4)
  73 0010 01F0      		breq .+2
  74 0012 00C0      		rjmp .L15
  75               	.LBB147:
  76               	.LBB148:
  77               		.file 2 "/users/hunter/downloads/tmk_core/protocol/lufa/LUFA-git/LUFA/Drivers/USB/Core/AVR8/../AVR
   1:/users/hunter/downloads/tmk_core/protocol/lufa/LUFA-git/LUFA/Drivers/USB/Core/AVR8/../AVR8/Endpoint_AVR8.h **** /*
   2:/users/hunter/downloads/tmk_core/protocol/lufa/LUFA-git/LUFA/Drivers/USB/Core/AVR8/../AVR8/Endpoint_AVR8.h ****              LUFA Library
   3:/users/hunter/downloads/tmk_core/protocol/lufa/LUFA-git/LUFA/Drivers/USB/Core/AVR8/../AVR8/Endpoint_AVR8.h ****      Copyright (C) Dean Camera, 2014.
   4:/users/hunter/downloads/tmk_core/protocol/lufa/LUFA-git/LUFA/Drivers/USB/Core/AVR8/../AVR8/Endpoint_AVR8.h **** 
   5:/users/hunter/downloads/tmk_core/protocol/lufa/LUFA-git/LUFA/Drivers/USB/Core/AVR8/../AVR8/Endpoint_AVR8.h ****   dean [at] fourwalledcubicle [dot] com
   6:/users/hunter/downloads/tmk_core/protocol/lufa/LUFA-git/LUFA/Drivers/USB/Core/AVR8/../AVR8/Endpoint_AVR8.h ****            www.lufa-lib.org
   7:/users/hunter/downloads/tmk_core/protocol/lufa/LUFA-git/LUFA/Drivers/USB/Core/AVR8/../AVR8/Endpoint_AVR8.h **** */
   8:/users/hunter/downloads/tmk_core/protocol/lufa/LUFA-git/LUFA/Drivers/USB/Core/AVR8/../AVR8/Endpoint_AVR8.h **** 
   9:/users/hunter/downloads/tmk_core/protocol/lufa/LUFA-git/LUFA/Drivers/USB/Core/AVR8/../AVR8/Endpoint_AVR8.h **** /*
  10:/users/hunter/downloads/tmk_core/protocol/lufa/LUFA-git/LUFA/Drivers/USB/Core/AVR8/../AVR8/Endpoint_AVR8.h ****   Copyright 2014  Dean Camera (dean [at] fourwalledcubicle [dot] com)
  11:/users/hunter/downloads/tmk_core/protocol/lufa/LUFA-git/LUFA/Drivers/USB/Core/AVR8/../AVR8/Endpoint_AVR8.h **** 
  12:/users/hunter/downloads/tmk_core/protocol/lufa/LUFA-git/LUFA/Drivers/USB/Core/AVR8/../AVR8/Endpoint_AVR8.h ****   Permission to use, copy, modify, distribute, and sell this
  13:/users/hunter/downloads/tmk_core/protocol/lufa/LUFA-git/LUFA/Drivers/USB/Core/AVR8/../AVR8/Endpoint_AVR8.h ****   software and its documentation for any purpose is hereby granted
  14:/users/hunter/downloads/tmk_core/protocol/lufa/LUFA-git/LUFA/Drivers/USB/Core/AVR8/../AVR8/Endpoint_AVR8.h ****   without fee, provided that the above copyright notice appear in
  15:/users/hunter/downloads/tmk_core/protocol/lufa/LUFA-git/LUFA/Drivers/USB/Core/AVR8/../AVR8/Endpoint_AVR8.h ****   all copies and that both that the copyright notice and this
  16:/users/hunter/downloads/tmk_core/protocol/lufa/LUFA-git/LUFA/Drivers/USB/Core/AVR8/../AVR8/Endpoint_AVR8.h ****   permission notice and warranty disclaimer appear in supporting
  17:/users/hunter/downloads/tmk_core/protocol/lufa/LUFA-git/LUFA/Drivers/USB/Core/AVR8/../AVR8/Endpoint_AVR8.h ****   documentation, and that the name of the author not be used in
  18:/users/hunter/downloads/tmk_core/protocol/lufa/LUFA-git/LUFA/Drivers/USB/Core/AVR8/../AVR8/Endpoint_AVR8.h ****   advertising or publicity pertaining to distribution of the
  19:/users/hunter/downloads/tmk_core/protocol/lufa/LUFA-git/LUFA/Drivers/USB/Core/AVR8/../AVR8/Endpoint_AVR8.h ****   software without specific, written prior permission.
  20:/users/hunter/downloads/tmk_core/protocol/lufa/LUFA-git/LUFA/Drivers/USB/Core/AVR8/../AVR8/Endpoint_AVR8.h **** 
  21:/users/hunter/downloads/tmk_core/protocol/lufa/LUFA-git/LUFA/Drivers/USB/Core/AVR8/../AVR8/Endpoint_AVR8.h ****   The author disclaims all warranties with regard to this
  22:/users/hunter/downloads/tmk_core/protocol/lufa/LUFA-git/LUFA/Drivers/USB/Core/AVR8/../AVR8/Endpoint_AVR8.h ****   software, including all implied warranties of merchantability
  23:/users/hunter/downloads/tmk_core/protocol/lufa/LUFA-git/LUFA/Drivers/USB/Core/AVR8/../AVR8/Endpoint_AVR8.h ****   and fitness.  In no event shall the author be liable for any
  24:/users/hunter/downloads/tmk_core/protocol/lufa/LUFA-git/LUFA/Drivers/USB/Core/AVR8/../AVR8/Endpoint_AVR8.h ****   special, indirect or consequential damages or any damages
  25:/users/hunter/downloads/tmk_core/protocol/lufa/LUFA-git/LUFA/Drivers/USB/Core/AVR8/../AVR8/Endpoint_AVR8.h ****   whatsoever resulting from loss of use, data or profits, whether
  26:/users/hunter/downloads/tmk_core/protocol/lufa/LUFA-git/LUFA/Drivers/USB/Core/AVR8/../AVR8/Endpoint_AVR8.h ****   in an action of contract, negligence or other tortious action,
  27:/users/hunter/downloads/tmk_core/protocol/lufa/LUFA-git/LUFA/Drivers/USB/Core/AVR8/../AVR8/Endpoint_AVR8.h ****   arising out of or in connection with the use or performance of
  28:/users/hunter/downloads/tmk_core/protocol/lufa/LUFA-git/LUFA/Drivers/USB/Core/AVR8/../AVR8/Endpoint_AVR8.h ****   this software.
  29:/users/hunter/downloads/tmk_core/protocol/lufa/LUFA-git/LUFA/Drivers/USB/Core/AVR8/../AVR8/Endpoint_AVR8.h **** */
  30:/users/hunter/downloads/tmk_core/protocol/lufa/LUFA-git/LUFA/Drivers/USB/Core/AVR8/../AVR8/Endpoint_AVR8.h **** 
  31:/users/hunter/downloads/tmk_core/protocol/lufa/LUFA-git/LUFA/Drivers/USB/Core/AVR8/../AVR8/Endpoint_AVR8.h **** /** \file
  32:/users/hunter/downloads/tmk_core/protocol/lufa/LUFA-git/LUFA/Drivers/USB/Core/AVR8/../AVR8/Endpoint_AVR8.h ****  *  \brief USB Endpoint definitions for the AVR8 microcontrollers.
  33:/users/hunter/downloads/tmk_core/protocol/lufa/LUFA-git/LUFA/Drivers/USB/Core/AVR8/../AVR8/Endpoint_AVR8.h ****  *  \copydetails Group_EndpointManagement_AVR8
  34:/users/hunter/downloads/tmk_core/protocol/lufa/LUFA-git/LUFA/Drivers/USB/Core/AVR8/../AVR8/Endpoint_AVR8.h ****  *
  35:/users/hunter/downloads/tmk_core/protocol/lufa/LUFA-git/LUFA/Drivers/USB/Core/AVR8/../AVR8/Endpoint_AVR8.h ****  *  \note This file should not be included directly. It is automatically included as needed by the 
  36:/users/hunter/downloads/tmk_core/protocol/lufa/LUFA-git/LUFA/Drivers/USB/Core/AVR8/../AVR8/Endpoint_AVR8.h ****  *        dispatch header located in LUFA/Drivers/USB/USB.h.
  37:/users/hunter/downloads/tmk_core/protocol/lufa/LUFA-git/LUFA/Drivers/USB/Core/AVR8/../AVR8/Endpoint_AVR8.h ****  */
  38:/users/hunter/downloads/tmk_core/protocol/lufa/LUFA-git/LUFA/Drivers/USB/Core/AVR8/../AVR8/Endpoint_AVR8.h **** 
  39:/users/hunter/downloads/tmk_core/protocol/lufa/LUFA-git/LUFA/Drivers/USB/Core/AVR8/../AVR8/Endpoint_AVR8.h **** /** \ingroup Group_EndpointRW
  40:/users/hunter/downloads/tmk_core/protocol/lufa/LUFA-git/LUFA/Drivers/USB/Core/AVR8/../AVR8/Endpoint_AVR8.h ****  *  \defgroup Group_EndpointRW_AVR8 Endpoint Data Reading and Writing (AVR8)
  41:/users/hunter/downloads/tmk_core/protocol/lufa/LUFA-git/LUFA/Drivers/USB/Core/AVR8/../AVR8/Endpoint_AVR8.h ****  *  \brief Endpoint data read/write definitions for the Atmel AVR8 architecture.
  42:/users/hunter/downloads/tmk_core/protocol/lufa/LUFA-git/LUFA/Drivers/USB/Core/AVR8/../AVR8/Endpoint_AVR8.h ****  *
  43:/users/hunter/downloads/tmk_core/protocol/lufa/LUFA-git/LUFA/Drivers/USB/Core/AVR8/../AVR8/Endpoint_AVR8.h ****  *  Functions, macros, variables, enums and types related to data reading and writing from and to e
  44:/users/hunter/downloads/tmk_core/protocol/lufa/LUFA-git/LUFA/Drivers/USB/Core/AVR8/../AVR8/Endpoint_AVR8.h ****  */
  45:/users/hunter/downloads/tmk_core/protocol/lufa/LUFA-git/LUFA/Drivers/USB/Core/AVR8/../AVR8/Endpoint_AVR8.h **** 
  46:/users/hunter/downloads/tmk_core/protocol/lufa/LUFA-git/LUFA/Drivers/USB/Core/AVR8/../AVR8/Endpoint_AVR8.h **** /** \ingroup Group_EndpointPrimitiveRW
  47:/users/hunter/downloads/tmk_core/protocol/lufa/LUFA-git/LUFA/Drivers/USB/Core/AVR8/../AVR8/Endpoint_AVR8.h ****  *  \defgroup Group_EndpointPrimitiveRW_AVR8 Read/Write of Primitive Data Types (AVR8)
  48:/users/hunter/downloads/tmk_core/protocol/lufa/LUFA-git/LUFA/Drivers/USB/Core/AVR8/../AVR8/Endpoint_AVR8.h ****  *  \brief Endpoint primitive read/write definitions for the Atmel AVR8 architecture.
  49:/users/hunter/downloads/tmk_core/protocol/lufa/LUFA-git/LUFA/Drivers/USB/Core/AVR8/../AVR8/Endpoint_AVR8.h ****  *
  50:/users/hunter/downloads/tmk_core/protocol/lufa/LUFA-git/LUFA/Drivers/USB/Core/AVR8/../AVR8/Endpoint_AVR8.h ****  *  Functions, macros, variables, enums and types related to data reading and writing of primitive 
  51:/users/hunter/downloads/tmk_core/protocol/lufa/LUFA-git/LUFA/Drivers/USB/Core/AVR8/../AVR8/Endpoint_AVR8.h ****  *  from and to endpoints.
  52:/users/hunter/downloads/tmk_core/protocol/lufa/LUFA-git/LUFA/Drivers/USB/Core/AVR8/../AVR8/Endpoint_AVR8.h ****  */
  53:/users/hunter/downloads/tmk_core/protocol/lufa/LUFA-git/LUFA/Drivers/USB/Core/AVR8/../AVR8/Endpoint_AVR8.h **** 
  54:/users/hunter/downloads/tmk_core/protocol/lufa/LUFA-git/LUFA/Drivers/USB/Core/AVR8/../AVR8/Endpoint_AVR8.h **** /** \ingroup Group_EndpointPacketManagement
  55:/users/hunter/downloads/tmk_core/protocol/lufa/LUFA-git/LUFA/Drivers/USB/Core/AVR8/../AVR8/Endpoint_AVR8.h ****  *  \defgroup Group_EndpointPacketManagement_AVR8 Endpoint Packet Management (AVR8)
  56:/users/hunter/downloads/tmk_core/protocol/lufa/LUFA-git/LUFA/Drivers/USB/Core/AVR8/../AVR8/Endpoint_AVR8.h ****  *  \brief Endpoint packet management definitions for the Atmel AVR8 architecture.
  57:/users/hunter/downloads/tmk_core/protocol/lufa/LUFA-git/LUFA/Drivers/USB/Core/AVR8/../AVR8/Endpoint_AVR8.h ****  *
  58:/users/hunter/downloads/tmk_core/protocol/lufa/LUFA-git/LUFA/Drivers/USB/Core/AVR8/../AVR8/Endpoint_AVR8.h ****  *  Functions, macros, variables, enums and types related to packet management of endpoints.
  59:/users/hunter/downloads/tmk_core/protocol/lufa/LUFA-git/LUFA/Drivers/USB/Core/AVR8/../AVR8/Endpoint_AVR8.h ****  */
  60:/users/hunter/downloads/tmk_core/protocol/lufa/LUFA-git/LUFA/Drivers/USB/Core/AVR8/../AVR8/Endpoint_AVR8.h **** 
  61:/users/hunter/downloads/tmk_core/protocol/lufa/LUFA-git/LUFA/Drivers/USB/Core/AVR8/../AVR8/Endpoint_AVR8.h **** /** \ingroup Group_EndpointManagement
  62:/users/hunter/downloads/tmk_core/protocol/lufa/LUFA-git/LUFA/Drivers/USB/Core/AVR8/../AVR8/Endpoint_AVR8.h ****  *  \defgroup Group_EndpointManagement_AVR8 Endpoint Management (AVR8)
  63:/users/hunter/downloads/tmk_core/protocol/lufa/LUFA-git/LUFA/Drivers/USB/Core/AVR8/../AVR8/Endpoint_AVR8.h ****  *  \brief Endpoint management definitions for the Atmel AVR8 architecture.
  64:/users/hunter/downloads/tmk_core/protocol/lufa/LUFA-git/LUFA/Drivers/USB/Core/AVR8/../AVR8/Endpoint_AVR8.h ****  *
  65:/users/hunter/downloads/tmk_core/protocol/lufa/LUFA-git/LUFA/Drivers/USB/Core/AVR8/../AVR8/Endpoint_AVR8.h ****  *  Functions, macros and enums related to endpoint management when in USB Device mode. This
  66:/users/hunter/downloads/tmk_core/protocol/lufa/LUFA-git/LUFA/Drivers/USB/Core/AVR8/../AVR8/Endpoint_AVR8.h ****  *  module contains the endpoint management macros, as well as endpoint interrupt and data
  67:/users/hunter/downloads/tmk_core/protocol/lufa/LUFA-git/LUFA/Drivers/USB/Core/AVR8/../AVR8/Endpoint_AVR8.h ****  *  send/receive functions for various data types.
  68:/users/hunter/downloads/tmk_core/protocol/lufa/LUFA-git/LUFA/Drivers/USB/Core/AVR8/../AVR8/Endpoint_AVR8.h ****  *
  69:/users/hunter/downloads/tmk_core/protocol/lufa/LUFA-git/LUFA/Drivers/USB/Core/AVR8/../AVR8/Endpoint_AVR8.h ****  *  @{
  70:/users/hunter/downloads/tmk_core/protocol/lufa/LUFA-git/LUFA/Drivers/USB/Core/AVR8/../AVR8/Endpoint_AVR8.h ****  */
  71:/users/hunter/downloads/tmk_core/protocol/lufa/LUFA-git/LUFA/Drivers/USB/Core/AVR8/../AVR8/Endpoint_AVR8.h **** 
  72:/users/hunter/downloads/tmk_core/protocol/lufa/LUFA-git/LUFA/Drivers/USB/Core/AVR8/../AVR8/Endpoint_AVR8.h **** #ifndef __ENDPOINT_AVR8_H__
  73:/users/hunter/downloads/tmk_core/protocol/lufa/LUFA-git/LUFA/Drivers/USB/Core/AVR8/../AVR8/Endpoint_AVR8.h **** #define __ENDPOINT_AVR8_H__
  74:/users/hunter/downloads/tmk_core/protocol/lufa/LUFA-git/LUFA/Drivers/USB/Core/AVR8/../AVR8/Endpoint_AVR8.h **** 
  75:/users/hunter/downloads/tmk_core/protocol/lufa/LUFA-git/LUFA/Drivers/USB/Core/AVR8/../AVR8/Endpoint_AVR8.h **** 	/* Includes: */
  76:/users/hunter/downloads/tmk_core/protocol/lufa/LUFA-git/LUFA/Drivers/USB/Core/AVR8/../AVR8/Endpoint_AVR8.h **** 		#include "../../../../Common/Common.h"
  77:/users/hunter/downloads/tmk_core/protocol/lufa/LUFA-git/LUFA/Drivers/USB/Core/AVR8/../AVR8/Endpoint_AVR8.h **** 		#include "../USBTask.h"
  78:/users/hunter/downloads/tmk_core/protocol/lufa/LUFA-git/LUFA/Drivers/USB/Core/AVR8/../AVR8/Endpoint_AVR8.h **** 		#include "../USBInterrupt.h"
  79:/users/hunter/downloads/tmk_core/protocol/lufa/LUFA-git/LUFA/Drivers/USB/Core/AVR8/../AVR8/Endpoint_AVR8.h **** 
  80:/users/hunter/downloads/tmk_core/protocol/lufa/LUFA-git/LUFA/Drivers/USB/Core/AVR8/../AVR8/Endpoint_AVR8.h **** 	/* Enable C linkage for C++ Compilers: */
  81:/users/hunter/downloads/tmk_core/protocol/lufa/LUFA-git/LUFA/Drivers/USB/Core/AVR8/../AVR8/Endpoint_AVR8.h **** 		#if defined(__cplusplus)
  82:/users/hunter/downloads/tmk_core/protocol/lufa/LUFA-git/LUFA/Drivers/USB/Core/AVR8/../AVR8/Endpoint_AVR8.h **** 			extern "C" {
  83:/users/hunter/downloads/tmk_core/protocol/lufa/LUFA-git/LUFA/Drivers/USB/Core/AVR8/../AVR8/Endpoint_AVR8.h **** 		#endif
  84:/users/hunter/downloads/tmk_core/protocol/lufa/LUFA-git/LUFA/Drivers/USB/Core/AVR8/../AVR8/Endpoint_AVR8.h **** 
  85:/users/hunter/downloads/tmk_core/protocol/lufa/LUFA-git/LUFA/Drivers/USB/Core/AVR8/../AVR8/Endpoint_AVR8.h **** 	/* Preprocessor Checks: */
  86:/users/hunter/downloads/tmk_core/protocol/lufa/LUFA-git/LUFA/Drivers/USB/Core/AVR8/../AVR8/Endpoint_AVR8.h **** 		#if !defined(__INCLUDE_FROM_USB_DRIVER)
  87:/users/hunter/downloads/tmk_core/protocol/lufa/LUFA-git/LUFA/Drivers/USB/Core/AVR8/../AVR8/Endpoint_AVR8.h **** 			#error Do not include this file directly. Include LUFA/Drivers/USB/USB.h instead.
  88:/users/hunter/downloads/tmk_core/protocol/lufa/LUFA-git/LUFA/Drivers/USB/Core/AVR8/../AVR8/Endpoint_AVR8.h **** 		#endif
  89:/users/hunter/downloads/tmk_core/protocol/lufa/LUFA-git/LUFA/Drivers/USB/Core/AVR8/../AVR8/Endpoint_AVR8.h **** 
  90:/users/hunter/downloads/tmk_core/protocol/lufa/LUFA-git/LUFA/Drivers/USB/Core/AVR8/../AVR8/Endpoint_AVR8.h **** 	/* Private Interface - For use in library only: */
  91:/users/hunter/downloads/tmk_core/protocol/lufa/LUFA-git/LUFA/Drivers/USB/Core/AVR8/../AVR8/Endpoint_AVR8.h **** 	#if !defined(__DOXYGEN__)
  92:/users/hunter/downloads/tmk_core/protocol/lufa/LUFA-git/LUFA/Drivers/USB/Core/AVR8/../AVR8/Endpoint_AVR8.h **** 		/* Inline Functions: */
  93:/users/hunter/downloads/tmk_core/protocol/lufa/LUFA-git/LUFA/Drivers/USB/Core/AVR8/../AVR8/Endpoint_AVR8.h **** 			static inline uint8_t Endpoint_BytesToEPSizeMask(const uint16_t Bytes) ATTR_WARN_UNUSED_RESULT A
  94:/users/hunter/downloads/tmk_core/protocol/lufa/LUFA-git/LUFA/Drivers/USB/Core/AVR8/../AVR8/Endpoint_AVR8.h **** 			                                                                       ATTR_ALWAYS_INLINE;
  95:/users/hunter/downloads/tmk_core/protocol/lufa/LUFA-git/LUFA/Drivers/USB/Core/AVR8/../AVR8/Endpoint_AVR8.h **** 			static inline uint8_t Endpoint_BytesToEPSizeMask(const uint16_t Bytes)
  96:/users/hunter/downloads/tmk_core/protocol/lufa/LUFA-git/LUFA/Drivers/USB/Core/AVR8/../AVR8/Endpoint_AVR8.h **** 			{
  97:/users/hunter/downloads/tmk_core/protocol/lufa/LUFA-git/LUFA/Drivers/USB/Core/AVR8/../AVR8/Endpoint_AVR8.h **** 				uint8_t  MaskVal    = 0;
  98:/users/hunter/downloads/tmk_core/protocol/lufa/LUFA-git/LUFA/Drivers/USB/Core/AVR8/../AVR8/Endpoint_AVR8.h **** 				uint16_t CheckBytes = 8;
  99:/users/hunter/downloads/tmk_core/protocol/lufa/LUFA-git/LUFA/Drivers/USB/Core/AVR8/../AVR8/Endpoint_AVR8.h **** 
 100:/users/hunter/downloads/tmk_core/protocol/lufa/LUFA-git/LUFA/Drivers/USB/Core/AVR8/../AVR8/Endpoint_AVR8.h **** 				while (CheckBytes < Bytes)
 101:/users/hunter/downloads/tmk_core/protocol/lufa/LUFA-git/LUFA/Drivers/USB/Core/AVR8/../AVR8/Endpoint_AVR8.h **** 				{
 102:/users/hunter/downloads/tmk_core/protocol/lufa/LUFA-git/LUFA/Drivers/USB/Core/AVR8/../AVR8/Endpoint_AVR8.h **** 					MaskVal++;
 103:/users/hunter/downloads/tmk_core/protocol/lufa/LUFA-git/LUFA/Drivers/USB/Core/AVR8/../AVR8/Endpoint_AVR8.h **** 					CheckBytes <<= 1;
 104:/users/hunter/downloads/tmk_core/protocol/lufa/LUFA-git/LUFA/Drivers/USB/Core/AVR8/../AVR8/Endpoint_AVR8.h **** 				}
 105:/users/hunter/downloads/tmk_core/protocol/lufa/LUFA-git/LUFA/Drivers/USB/Core/AVR8/../AVR8/Endpoint_AVR8.h **** 
 106:/users/hunter/downloads/tmk_core/protocol/lufa/LUFA-git/LUFA/Drivers/USB/Core/AVR8/../AVR8/Endpoint_AVR8.h **** 				return (MaskVal << EPSIZE0);
 107:/users/hunter/downloads/tmk_core/protocol/lufa/LUFA-git/LUFA/Drivers/USB/Core/AVR8/../AVR8/Endpoint_AVR8.h **** 			}
 108:/users/hunter/downloads/tmk_core/protocol/lufa/LUFA-git/LUFA/Drivers/USB/Core/AVR8/../AVR8/Endpoint_AVR8.h **** 
 109:/users/hunter/downloads/tmk_core/protocol/lufa/LUFA-git/LUFA/Drivers/USB/Core/AVR8/../AVR8/Endpoint_AVR8.h **** 		/* Function Prototypes: */
 110:/users/hunter/downloads/tmk_core/protocol/lufa/LUFA-git/LUFA/Drivers/USB/Core/AVR8/../AVR8/Endpoint_AVR8.h **** 			void Endpoint_ClearEndpoints(void);
 111:/users/hunter/downloads/tmk_core/protocol/lufa/LUFA-git/LUFA/Drivers/USB/Core/AVR8/../AVR8/Endpoint_AVR8.h **** 			bool Endpoint_ConfigureEndpoint_Prv(const uint8_t Number,
 112:/users/hunter/downloads/tmk_core/protocol/lufa/LUFA-git/LUFA/Drivers/USB/Core/AVR8/../AVR8/Endpoint_AVR8.h **** 			                                    const uint8_t UECFG0XData,
 113:/users/hunter/downloads/tmk_core/protocol/lufa/LUFA-git/LUFA/Drivers/USB/Core/AVR8/../AVR8/Endpoint_AVR8.h **** 			                                    const uint8_t UECFG1XData);
 114:/users/hunter/downloads/tmk_core/protocol/lufa/LUFA-git/LUFA/Drivers/USB/Core/AVR8/../AVR8/Endpoint_AVR8.h **** 
 115:/users/hunter/downloads/tmk_core/protocol/lufa/LUFA-git/LUFA/Drivers/USB/Core/AVR8/../AVR8/Endpoint_AVR8.h **** 	#endif
 116:/users/hunter/downloads/tmk_core/protocol/lufa/LUFA-git/LUFA/Drivers/USB/Core/AVR8/../AVR8/Endpoint_AVR8.h **** 
 117:/users/hunter/downloads/tmk_core/protocol/lufa/LUFA-git/LUFA/Drivers/USB/Core/AVR8/../AVR8/Endpoint_AVR8.h **** 	/* Public Interface - May be used in end-application: */
 118:/users/hunter/downloads/tmk_core/protocol/lufa/LUFA-git/LUFA/Drivers/USB/Core/AVR8/../AVR8/Endpoint_AVR8.h **** 		/* Macros: */
 119:/users/hunter/downloads/tmk_core/protocol/lufa/LUFA-git/LUFA/Drivers/USB/Core/AVR8/../AVR8/Endpoint_AVR8.h **** 			#if (!defined(FIXED_CONTROL_ENDPOINT_SIZE) || defined(__DOXYGEN__))
 120:/users/hunter/downloads/tmk_core/protocol/lufa/LUFA-git/LUFA/Drivers/USB/Core/AVR8/../AVR8/Endpoint_AVR8.h **** 				/** Default size of the default control endpoint's bank, until altered by the control endpoint 
 121:/users/hunter/downloads/tmk_core/protocol/lufa/LUFA-git/LUFA/Drivers/USB/Core/AVR8/../AVR8/Endpoint_AVR8.h **** 				 *  value in the device descriptor. Not available if the \c FIXED_CONTROL_ENDPOINT_SIZE token i
 122:/users/hunter/downloads/tmk_core/protocol/lufa/LUFA-git/LUFA/Drivers/USB/Core/AVR8/../AVR8/Endpoint_AVR8.h **** 				 */
 123:/users/hunter/downloads/tmk_core/protocol/lufa/LUFA-git/LUFA/Drivers/USB/Core/AVR8/../AVR8/Endpoint_AVR8.h **** 				#define ENDPOINT_CONTROLEP_DEFAULT_SIZE     8
 124:/users/hunter/downloads/tmk_core/protocol/lufa/LUFA-git/LUFA/Drivers/USB/Core/AVR8/../AVR8/Endpoint_AVR8.h **** 			#endif
 125:/users/hunter/downloads/tmk_core/protocol/lufa/LUFA-git/LUFA/Drivers/USB/Core/AVR8/../AVR8/Endpoint_AVR8.h **** 
 126:/users/hunter/downloads/tmk_core/protocol/lufa/LUFA-git/LUFA/Drivers/USB/Core/AVR8/../AVR8/Endpoint_AVR8.h **** 			#if !defined(CONTROL_ONLY_DEVICE) || defined(__DOXYGEN__)
 127:/users/hunter/downloads/tmk_core/protocol/lufa/LUFA-git/LUFA/Drivers/USB/Core/AVR8/../AVR8/Endpoint_AVR8.h **** 				#if defined(USB_SERIES_4_AVR) || defined(USB_SERIES_6_AVR) || defined(USB_SERIES_7_AVR) || defi
 128:/users/hunter/downloads/tmk_core/protocol/lufa/LUFA-git/LUFA/Drivers/USB/Core/AVR8/../AVR8/Endpoint_AVR8.h **** 					/** Total number of endpoints (including the default control endpoint at address 0) which may
 129:/users/hunter/downloads/tmk_core/protocol/lufa/LUFA-git/LUFA/Drivers/USB/Core/AVR8/../AVR8/Endpoint_AVR8.h **** 					 *  be used in the device. Different USB AVR models support different amounts of endpoints,
 130:/users/hunter/downloads/tmk_core/protocol/lufa/LUFA-git/LUFA/Drivers/USB/Core/AVR8/../AVR8/Endpoint_AVR8.h **** 					 *  this value reflects the maximum number of endpoints for the currently selected AVR model.
 131:/users/hunter/downloads/tmk_core/protocol/lufa/LUFA-git/LUFA/Drivers/USB/Core/AVR8/../AVR8/Endpoint_AVR8.h **** 					 */
 132:/users/hunter/downloads/tmk_core/protocol/lufa/LUFA-git/LUFA/Drivers/USB/Core/AVR8/../AVR8/Endpoint_AVR8.h **** 					#define ENDPOINT_TOTAL_ENDPOINTS        7
 133:/users/hunter/downloads/tmk_core/protocol/lufa/LUFA-git/LUFA/Drivers/USB/Core/AVR8/../AVR8/Endpoint_AVR8.h **** 				#else
 134:/users/hunter/downloads/tmk_core/protocol/lufa/LUFA-git/LUFA/Drivers/USB/Core/AVR8/../AVR8/Endpoint_AVR8.h **** 					#define ENDPOINT_TOTAL_ENDPOINTS        5
 135:/users/hunter/downloads/tmk_core/protocol/lufa/LUFA-git/LUFA/Drivers/USB/Core/AVR8/../AVR8/Endpoint_AVR8.h **** 				#endif
 136:/users/hunter/downloads/tmk_core/protocol/lufa/LUFA-git/LUFA/Drivers/USB/Core/AVR8/../AVR8/Endpoint_AVR8.h **** 			#else
 137:/users/hunter/downloads/tmk_core/protocol/lufa/LUFA-git/LUFA/Drivers/USB/Core/AVR8/../AVR8/Endpoint_AVR8.h **** 				#define ENDPOINT_TOTAL_ENDPOINTS            1
 138:/users/hunter/downloads/tmk_core/protocol/lufa/LUFA-git/LUFA/Drivers/USB/Core/AVR8/../AVR8/Endpoint_AVR8.h **** 			#endif
 139:/users/hunter/downloads/tmk_core/protocol/lufa/LUFA-git/LUFA/Drivers/USB/Core/AVR8/../AVR8/Endpoint_AVR8.h **** 
 140:/users/hunter/downloads/tmk_core/protocol/lufa/LUFA-git/LUFA/Drivers/USB/Core/AVR8/../AVR8/Endpoint_AVR8.h **** 		/* Enums: */
 141:/users/hunter/downloads/tmk_core/protocol/lufa/LUFA-git/LUFA/Drivers/USB/Core/AVR8/../AVR8/Endpoint_AVR8.h **** 			/** Enum for the possible error return codes of the \ref Endpoint_WaitUntilReady() function.
 142:/users/hunter/downloads/tmk_core/protocol/lufa/LUFA-git/LUFA/Drivers/USB/Core/AVR8/../AVR8/Endpoint_AVR8.h **** 			 *
 143:/users/hunter/downloads/tmk_core/protocol/lufa/LUFA-git/LUFA/Drivers/USB/Core/AVR8/../AVR8/Endpoint_AVR8.h **** 			 *  \ingroup Group_EndpointRW_AVR8
 144:/users/hunter/downloads/tmk_core/protocol/lufa/LUFA-git/LUFA/Drivers/USB/Core/AVR8/../AVR8/Endpoint_AVR8.h **** 			 */
 145:/users/hunter/downloads/tmk_core/protocol/lufa/LUFA-git/LUFA/Drivers/USB/Core/AVR8/../AVR8/Endpoint_AVR8.h **** 			enum Endpoint_WaitUntilReady_ErrorCodes_t
 146:/users/hunter/downloads/tmk_core/protocol/lufa/LUFA-git/LUFA/Drivers/USB/Core/AVR8/../AVR8/Endpoint_AVR8.h **** 			{
 147:/users/hunter/downloads/tmk_core/protocol/lufa/LUFA-git/LUFA/Drivers/USB/Core/AVR8/../AVR8/Endpoint_AVR8.h **** 				ENDPOINT_READYWAIT_NoError                 = 0, /**< Endpoint is ready for next packet, no erro
 148:/users/hunter/downloads/tmk_core/protocol/lufa/LUFA-git/LUFA/Drivers/USB/Core/AVR8/../AVR8/Endpoint_AVR8.h **** 				ENDPOINT_READYWAIT_EndpointStalled         = 1, /**< The endpoint was stalled during the stream
 149:/users/hunter/downloads/tmk_core/protocol/lufa/LUFA-git/LUFA/Drivers/USB/Core/AVR8/../AVR8/Endpoint_AVR8.h **** 				                                                 *   transfer by the host or device.
 150:/users/hunter/downloads/tmk_core/protocol/lufa/LUFA-git/LUFA/Drivers/USB/Core/AVR8/../AVR8/Endpoint_AVR8.h **** 				                                                 */
 151:/users/hunter/downloads/tmk_core/protocol/lufa/LUFA-git/LUFA/Drivers/USB/Core/AVR8/../AVR8/Endpoint_AVR8.h **** 				ENDPOINT_READYWAIT_DeviceDisconnected      = 2,	/**< Device was disconnected from the host whil
 152:/users/hunter/downloads/tmk_core/protocol/lufa/LUFA-git/LUFA/Drivers/USB/Core/AVR8/../AVR8/Endpoint_AVR8.h **** 				                                                 *   waiting for the endpoint to become ready.
 153:/users/hunter/downloads/tmk_core/protocol/lufa/LUFA-git/LUFA/Drivers/USB/Core/AVR8/../AVR8/Endpoint_AVR8.h **** 				                                                 */
 154:/users/hunter/downloads/tmk_core/protocol/lufa/LUFA-git/LUFA/Drivers/USB/Core/AVR8/../AVR8/Endpoint_AVR8.h **** 				ENDPOINT_READYWAIT_BusSuspended            = 3, /**< The USB bus has been suspended by the host
 155:/users/hunter/downloads/tmk_core/protocol/lufa/LUFA-git/LUFA/Drivers/USB/Core/AVR8/../AVR8/Endpoint_AVR8.h **** 				                                                 *   no USB endpoint traffic can occur until th
 156:/users/hunter/downloads/tmk_core/protocol/lufa/LUFA-git/LUFA/Drivers/USB/Core/AVR8/../AVR8/Endpoint_AVR8.h **** 				                                                 *   has resumed.
 157:/users/hunter/downloads/tmk_core/protocol/lufa/LUFA-git/LUFA/Drivers/USB/Core/AVR8/../AVR8/Endpoint_AVR8.h **** 				                                                 */
 158:/users/hunter/downloads/tmk_core/protocol/lufa/LUFA-git/LUFA/Drivers/USB/Core/AVR8/../AVR8/Endpoint_AVR8.h **** 				ENDPOINT_READYWAIT_Timeout                 = 4, /**< The host failed to accept or send the next
 159:/users/hunter/downloads/tmk_core/protocol/lufa/LUFA-git/LUFA/Drivers/USB/Core/AVR8/../AVR8/Endpoint_AVR8.h **** 				                                                 *   within the software timeout period set by 
 160:/users/hunter/downloads/tmk_core/protocol/lufa/LUFA-git/LUFA/Drivers/USB/Core/AVR8/../AVR8/Endpoint_AVR8.h **** 				                                                 *   \ref USB_STREAM_TIMEOUT_MS macro.
 161:/users/hunter/downloads/tmk_core/protocol/lufa/LUFA-git/LUFA/Drivers/USB/Core/AVR8/../AVR8/Endpoint_AVR8.h **** 				                                                 */
 162:/users/hunter/downloads/tmk_core/protocol/lufa/LUFA-git/LUFA/Drivers/USB/Core/AVR8/../AVR8/Endpoint_AVR8.h **** 			};
 163:/users/hunter/downloads/tmk_core/protocol/lufa/LUFA-git/LUFA/Drivers/USB/Core/AVR8/../AVR8/Endpoint_AVR8.h **** 
 164:/users/hunter/downloads/tmk_core/protocol/lufa/LUFA-git/LUFA/Drivers/USB/Core/AVR8/../AVR8/Endpoint_AVR8.h **** 		/* Inline Functions: */
 165:/users/hunter/downloads/tmk_core/protocol/lufa/LUFA-git/LUFA/Drivers/USB/Core/AVR8/../AVR8/Endpoint_AVR8.h **** 			/** Configures the specified endpoint address with the given endpoint type, bank size and number
 166:/users/hunter/downloads/tmk_core/protocol/lufa/LUFA-git/LUFA/Drivers/USB/Core/AVR8/../AVR8/Endpoint_AVR8.h **** 			 *  banks. Once configured, the endpoint may be read from or written to, depending on its direct
 167:/users/hunter/downloads/tmk_core/protocol/lufa/LUFA-git/LUFA/Drivers/USB/Core/AVR8/../AVR8/Endpoint_AVR8.h **** 			 *
 168:/users/hunter/downloads/tmk_core/protocol/lufa/LUFA-git/LUFA/Drivers/USB/Core/AVR8/../AVR8/Endpoint_AVR8.h **** 			 *  \param[in] Address    Endpoint address to configure.
 169:/users/hunter/downloads/tmk_core/protocol/lufa/LUFA-git/LUFA/Drivers/USB/Core/AVR8/../AVR8/Endpoint_AVR8.h **** 			 *
 170:/users/hunter/downloads/tmk_core/protocol/lufa/LUFA-git/LUFA/Drivers/USB/Core/AVR8/../AVR8/Endpoint_AVR8.h **** 			 *  \param[in] Type       Type of endpoint to configure, a \c EP_TYPE_* mask. Not all endpoint t
 171:/users/hunter/downloads/tmk_core/protocol/lufa/LUFA-git/LUFA/Drivers/USB/Core/AVR8/../AVR8/Endpoint_AVR8.h **** 			 *                        are available on Low Speed USB devices - refer to the USB 2.0 specific
 172:/users/hunter/downloads/tmk_core/protocol/lufa/LUFA-git/LUFA/Drivers/USB/Core/AVR8/../AVR8/Endpoint_AVR8.h **** 			 *
 173:/users/hunter/downloads/tmk_core/protocol/lufa/LUFA-git/LUFA/Drivers/USB/Core/AVR8/../AVR8/Endpoint_AVR8.h **** 			 *  \param[in] Size       Size of the endpoint's bank, where packets are stored before they are 
 174:/users/hunter/downloads/tmk_core/protocol/lufa/LUFA-git/LUFA/Drivers/USB/Core/AVR8/../AVR8/Endpoint_AVR8.h **** 			 *                        to the USB host, or after they have been received from the USB host (d
 175:/users/hunter/downloads/tmk_core/protocol/lufa/LUFA-git/LUFA/Drivers/USB/Core/AVR8/../AVR8/Endpoint_AVR8.h **** 			 *                        the endpoint's data direction). The bank size must indicate the maximu
 176:/users/hunter/downloads/tmk_core/protocol/lufa/LUFA-git/LUFA/Drivers/USB/Core/AVR8/../AVR8/Endpoint_AVR8.h **** 			 *                        that the endpoint can handle.
 177:/users/hunter/downloads/tmk_core/protocol/lufa/LUFA-git/LUFA/Drivers/USB/Core/AVR8/../AVR8/Endpoint_AVR8.h **** 			 *
 178:/users/hunter/downloads/tmk_core/protocol/lufa/LUFA-git/LUFA/Drivers/USB/Core/AVR8/../AVR8/Endpoint_AVR8.h **** 			 *  \param[in] Banks      Number of banks to use for the endpoint being configured.
 179:/users/hunter/downloads/tmk_core/protocol/lufa/LUFA-git/LUFA/Drivers/USB/Core/AVR8/../AVR8/Endpoint_AVR8.h **** 			 *
 180:/users/hunter/downloads/tmk_core/protocol/lufa/LUFA-git/LUFA/Drivers/USB/Core/AVR8/../AVR8/Endpoint_AVR8.h **** 			 *  \attention When the \c ORDERED_EP_CONFIG compile time option is used, Endpoints <b>must</b> 
 181:/users/hunter/downloads/tmk_core/protocol/lufa/LUFA-git/LUFA/Drivers/USB/Core/AVR8/../AVR8/Endpoint_AVR8.h **** 			 *             ascending order, or bank corruption will occur.
 182:/users/hunter/downloads/tmk_core/protocol/lufa/LUFA-git/LUFA/Drivers/USB/Core/AVR8/../AVR8/Endpoint_AVR8.h **** 			 *
 183:/users/hunter/downloads/tmk_core/protocol/lufa/LUFA-git/LUFA/Drivers/USB/Core/AVR8/../AVR8/Endpoint_AVR8.h **** 			 *  \note Different endpoints may have different maximum packet sizes based on the endpoint's in
 184:/users/hunter/downloads/tmk_core/protocol/lufa/LUFA-git/LUFA/Drivers/USB/Core/AVR8/../AVR8/Endpoint_AVR8.h **** 			 *        refer to the chosen microcontroller model's datasheet to determine the maximum bank si
 185:/users/hunter/downloads/tmk_core/protocol/lufa/LUFA-git/LUFA/Drivers/USB/Core/AVR8/../AVR8/Endpoint_AVR8.h **** 			 *        \n\n
 186:/users/hunter/downloads/tmk_core/protocol/lufa/LUFA-git/LUFA/Drivers/USB/Core/AVR8/../AVR8/Endpoint_AVR8.h **** 			 *
 187:/users/hunter/downloads/tmk_core/protocol/lufa/LUFA-git/LUFA/Drivers/USB/Core/AVR8/../AVR8/Endpoint_AVR8.h **** 			 *  \note The default control endpoint should not be manually configured by the user application
 188:/users/hunter/downloads/tmk_core/protocol/lufa/LUFA-git/LUFA/Drivers/USB/Core/AVR8/../AVR8/Endpoint_AVR8.h **** 			 *        it is automatically configured by the library internally.
 189:/users/hunter/downloads/tmk_core/protocol/lufa/LUFA-git/LUFA/Drivers/USB/Core/AVR8/../AVR8/Endpoint_AVR8.h **** 			 *        \n\n
 190:/users/hunter/downloads/tmk_core/protocol/lufa/LUFA-git/LUFA/Drivers/USB/Core/AVR8/../AVR8/Endpoint_AVR8.h **** 			 *
 191:/users/hunter/downloads/tmk_core/protocol/lufa/LUFA-git/LUFA/Drivers/USB/Core/AVR8/../AVR8/Endpoint_AVR8.h **** 			 *  \note This routine will automatically select the specified endpoint upon success. Upon failu
 192:/users/hunter/downloads/tmk_core/protocol/lufa/LUFA-git/LUFA/Drivers/USB/Core/AVR8/../AVR8/Endpoint_AVR8.h **** 			 *        which failed to reconfigure correctly will be selected.
 193:/users/hunter/downloads/tmk_core/protocol/lufa/LUFA-git/LUFA/Drivers/USB/Core/AVR8/../AVR8/Endpoint_AVR8.h **** 			 *
 194:/users/hunter/downloads/tmk_core/protocol/lufa/LUFA-git/LUFA/Drivers/USB/Core/AVR8/../AVR8/Endpoint_AVR8.h **** 			 *  \return Boolean \c true if the configuration succeeded, \c false otherwise.
 195:/users/hunter/downloads/tmk_core/protocol/lufa/LUFA-git/LUFA/Drivers/USB/Core/AVR8/../AVR8/Endpoint_AVR8.h **** 			 */
 196:/users/hunter/downloads/tmk_core/protocol/lufa/LUFA-git/LUFA/Drivers/USB/Core/AVR8/../AVR8/Endpoint_AVR8.h **** 			static inline bool Endpoint_ConfigureEndpoint(const uint8_t Address,
 197:/users/hunter/downloads/tmk_core/protocol/lufa/LUFA-git/LUFA/Drivers/USB/Core/AVR8/../AVR8/Endpoint_AVR8.h **** 			                                              const uint8_t Type,
 198:/users/hunter/downloads/tmk_core/protocol/lufa/LUFA-git/LUFA/Drivers/USB/Core/AVR8/../AVR8/Endpoint_AVR8.h **** 			                                              const uint16_t Size,
 199:/users/hunter/downloads/tmk_core/protocol/lufa/LUFA-git/LUFA/Drivers/USB/Core/AVR8/../AVR8/Endpoint_AVR8.h **** 			                                              const uint8_t Banks) ATTR_ALWAYS_INLINE;
 200:/users/hunter/downloads/tmk_core/protocol/lufa/LUFA-git/LUFA/Drivers/USB/Core/AVR8/../AVR8/Endpoint_AVR8.h **** 			static inline bool Endpoint_ConfigureEndpoint(const uint8_t Address,
 201:/users/hunter/downloads/tmk_core/protocol/lufa/LUFA-git/LUFA/Drivers/USB/Core/AVR8/../AVR8/Endpoint_AVR8.h **** 			                                              const uint8_t Type,
 202:/users/hunter/downloads/tmk_core/protocol/lufa/LUFA-git/LUFA/Drivers/USB/Core/AVR8/../AVR8/Endpoint_AVR8.h **** 			                                              const uint16_t Size,
 203:/users/hunter/downloads/tmk_core/protocol/lufa/LUFA-git/LUFA/Drivers/USB/Core/AVR8/../AVR8/Endpoint_AVR8.h **** 			                                              const uint8_t Banks)
 204:/users/hunter/downloads/tmk_core/protocol/lufa/LUFA-git/LUFA/Drivers/USB/Core/AVR8/../AVR8/Endpoint_AVR8.h **** 			{
 205:/users/hunter/downloads/tmk_core/protocol/lufa/LUFA-git/LUFA/Drivers/USB/Core/AVR8/../AVR8/Endpoint_AVR8.h **** 				uint8_t Number = (Address & ENDPOINT_EPNUM_MASK);
 206:/users/hunter/downloads/tmk_core/protocol/lufa/LUFA-git/LUFA/Drivers/USB/Core/AVR8/../AVR8/Endpoint_AVR8.h **** 
 207:/users/hunter/downloads/tmk_core/protocol/lufa/LUFA-git/LUFA/Drivers/USB/Core/AVR8/../AVR8/Endpoint_AVR8.h **** 				if (Number >= ENDPOINT_TOTAL_ENDPOINTS)
 208:/users/hunter/downloads/tmk_core/protocol/lufa/LUFA-git/LUFA/Drivers/USB/Core/AVR8/../AVR8/Endpoint_AVR8.h **** 				  return false;
 209:/users/hunter/downloads/tmk_core/protocol/lufa/LUFA-git/LUFA/Drivers/USB/Core/AVR8/../AVR8/Endpoint_AVR8.h **** 
 210:/users/hunter/downloads/tmk_core/protocol/lufa/LUFA-git/LUFA/Drivers/USB/Core/AVR8/../AVR8/Endpoint_AVR8.h **** 				return Endpoint_ConfigureEndpoint_Prv(Number,
 211:/users/hunter/downloads/tmk_core/protocol/lufa/LUFA-git/LUFA/Drivers/USB/Core/AVR8/../AVR8/Endpoint_AVR8.h **** 				                                      ((Type << EPTYPE0) | ((Address & ENDPOINT_DIR_IN) ? (1 <<
 212:/users/hunter/downloads/tmk_core/protocol/lufa/LUFA-git/LUFA/Drivers/USB/Core/AVR8/../AVR8/Endpoint_AVR8.h **** 				                                      ((1 << ALLOC) | ((Banks > 1) ? (1 << EPBK0) : 0) | Endpoi
 213:/users/hunter/downloads/tmk_core/protocol/lufa/LUFA-git/LUFA/Drivers/USB/Core/AVR8/../AVR8/Endpoint_AVR8.h **** 			}
 214:/users/hunter/downloads/tmk_core/protocol/lufa/LUFA-git/LUFA/Drivers/USB/Core/AVR8/../AVR8/Endpoint_AVR8.h **** 
 215:/users/hunter/downloads/tmk_core/protocol/lufa/LUFA-git/LUFA/Drivers/USB/Core/AVR8/../AVR8/Endpoint_AVR8.h **** 			/** Indicates the number of bytes currently stored in the current endpoint's selected bank.
 216:/users/hunter/downloads/tmk_core/protocol/lufa/LUFA-git/LUFA/Drivers/USB/Core/AVR8/../AVR8/Endpoint_AVR8.h **** 			 *
 217:/users/hunter/downloads/tmk_core/protocol/lufa/LUFA-git/LUFA/Drivers/USB/Core/AVR8/../AVR8/Endpoint_AVR8.h **** 			 *  \ingroup Group_EndpointRW_AVR8
 218:/users/hunter/downloads/tmk_core/protocol/lufa/LUFA-git/LUFA/Drivers/USB/Core/AVR8/../AVR8/Endpoint_AVR8.h **** 			 *
 219:/users/hunter/downloads/tmk_core/protocol/lufa/LUFA-git/LUFA/Drivers/USB/Core/AVR8/../AVR8/Endpoint_AVR8.h **** 			 *  \return Total number of bytes in the currently selected Endpoint's FIFO buffer.
 220:/users/hunter/downloads/tmk_core/protocol/lufa/LUFA-git/LUFA/Drivers/USB/Core/AVR8/../AVR8/Endpoint_AVR8.h **** 			 */
 221:/users/hunter/downloads/tmk_core/protocol/lufa/LUFA-git/LUFA/Drivers/USB/Core/AVR8/../AVR8/Endpoint_AVR8.h **** 			static inline uint16_t Endpoint_BytesInEndpoint(void) ATTR_WARN_UNUSED_RESULT ATTR_ALWAYS_INLINE
 222:/users/hunter/downloads/tmk_core/protocol/lufa/LUFA-git/LUFA/Drivers/USB/Core/AVR8/../AVR8/Endpoint_AVR8.h **** 			static inline uint16_t Endpoint_BytesInEndpoint(void)
 223:/users/hunter/downloads/tmk_core/protocol/lufa/LUFA-git/LUFA/Drivers/USB/Core/AVR8/../AVR8/Endpoint_AVR8.h **** 			{
 224:/users/hunter/downloads/tmk_core/protocol/lufa/LUFA-git/LUFA/Drivers/USB/Core/AVR8/../AVR8/Endpoint_AVR8.h **** 				#if (defined(USB_SERIES_6_AVR) || defined(USB_SERIES_7_AVR))
 225:/users/hunter/downloads/tmk_core/protocol/lufa/LUFA-git/LUFA/Drivers/USB/Core/AVR8/../AVR8/Endpoint_AVR8.h **** 					return UEBCX;
 226:/users/hunter/downloads/tmk_core/protocol/lufa/LUFA-git/LUFA/Drivers/USB/Core/AVR8/../AVR8/Endpoint_AVR8.h **** 				#elif defined(USB_SERIES_4_AVR)
 227:/users/hunter/downloads/tmk_core/protocol/lufa/LUFA-git/LUFA/Drivers/USB/Core/AVR8/../AVR8/Endpoint_AVR8.h **** 					return (((uint16_t)UEBCHX << 8) | UEBCLX);
 228:/users/hunter/downloads/tmk_core/protocol/lufa/LUFA-git/LUFA/Drivers/USB/Core/AVR8/../AVR8/Endpoint_AVR8.h **** 				#elif defined(USB_SERIES_2_AVR)
 229:/users/hunter/downloads/tmk_core/protocol/lufa/LUFA-git/LUFA/Drivers/USB/Core/AVR8/../AVR8/Endpoint_AVR8.h **** 					return UEBCLX;
 230:/users/hunter/downloads/tmk_core/protocol/lufa/LUFA-git/LUFA/Drivers/USB/Core/AVR8/../AVR8/Endpoint_AVR8.h **** 				#endif
 231:/users/hunter/downloads/tmk_core/protocol/lufa/LUFA-git/LUFA/Drivers/USB/Core/AVR8/../AVR8/Endpoint_AVR8.h **** 			}
 232:/users/hunter/downloads/tmk_core/protocol/lufa/LUFA-git/LUFA/Drivers/USB/Core/AVR8/../AVR8/Endpoint_AVR8.h **** 
 233:/users/hunter/downloads/tmk_core/protocol/lufa/LUFA-git/LUFA/Drivers/USB/Core/AVR8/../AVR8/Endpoint_AVR8.h **** 			/** Determines the currently selected endpoint's direction.
 234:/users/hunter/downloads/tmk_core/protocol/lufa/LUFA-git/LUFA/Drivers/USB/Core/AVR8/../AVR8/Endpoint_AVR8.h **** 			 *
 235:/users/hunter/downloads/tmk_core/protocol/lufa/LUFA-git/LUFA/Drivers/USB/Core/AVR8/../AVR8/Endpoint_AVR8.h **** 			 *  \return The currently selected endpoint's direction, as a \c ENDPOINT_DIR_* mask.
 236:/users/hunter/downloads/tmk_core/protocol/lufa/LUFA-git/LUFA/Drivers/USB/Core/AVR8/../AVR8/Endpoint_AVR8.h **** 			 */
 237:/users/hunter/downloads/tmk_core/protocol/lufa/LUFA-git/LUFA/Drivers/USB/Core/AVR8/../AVR8/Endpoint_AVR8.h **** 			static inline uint8_t Endpoint_GetEndpointDirection(void) ATTR_WARN_UNUSED_RESULT ATTR_ALWAYS_IN
 238:/users/hunter/downloads/tmk_core/protocol/lufa/LUFA-git/LUFA/Drivers/USB/Core/AVR8/../AVR8/Endpoint_AVR8.h **** 			static inline uint8_t Endpoint_GetEndpointDirection(void)
 239:/users/hunter/downloads/tmk_core/protocol/lufa/LUFA-git/LUFA/Drivers/USB/Core/AVR8/../AVR8/Endpoint_AVR8.h **** 			{
 240:/users/hunter/downloads/tmk_core/protocol/lufa/LUFA-git/LUFA/Drivers/USB/Core/AVR8/../AVR8/Endpoint_AVR8.h **** 				return (UECFG0X & (1 << EPDIR)) ? ENDPOINT_DIR_IN : ENDPOINT_DIR_OUT;
 241:/users/hunter/downloads/tmk_core/protocol/lufa/LUFA-git/LUFA/Drivers/USB/Core/AVR8/../AVR8/Endpoint_AVR8.h **** 			}
 242:/users/hunter/downloads/tmk_core/protocol/lufa/LUFA-git/LUFA/Drivers/USB/Core/AVR8/../AVR8/Endpoint_AVR8.h **** 
 243:/users/hunter/downloads/tmk_core/protocol/lufa/LUFA-git/LUFA/Drivers/USB/Core/AVR8/../AVR8/Endpoint_AVR8.h **** 			/** Get the endpoint address of the currently selected endpoint. This is typically used to save
 244:/users/hunter/downloads/tmk_core/protocol/lufa/LUFA-git/LUFA/Drivers/USB/Core/AVR8/../AVR8/Endpoint_AVR8.h **** 			 *  the currently selected endpoint so that it can be restored after another endpoint has been
 245:/users/hunter/downloads/tmk_core/protocol/lufa/LUFA-git/LUFA/Drivers/USB/Core/AVR8/../AVR8/Endpoint_AVR8.h **** 			 *  manipulated.
 246:/users/hunter/downloads/tmk_core/protocol/lufa/LUFA-git/LUFA/Drivers/USB/Core/AVR8/../AVR8/Endpoint_AVR8.h **** 			 *
 247:/users/hunter/downloads/tmk_core/protocol/lufa/LUFA-git/LUFA/Drivers/USB/Core/AVR8/../AVR8/Endpoint_AVR8.h **** 			 *  \return Index of the currently selected endpoint.
 248:/users/hunter/downloads/tmk_core/protocol/lufa/LUFA-git/LUFA/Drivers/USB/Core/AVR8/../AVR8/Endpoint_AVR8.h **** 			 */
 249:/users/hunter/downloads/tmk_core/protocol/lufa/LUFA-git/LUFA/Drivers/USB/Core/AVR8/../AVR8/Endpoint_AVR8.h **** 			static inline uint8_t Endpoint_GetCurrentEndpoint(void) ATTR_WARN_UNUSED_RESULT ATTR_ALWAYS_INLI
 250:/users/hunter/downloads/tmk_core/protocol/lufa/LUFA-git/LUFA/Drivers/USB/Core/AVR8/../AVR8/Endpoint_AVR8.h **** 			static inline uint8_t Endpoint_GetCurrentEndpoint(void)
 251:/users/hunter/downloads/tmk_core/protocol/lufa/LUFA-git/LUFA/Drivers/USB/Core/AVR8/../AVR8/Endpoint_AVR8.h **** 			{
 252:/users/hunter/downloads/tmk_core/protocol/lufa/LUFA-git/LUFA/Drivers/USB/Core/AVR8/../AVR8/Endpoint_AVR8.h **** 				#if !defined(CONTROL_ONLY_DEVICE)
 253:/users/hunter/downloads/tmk_core/protocol/lufa/LUFA-git/LUFA/Drivers/USB/Core/AVR8/../AVR8/Endpoint_AVR8.h **** 					return ((UENUM & ENDPOINT_EPNUM_MASK) | Endpoint_GetEndpointDirection());
  78               		.loc 2 253 0
  79 0014 2091 E900 		lds r18,233
  80 0018 2F70      		andi r18,lo8(15)
  81               	.LBB149:
  82               	.LBB150:
 240:/users/hunter/downloads/tmk_core/protocol/lufa/LUFA-git/LUFA/Drivers/USB/Core/AVR8/../AVR8/Endpoint_AVR8.h **** 			}
  83               		.loc 2 240 0
  84 001a 9091 EC00 		lds r25,236
  85 001e 90FD      		sbrc r25,0
  86 0020 00C0      		rjmp .L16
  87 0022 90E0      		ldi r25,0
  88               	.L5:
  89               	.LBE150:
  90               	.LBE149:
  91               		.loc 2 253 0
  92 0024 922B      		or r25,r18
  93               	.LVL4:
  94               	.LBE148:
  95               	.LBE147:
  96               	.LBB154:
  97               	.LBB155:
 254:/users/hunter/downloads/tmk_core/protocol/lufa/LUFA-git/LUFA/Drivers/USB/Core/AVR8/../AVR8/Endpoint_AVR8.h **** 				#else
 255:/users/hunter/downloads/tmk_core/protocol/lufa/LUFA-git/LUFA/Drivers/USB/Core/AVR8/../AVR8/Endpoint_AVR8.h **** 					return ENDPOINT_CONTROLEP;
 256:/users/hunter/downloads/tmk_core/protocol/lufa/LUFA-git/LUFA/Drivers/USB/Core/AVR8/../AVR8/Endpoint_AVR8.h **** 				#endif
 257:/users/hunter/downloads/tmk_core/protocol/lufa/LUFA-git/LUFA/Drivers/USB/Core/AVR8/../AVR8/Endpoint_AVR8.h **** 			}
 258:/users/hunter/downloads/tmk_core/protocol/lufa/LUFA-git/LUFA/Drivers/USB/Core/AVR8/../AVR8/Endpoint_AVR8.h **** 
 259:/users/hunter/downloads/tmk_core/protocol/lufa/LUFA-git/LUFA/Drivers/USB/Core/AVR8/../AVR8/Endpoint_AVR8.h **** 			/** Selects the given endpoint address.
 260:/users/hunter/downloads/tmk_core/protocol/lufa/LUFA-git/LUFA/Drivers/USB/Core/AVR8/../AVR8/Endpoint_AVR8.h **** 			 *
 261:/users/hunter/downloads/tmk_core/protocol/lufa/LUFA-git/LUFA/Drivers/USB/Core/AVR8/../AVR8/Endpoint_AVR8.h **** 			 *  Any endpoint operations which do not require the endpoint address to be indicated will opera
 262:/users/hunter/downloads/tmk_core/protocol/lufa/LUFA-git/LUFA/Drivers/USB/Core/AVR8/../AVR8/Endpoint_AVR8.h **** 			 *  the currently selected endpoint.
 263:/users/hunter/downloads/tmk_core/protocol/lufa/LUFA-git/LUFA/Drivers/USB/Core/AVR8/../AVR8/Endpoint_AVR8.h **** 			 *
 264:/users/hunter/downloads/tmk_core/protocol/lufa/LUFA-git/LUFA/Drivers/USB/Core/AVR8/../AVR8/Endpoint_AVR8.h **** 			 *  \param[in] Address Endpoint address to select.
 265:/users/hunter/downloads/tmk_core/protocol/lufa/LUFA-git/LUFA/Drivers/USB/Core/AVR8/../AVR8/Endpoint_AVR8.h **** 			 */
 266:/users/hunter/downloads/tmk_core/protocol/lufa/LUFA-git/LUFA/Drivers/USB/Core/AVR8/../AVR8/Endpoint_AVR8.h **** 			static inline void Endpoint_SelectEndpoint(const uint8_t Address) ATTR_ALWAYS_INLINE;
 267:/users/hunter/downloads/tmk_core/protocol/lufa/LUFA-git/LUFA/Drivers/USB/Core/AVR8/../AVR8/Endpoint_AVR8.h **** 			static inline void Endpoint_SelectEndpoint(const uint8_t Address)
 268:/users/hunter/downloads/tmk_core/protocol/lufa/LUFA-git/LUFA/Drivers/USB/Core/AVR8/../AVR8/Endpoint_AVR8.h **** 			{
 269:/users/hunter/downloads/tmk_core/protocol/lufa/LUFA-git/LUFA/Drivers/USB/Core/AVR8/../AVR8/Endpoint_AVR8.h **** 				#if !defined(CONTROL_ONLY_DEVICE)
 270:/users/hunter/downloads/tmk_core/protocol/lufa/LUFA-git/LUFA/Drivers/USB/Core/AVR8/../AVR8/Endpoint_AVR8.h **** 					UENUM = (Address & ENDPOINT_EPNUM_MASK);
  98               		.loc 2 270 0
  99 0026 22E0      		ldi r18,lo8(2)
 100 0028 2093 E900 		sts 233,r18
 101               	.LVL5:
 102               	.LBE155:
 103               	.LBE154:
 104               	.LBB156:
 105               	.LBB157:
 271:/users/hunter/downloads/tmk_core/protocol/lufa/LUFA-git/LUFA/Drivers/USB/Core/AVR8/../AVR8/Endpoint_AVR8.h **** 				#endif
 272:/users/hunter/downloads/tmk_core/protocol/lufa/LUFA-git/LUFA/Drivers/USB/Core/AVR8/../AVR8/Endpoint_AVR8.h **** 			}
 273:/users/hunter/downloads/tmk_core/protocol/lufa/LUFA-git/LUFA/Drivers/USB/Core/AVR8/../AVR8/Endpoint_AVR8.h **** 
 274:/users/hunter/downloads/tmk_core/protocol/lufa/LUFA-git/LUFA/Drivers/USB/Core/AVR8/../AVR8/Endpoint_AVR8.h **** 			/** Resets the endpoint bank FIFO. This clears all the endpoint banks and resets the USB control
 275:/users/hunter/downloads/tmk_core/protocol/lufa/LUFA-git/LUFA/Drivers/USB/Core/AVR8/../AVR8/Endpoint_AVR8.h **** 			 *  data In and Out pointers to the bank's contents.
 276:/users/hunter/downloads/tmk_core/protocol/lufa/LUFA-git/LUFA/Drivers/USB/Core/AVR8/../AVR8/Endpoint_AVR8.h **** 			 *
 277:/users/hunter/downloads/tmk_core/protocol/lufa/LUFA-git/LUFA/Drivers/USB/Core/AVR8/../AVR8/Endpoint_AVR8.h **** 			 *  \param[in] Address  Endpoint address whose FIFO buffers are to be reset.
 278:/users/hunter/downloads/tmk_core/protocol/lufa/LUFA-git/LUFA/Drivers/USB/Core/AVR8/../AVR8/Endpoint_AVR8.h **** 			 */
 279:/users/hunter/downloads/tmk_core/protocol/lufa/LUFA-git/LUFA/Drivers/USB/Core/AVR8/../AVR8/Endpoint_AVR8.h **** 			static inline void Endpoint_ResetEndpoint(const uint8_t Address) ATTR_ALWAYS_INLINE;
 280:/users/hunter/downloads/tmk_core/protocol/lufa/LUFA-git/LUFA/Drivers/USB/Core/AVR8/../AVR8/Endpoint_AVR8.h **** 			static inline void Endpoint_ResetEndpoint(const uint8_t Address)
 281:/users/hunter/downloads/tmk_core/protocol/lufa/LUFA-git/LUFA/Drivers/USB/Core/AVR8/../AVR8/Endpoint_AVR8.h **** 			{
 282:/users/hunter/downloads/tmk_core/protocol/lufa/LUFA-git/LUFA/Drivers/USB/Core/AVR8/../AVR8/Endpoint_AVR8.h **** 				UERST = (1 << (Address & ENDPOINT_EPNUM_MASK));
 283:/users/hunter/downloads/tmk_core/protocol/lufa/LUFA-git/LUFA/Drivers/USB/Core/AVR8/../AVR8/Endpoint_AVR8.h **** 				UERST = 0;
 284:/users/hunter/downloads/tmk_core/protocol/lufa/LUFA-git/LUFA/Drivers/USB/Core/AVR8/../AVR8/Endpoint_AVR8.h **** 			}
 285:/users/hunter/downloads/tmk_core/protocol/lufa/LUFA-git/LUFA/Drivers/USB/Core/AVR8/../AVR8/Endpoint_AVR8.h **** 
 286:/users/hunter/downloads/tmk_core/protocol/lufa/LUFA-git/LUFA/Drivers/USB/Core/AVR8/../AVR8/Endpoint_AVR8.h **** 			/** Enables the currently selected endpoint so that data can be sent and received through it to
 287:/users/hunter/downloads/tmk_core/protocol/lufa/LUFA-git/LUFA/Drivers/USB/Core/AVR8/../AVR8/Endpoint_AVR8.h **** 			 *  and from a host.
 288:/users/hunter/downloads/tmk_core/protocol/lufa/LUFA-git/LUFA/Drivers/USB/Core/AVR8/../AVR8/Endpoint_AVR8.h **** 			 *
 289:/users/hunter/downloads/tmk_core/protocol/lufa/LUFA-git/LUFA/Drivers/USB/Core/AVR8/../AVR8/Endpoint_AVR8.h **** 			 *  \note Endpoints must first be configured properly via \ref Endpoint_ConfigureEndpoint().
 290:/users/hunter/downloads/tmk_core/protocol/lufa/LUFA-git/LUFA/Drivers/USB/Core/AVR8/../AVR8/Endpoint_AVR8.h **** 			 */
 291:/users/hunter/downloads/tmk_core/protocol/lufa/LUFA-git/LUFA/Drivers/USB/Core/AVR8/../AVR8/Endpoint_AVR8.h **** 			static inline void Endpoint_EnableEndpoint(void) ATTR_ALWAYS_INLINE;
 292:/users/hunter/downloads/tmk_core/protocol/lufa/LUFA-git/LUFA/Drivers/USB/Core/AVR8/../AVR8/Endpoint_AVR8.h **** 			static inline void Endpoint_EnableEndpoint(void)
 293:/users/hunter/downloads/tmk_core/protocol/lufa/LUFA-git/LUFA/Drivers/USB/Core/AVR8/../AVR8/Endpoint_AVR8.h **** 			{
 294:/users/hunter/downloads/tmk_core/protocol/lufa/LUFA-git/LUFA/Drivers/USB/Core/AVR8/../AVR8/Endpoint_AVR8.h **** 				UECONX |= (1 << EPEN);
 295:/users/hunter/downloads/tmk_core/protocol/lufa/LUFA-git/LUFA/Drivers/USB/Core/AVR8/../AVR8/Endpoint_AVR8.h **** 			}
 296:/users/hunter/downloads/tmk_core/protocol/lufa/LUFA-git/LUFA/Drivers/USB/Core/AVR8/../AVR8/Endpoint_AVR8.h **** 
 297:/users/hunter/downloads/tmk_core/protocol/lufa/LUFA-git/LUFA/Drivers/USB/Core/AVR8/../AVR8/Endpoint_AVR8.h **** 			/** Disables the currently selected endpoint so that data cannot be sent and received through it
 298:/users/hunter/downloads/tmk_core/protocol/lufa/LUFA-git/LUFA/Drivers/USB/Core/AVR8/../AVR8/Endpoint_AVR8.h **** 			 *  to and from a host.
 299:/users/hunter/downloads/tmk_core/protocol/lufa/LUFA-git/LUFA/Drivers/USB/Core/AVR8/../AVR8/Endpoint_AVR8.h **** 			 */
 300:/users/hunter/downloads/tmk_core/protocol/lufa/LUFA-git/LUFA/Drivers/USB/Core/AVR8/../AVR8/Endpoint_AVR8.h **** 			static inline void Endpoint_DisableEndpoint(void) ATTR_ALWAYS_INLINE;
 301:/users/hunter/downloads/tmk_core/protocol/lufa/LUFA-git/LUFA/Drivers/USB/Core/AVR8/../AVR8/Endpoint_AVR8.h **** 			static inline void Endpoint_DisableEndpoint(void)
 302:/users/hunter/downloads/tmk_core/protocol/lufa/LUFA-git/LUFA/Drivers/USB/Core/AVR8/../AVR8/Endpoint_AVR8.h **** 			{
 303:/users/hunter/downloads/tmk_core/protocol/lufa/LUFA-git/LUFA/Drivers/USB/Core/AVR8/../AVR8/Endpoint_AVR8.h **** 				UECONX &= ~(1 << EPEN);
 304:/users/hunter/downloads/tmk_core/protocol/lufa/LUFA-git/LUFA/Drivers/USB/Core/AVR8/../AVR8/Endpoint_AVR8.h **** 			}
 305:/users/hunter/downloads/tmk_core/protocol/lufa/LUFA-git/LUFA/Drivers/USB/Core/AVR8/../AVR8/Endpoint_AVR8.h **** 
 306:/users/hunter/downloads/tmk_core/protocol/lufa/LUFA-git/LUFA/Drivers/USB/Core/AVR8/../AVR8/Endpoint_AVR8.h **** 			/** Determines if the currently selected endpoint is enabled, but not necessarily configured.
 307:/users/hunter/downloads/tmk_core/protocol/lufa/LUFA-git/LUFA/Drivers/USB/Core/AVR8/../AVR8/Endpoint_AVR8.h **** 			 *
 308:/users/hunter/downloads/tmk_core/protocol/lufa/LUFA-git/LUFA/Drivers/USB/Core/AVR8/../AVR8/Endpoint_AVR8.h **** 			 * \return Boolean \c true if the currently selected endpoint is enabled, \c false otherwise.
 309:/users/hunter/downloads/tmk_core/protocol/lufa/LUFA-git/LUFA/Drivers/USB/Core/AVR8/../AVR8/Endpoint_AVR8.h **** 			 */
 310:/users/hunter/downloads/tmk_core/protocol/lufa/LUFA-git/LUFA/Drivers/USB/Core/AVR8/../AVR8/Endpoint_AVR8.h **** 			static inline bool Endpoint_IsEnabled(void) ATTR_WARN_UNUSED_RESULT ATTR_ALWAYS_INLINE;
 311:/users/hunter/downloads/tmk_core/protocol/lufa/LUFA-git/LUFA/Drivers/USB/Core/AVR8/../AVR8/Endpoint_AVR8.h **** 			static inline bool Endpoint_IsEnabled(void)
 312:/users/hunter/downloads/tmk_core/protocol/lufa/LUFA-git/LUFA/Drivers/USB/Core/AVR8/../AVR8/Endpoint_AVR8.h **** 			{
 313:/users/hunter/downloads/tmk_core/protocol/lufa/LUFA-git/LUFA/Drivers/USB/Core/AVR8/../AVR8/Endpoint_AVR8.h **** 				return ((UECONX & (1 << EPEN)) ? true : false);
 106               		.loc 2 313 0
 107 002c 2091 EB00 		lds r18,235
 108               	.LBE157:
 109               	.LBE156:
 545:/users/hunter/downloads/tmk_core/protocol/lufa/lufa.c ****         return -1;
 546:/users/hunter/downloads/tmk_core/protocol/lufa/lufa.c **** 
 547:/users/hunter/downloads/tmk_core/protocol/lufa/lufa.c ****     uint8_t ep = Endpoint_GetCurrentEndpoint();
 548:/users/hunter/downloads/tmk_core/protocol/lufa/lufa.c ****     Endpoint_SelectEndpoint(CONSOLE_IN_EPNUM);
 549:/users/hunter/downloads/tmk_core/protocol/lufa/lufa.c ****     if (!Endpoint_IsEnabled() || !Endpoint_IsConfigured()) {
 110               		.loc 1 549 0
 111 0030 20FF      		sbrs r18,0
 112 0032 00C0      		rjmp .L10
 113               	.LBB158:
 114               	.LBB159:
 314:/users/hunter/downloads/tmk_core/protocol/lufa/LUFA-git/LUFA/Drivers/USB/Core/AVR8/../AVR8/Endpoint_AVR8.h **** 			}
 315:/users/hunter/downloads/tmk_core/protocol/lufa/LUFA-git/LUFA/Drivers/USB/Core/AVR8/../AVR8/Endpoint_AVR8.h **** 
 316:/users/hunter/downloads/tmk_core/protocol/lufa/LUFA-git/LUFA/Drivers/USB/Core/AVR8/../AVR8/Endpoint_AVR8.h **** 			/** Retrieves the number of busy banks in the currently selected endpoint, which have been queue
 317:/users/hunter/downloads/tmk_core/protocol/lufa/LUFA-git/LUFA/Drivers/USB/Core/AVR8/../AVR8/Endpoint_AVR8.h **** 			 *  transmission via the \ref Endpoint_ClearIN() command, or are awaiting acknowledgment via the
 318:/users/hunter/downloads/tmk_core/protocol/lufa/LUFA-git/LUFA/Drivers/USB/Core/AVR8/../AVR8/Endpoint_AVR8.h **** 			 *  \ref Endpoint_ClearOUT() command.
 319:/users/hunter/downloads/tmk_core/protocol/lufa/LUFA-git/LUFA/Drivers/USB/Core/AVR8/../AVR8/Endpoint_AVR8.h **** 			 *
 320:/users/hunter/downloads/tmk_core/protocol/lufa/LUFA-git/LUFA/Drivers/USB/Core/AVR8/../AVR8/Endpoint_AVR8.h **** 			 *  \ingroup Group_EndpointPacketManagement_AVR8
 321:/users/hunter/downloads/tmk_core/protocol/lufa/LUFA-git/LUFA/Drivers/USB/Core/AVR8/../AVR8/Endpoint_AVR8.h **** 			 *
 322:/users/hunter/downloads/tmk_core/protocol/lufa/LUFA-git/LUFA/Drivers/USB/Core/AVR8/../AVR8/Endpoint_AVR8.h **** 			 *  \return Total number of busy banks in the selected endpoint.
 323:/users/hunter/downloads/tmk_core/protocol/lufa/LUFA-git/LUFA/Drivers/USB/Core/AVR8/../AVR8/Endpoint_AVR8.h **** 			 */
 324:/users/hunter/downloads/tmk_core/protocol/lufa/LUFA-git/LUFA/Drivers/USB/Core/AVR8/../AVR8/Endpoint_AVR8.h **** 			static inline uint8_t Endpoint_GetBusyBanks(void) ATTR_ALWAYS_INLINE ATTR_WARN_UNUSED_RESULT;
 325:/users/hunter/downloads/tmk_core/protocol/lufa/LUFA-git/LUFA/Drivers/USB/Core/AVR8/../AVR8/Endpoint_AVR8.h **** 			static inline uint8_t Endpoint_GetBusyBanks(void)
 326:/users/hunter/downloads/tmk_core/protocol/lufa/LUFA-git/LUFA/Drivers/USB/Core/AVR8/../AVR8/Endpoint_AVR8.h **** 			{
 327:/users/hunter/downloads/tmk_core/protocol/lufa/LUFA-git/LUFA/Drivers/USB/Core/AVR8/../AVR8/Endpoint_AVR8.h **** 				return (UESTA0X & (0x03 << NBUSYBK0));
 328:/users/hunter/downloads/tmk_core/protocol/lufa/LUFA-git/LUFA/Drivers/USB/Core/AVR8/../AVR8/Endpoint_AVR8.h **** 			}
 329:/users/hunter/downloads/tmk_core/protocol/lufa/LUFA-git/LUFA/Drivers/USB/Core/AVR8/../AVR8/Endpoint_AVR8.h **** 
 330:/users/hunter/downloads/tmk_core/protocol/lufa/LUFA-git/LUFA/Drivers/USB/Core/AVR8/../AVR8/Endpoint_AVR8.h **** 			/** Aborts all pending IN transactions on the currently selected endpoint, once the bank
 331:/users/hunter/downloads/tmk_core/protocol/lufa/LUFA-git/LUFA/Drivers/USB/Core/AVR8/../AVR8/Endpoint_AVR8.h **** 			 *  has been queued for transmission to the host via \ref Endpoint_ClearIN(). This function
 332:/users/hunter/downloads/tmk_core/protocol/lufa/LUFA-git/LUFA/Drivers/USB/Core/AVR8/../AVR8/Endpoint_AVR8.h **** 			 *  will terminate all queued transactions, resetting the endpoint banks ready for a new
 333:/users/hunter/downloads/tmk_core/protocol/lufa/LUFA-git/LUFA/Drivers/USB/Core/AVR8/../AVR8/Endpoint_AVR8.h **** 			 *  packet.
 334:/users/hunter/downloads/tmk_core/protocol/lufa/LUFA-git/LUFA/Drivers/USB/Core/AVR8/../AVR8/Endpoint_AVR8.h **** 			 *
 335:/users/hunter/downloads/tmk_core/protocol/lufa/LUFA-git/LUFA/Drivers/USB/Core/AVR8/../AVR8/Endpoint_AVR8.h **** 			 *  \ingroup Group_EndpointPacketManagement_AVR8
 336:/users/hunter/downloads/tmk_core/protocol/lufa/LUFA-git/LUFA/Drivers/USB/Core/AVR8/../AVR8/Endpoint_AVR8.h **** 			 */
 337:/users/hunter/downloads/tmk_core/protocol/lufa/LUFA-git/LUFA/Drivers/USB/Core/AVR8/../AVR8/Endpoint_AVR8.h **** 			static inline void Endpoint_AbortPendingIN(void)
 338:/users/hunter/downloads/tmk_core/protocol/lufa/LUFA-git/LUFA/Drivers/USB/Core/AVR8/../AVR8/Endpoint_AVR8.h **** 			{
 339:/users/hunter/downloads/tmk_core/protocol/lufa/LUFA-git/LUFA/Drivers/USB/Core/AVR8/../AVR8/Endpoint_AVR8.h **** 				while (Endpoint_GetBusyBanks() != 0)
 340:/users/hunter/downloads/tmk_core/protocol/lufa/LUFA-git/LUFA/Drivers/USB/Core/AVR8/../AVR8/Endpoint_AVR8.h **** 				{
 341:/users/hunter/downloads/tmk_core/protocol/lufa/LUFA-git/LUFA/Drivers/USB/Core/AVR8/../AVR8/Endpoint_AVR8.h **** 					UEINTX |= (1 << RXOUTI);
 342:/users/hunter/downloads/tmk_core/protocol/lufa/LUFA-git/LUFA/Drivers/USB/Core/AVR8/../AVR8/Endpoint_AVR8.h **** 					while (UEINTX & (1 << RXOUTI));
 343:/users/hunter/downloads/tmk_core/protocol/lufa/LUFA-git/LUFA/Drivers/USB/Core/AVR8/../AVR8/Endpoint_AVR8.h **** 				}
 344:/users/hunter/downloads/tmk_core/protocol/lufa/LUFA-git/LUFA/Drivers/USB/Core/AVR8/../AVR8/Endpoint_AVR8.h **** 			}
 345:/users/hunter/downloads/tmk_core/protocol/lufa/LUFA-git/LUFA/Drivers/USB/Core/AVR8/../AVR8/Endpoint_AVR8.h **** 
 346:/users/hunter/downloads/tmk_core/protocol/lufa/LUFA-git/LUFA/Drivers/USB/Core/AVR8/../AVR8/Endpoint_AVR8.h **** 			/** Determines if the currently selected endpoint may be read from (if data is waiting in the en
 347:/users/hunter/downloads/tmk_core/protocol/lufa/LUFA-git/LUFA/Drivers/USB/Core/AVR8/../AVR8/Endpoint_AVR8.h **** 			 *  bank and the endpoint is an OUT direction, or if the bank is not yet full if the endpoint is
 348:/users/hunter/downloads/tmk_core/protocol/lufa/LUFA-git/LUFA/Drivers/USB/Core/AVR8/../AVR8/Endpoint_AVR8.h **** 			 *  direction). This function will return false if an error has occurred in the endpoint, if the
 349:/users/hunter/downloads/tmk_core/protocol/lufa/LUFA-git/LUFA/Drivers/USB/Core/AVR8/../AVR8/Endpoint_AVR8.h **** 			 *  is an OUT direction and no packet (or an empty packet) has been received, or if the endpoint
 350:/users/hunter/downloads/tmk_core/protocol/lufa/LUFA-git/LUFA/Drivers/USB/Core/AVR8/../AVR8/Endpoint_AVR8.h **** 			 *  direction and the endpoint bank is full.
 351:/users/hunter/downloads/tmk_core/protocol/lufa/LUFA-git/LUFA/Drivers/USB/Core/AVR8/../AVR8/Endpoint_AVR8.h **** 			 *
 352:/users/hunter/downloads/tmk_core/protocol/lufa/LUFA-git/LUFA/Drivers/USB/Core/AVR8/../AVR8/Endpoint_AVR8.h **** 			 *  \ingroup Group_EndpointPacketManagement_AVR8
 353:/users/hunter/downloads/tmk_core/protocol/lufa/LUFA-git/LUFA/Drivers/USB/Core/AVR8/../AVR8/Endpoint_AVR8.h **** 			 *
 354:/users/hunter/downloads/tmk_core/protocol/lufa/LUFA-git/LUFA/Drivers/USB/Core/AVR8/../AVR8/Endpoint_AVR8.h **** 			 *  \return Boolean \c true if the currently selected endpoint may be read from or written to, d
 355:/users/hunter/downloads/tmk_core/protocol/lufa/LUFA-git/LUFA/Drivers/USB/Core/AVR8/../AVR8/Endpoint_AVR8.h **** 			 *          on its direction.
 356:/users/hunter/downloads/tmk_core/protocol/lufa/LUFA-git/LUFA/Drivers/USB/Core/AVR8/../AVR8/Endpoint_AVR8.h **** 			 */
 357:/users/hunter/downloads/tmk_core/protocol/lufa/LUFA-git/LUFA/Drivers/USB/Core/AVR8/../AVR8/Endpoint_AVR8.h **** 			static inline bool Endpoint_IsReadWriteAllowed(void) ATTR_WARN_UNUSED_RESULT ATTR_ALWAYS_INLINE;
 358:/users/hunter/downloads/tmk_core/protocol/lufa/LUFA-git/LUFA/Drivers/USB/Core/AVR8/../AVR8/Endpoint_AVR8.h **** 			static inline bool Endpoint_IsReadWriteAllowed(void)
 359:/users/hunter/downloads/tmk_core/protocol/lufa/LUFA-git/LUFA/Drivers/USB/Core/AVR8/../AVR8/Endpoint_AVR8.h **** 			{
 360:/users/hunter/downloads/tmk_core/protocol/lufa/LUFA-git/LUFA/Drivers/USB/Core/AVR8/../AVR8/Endpoint_AVR8.h **** 				return ((UEINTX & (1 << RWAL)) ? true : false);
 361:/users/hunter/downloads/tmk_core/protocol/lufa/LUFA-git/LUFA/Drivers/USB/Core/AVR8/../AVR8/Endpoint_AVR8.h **** 			}
 362:/users/hunter/downloads/tmk_core/protocol/lufa/LUFA-git/LUFA/Drivers/USB/Core/AVR8/../AVR8/Endpoint_AVR8.h **** 
 363:/users/hunter/downloads/tmk_core/protocol/lufa/LUFA-git/LUFA/Drivers/USB/Core/AVR8/../AVR8/Endpoint_AVR8.h **** 			/** Determines if the currently selected endpoint is configured.
 364:/users/hunter/downloads/tmk_core/protocol/lufa/LUFA-git/LUFA/Drivers/USB/Core/AVR8/../AVR8/Endpoint_AVR8.h **** 			 *
 365:/users/hunter/downloads/tmk_core/protocol/lufa/LUFA-git/LUFA/Drivers/USB/Core/AVR8/../AVR8/Endpoint_AVR8.h **** 			 *  \return Boolean \c true if the currently selected endpoint has been configured, \c false oth
 366:/users/hunter/downloads/tmk_core/protocol/lufa/LUFA-git/LUFA/Drivers/USB/Core/AVR8/../AVR8/Endpoint_AVR8.h **** 			 */
 367:/users/hunter/downloads/tmk_core/protocol/lufa/LUFA-git/LUFA/Drivers/USB/Core/AVR8/../AVR8/Endpoint_AVR8.h **** 			static inline bool Endpoint_IsConfigured(void) ATTR_WARN_UNUSED_RESULT ATTR_ALWAYS_INLINE;
 368:/users/hunter/downloads/tmk_core/protocol/lufa/LUFA-git/LUFA/Drivers/USB/Core/AVR8/../AVR8/Endpoint_AVR8.h **** 			static inline bool Endpoint_IsConfigured(void)
 369:/users/hunter/downloads/tmk_core/protocol/lufa/LUFA-git/LUFA/Drivers/USB/Core/AVR8/../AVR8/Endpoint_AVR8.h **** 			{
 370:/users/hunter/downloads/tmk_core/protocol/lufa/LUFA-git/LUFA/Drivers/USB/Core/AVR8/../AVR8/Endpoint_AVR8.h **** 				return ((UESTA0X & (1 << CFGOK)) ? true : false);
 115               		.loc 2 370 0
 116 0034 2091 EE00 		lds r18,238
 117               	.LBE159:
 118               	.LBE158:
 119               		.loc 1 549 0
 120 0038 27FF      		sbrs r18,7
 121 003a 00C0      		rjmp .L10
 550:/users/hunter/downloads/tmk_core/protocol/lufa/lufa.c ****         goto ERROR_EXIT;
 551:/users/hunter/downloads/tmk_core/protocol/lufa/lufa.c ****     }
 552:/users/hunter/downloads/tmk_core/protocol/lufa/lufa.c **** 
 553:/users/hunter/downloads/tmk_core/protocol/lufa/lufa.c ****     if (timeouted && !Endpoint_IsReadWriteAllowed()) {
 122               		.loc 1 553 0
 123 003c 2091 0000 		lds r18,timeouted.4841
 124 0040 2223      		tst r18
 125 0042 01F0      		breq .L7
 126               	.LBB160:
 127               	.LBB161:
 360:/users/hunter/downloads/tmk_core/protocol/lufa/LUFA-git/LUFA/Drivers/USB/Core/AVR8/../AVR8/Endpoint_AVR8.h **** 			}
 128               		.loc 2 360 0
 129 0044 2091 E800 		lds r18,232
 130               	.LBE161:
 131               	.LBE160:
 132               		.loc 1 553 0
 133 0048 25FF      		sbrs r18,5
 134 004a 00C0      		rjmp .L10
 135               	.L7:
 554:/users/hunter/downloads/tmk_core/protocol/lufa/lufa.c ****         goto ERROR_EXIT;
 555:/users/hunter/downloads/tmk_core/protocol/lufa/lufa.c ****     }
 556:/users/hunter/downloads/tmk_core/protocol/lufa/lufa.c **** 
 557:/users/hunter/downloads/tmk_core/protocol/lufa/lufa.c ****     timeouted = false;
 136               		.loc 1 557 0
 137 004c 1092 0000 		sts timeouted.4841,__zero_reg__
 138               	.LVL6:
 558:/users/hunter/downloads/tmk_core/protocol/lufa/lufa.c **** 
 559:/users/hunter/downloads/tmk_core/protocol/lufa/lufa.c ****     uint8_t timeout = SEND_TIMEOUT;
 560:/users/hunter/downloads/tmk_core/protocol/lufa/lufa.c ****     while (!Endpoint_IsReadWriteAllowed()) {
 139               		.loc 1 560 0
 140 0050 26E0      		ldi r18,lo8(6)
 141               	.LVL7:
 142               	.L8:
 143               	.LBB162:
 144               	.LBB163:
 360:/users/hunter/downloads/tmk_core/protocol/lufa/LUFA-git/LUFA/Drivers/USB/Core/AVR8/../AVR8/Endpoint_AVR8.h **** 			}
 145               		.loc 2 360 0
 146 0052 3091 E800 		lds r19,232
 147               	.LBE163:
 148               	.LBE162:
 149               		.loc 1 560 0
 150 0056 35FF      		sbrs r19,5
 151 0058 00C0      		rjmp .L11
 152               	.LVL8:
 153               	.LBB164:
 154               	.LBB165:
 371:/users/hunter/downloads/tmk_core/protocol/lufa/LUFA-git/LUFA/Drivers/USB/Core/AVR8/../AVR8/Endpoint_AVR8.h **** 			}
 372:/users/hunter/downloads/tmk_core/protocol/lufa/LUFA-git/LUFA/Drivers/USB/Core/AVR8/../AVR8/Endpoint_AVR8.h **** 
 373:/users/hunter/downloads/tmk_core/protocol/lufa/LUFA-git/LUFA/Drivers/USB/Core/AVR8/../AVR8/Endpoint_AVR8.h **** 			/** Returns a mask indicating which INTERRUPT type endpoints have interrupted - i.e. their
 374:/users/hunter/downloads/tmk_core/protocol/lufa/LUFA-git/LUFA/Drivers/USB/Core/AVR8/../AVR8/Endpoint_AVR8.h **** 			 *  interrupt duration has elapsed. Which endpoints have interrupted can be determined by
 375:/users/hunter/downloads/tmk_core/protocol/lufa/LUFA-git/LUFA/Drivers/USB/Core/AVR8/../AVR8/Endpoint_AVR8.h **** 			 *  masking the return value against <tt>(1 << <i>{Endpoint Number}</i>)</tt>.
 376:/users/hunter/downloads/tmk_core/protocol/lufa/LUFA-git/LUFA/Drivers/USB/Core/AVR8/../AVR8/Endpoint_AVR8.h **** 			 *
 377:/users/hunter/downloads/tmk_core/protocol/lufa/LUFA-git/LUFA/Drivers/USB/Core/AVR8/../AVR8/Endpoint_AVR8.h **** 			 *  \return Mask whose bits indicate which endpoints have interrupted.
 378:/users/hunter/downloads/tmk_core/protocol/lufa/LUFA-git/LUFA/Drivers/USB/Core/AVR8/../AVR8/Endpoint_AVR8.h **** 			 */
 379:/users/hunter/downloads/tmk_core/protocol/lufa/LUFA-git/LUFA/Drivers/USB/Core/AVR8/../AVR8/Endpoint_AVR8.h **** 			static inline uint8_t Endpoint_GetEndpointInterrupts(void) ATTR_WARN_UNUSED_RESULT ATTR_ALWAYS_I
 380:/users/hunter/downloads/tmk_core/protocol/lufa/LUFA-git/LUFA/Drivers/USB/Core/AVR8/../AVR8/Endpoint_AVR8.h **** 			static inline uint8_t Endpoint_GetEndpointInterrupts(void)
 381:/users/hunter/downloads/tmk_core/protocol/lufa/LUFA-git/LUFA/Drivers/USB/Core/AVR8/../AVR8/Endpoint_AVR8.h **** 			{
 382:/users/hunter/downloads/tmk_core/protocol/lufa/LUFA-git/LUFA/Drivers/USB/Core/AVR8/../AVR8/Endpoint_AVR8.h **** 				return UEINT;
 383:/users/hunter/downloads/tmk_core/protocol/lufa/LUFA-git/LUFA/Drivers/USB/Core/AVR8/../AVR8/Endpoint_AVR8.h **** 			}
 384:/users/hunter/downloads/tmk_core/protocol/lufa/LUFA-git/LUFA/Drivers/USB/Core/AVR8/../AVR8/Endpoint_AVR8.h **** 
 385:/users/hunter/downloads/tmk_core/protocol/lufa/LUFA-git/LUFA/Drivers/USB/Core/AVR8/../AVR8/Endpoint_AVR8.h **** 			/** Determines if the specified endpoint number has interrupted (valid only for INTERRUPT type
 386:/users/hunter/downloads/tmk_core/protocol/lufa/LUFA-git/LUFA/Drivers/USB/Core/AVR8/../AVR8/Endpoint_AVR8.h **** 			 *  endpoints).
 387:/users/hunter/downloads/tmk_core/protocol/lufa/LUFA-git/LUFA/Drivers/USB/Core/AVR8/../AVR8/Endpoint_AVR8.h **** 			 *
 388:/users/hunter/downloads/tmk_core/protocol/lufa/LUFA-git/LUFA/Drivers/USB/Core/AVR8/../AVR8/Endpoint_AVR8.h **** 			 *  \param[in] Address  Address of the endpoint whose interrupt flag should be tested.
 389:/users/hunter/downloads/tmk_core/protocol/lufa/LUFA-git/LUFA/Drivers/USB/Core/AVR8/../AVR8/Endpoint_AVR8.h **** 			 *
 390:/users/hunter/downloads/tmk_core/protocol/lufa/LUFA-git/LUFA/Drivers/USB/Core/AVR8/../AVR8/Endpoint_AVR8.h **** 			 *  \return Boolean \c true if the specified endpoint has interrupted, \c false otherwise.
 391:/users/hunter/downloads/tmk_core/protocol/lufa/LUFA-git/LUFA/Drivers/USB/Core/AVR8/../AVR8/Endpoint_AVR8.h **** 			 */
 392:/users/hunter/downloads/tmk_core/protocol/lufa/LUFA-git/LUFA/Drivers/USB/Core/AVR8/../AVR8/Endpoint_AVR8.h **** 			static inline bool Endpoint_HasEndpointInterrupted(const uint8_t Address) ATTR_WARN_UNUSED_RESUL
 393:/users/hunter/downloads/tmk_core/protocol/lufa/LUFA-git/LUFA/Drivers/USB/Core/AVR8/../AVR8/Endpoint_AVR8.h **** 			static inline bool Endpoint_HasEndpointInterrupted(const uint8_t Address)
 394:/users/hunter/downloads/tmk_core/protocol/lufa/LUFA-git/LUFA/Drivers/USB/Core/AVR8/../AVR8/Endpoint_AVR8.h **** 			{
 395:/users/hunter/downloads/tmk_core/protocol/lufa/LUFA-git/LUFA/Drivers/USB/Core/AVR8/../AVR8/Endpoint_AVR8.h **** 				return ((Endpoint_GetEndpointInterrupts() & (1 << (Address & ENDPOINT_EPNUM_MASK))) ? true : fa
 396:/users/hunter/downloads/tmk_core/protocol/lufa/LUFA-git/LUFA/Drivers/USB/Core/AVR8/../AVR8/Endpoint_AVR8.h **** 			}
 397:/users/hunter/downloads/tmk_core/protocol/lufa/LUFA-git/LUFA/Drivers/USB/Core/AVR8/../AVR8/Endpoint_AVR8.h **** 
 398:/users/hunter/downloads/tmk_core/protocol/lufa/LUFA-git/LUFA/Drivers/USB/Core/AVR8/../AVR8/Endpoint_AVR8.h **** 			/** Determines if the selected IN endpoint is ready for a new packet to be sent to the host.
 399:/users/hunter/downloads/tmk_core/protocol/lufa/LUFA-git/LUFA/Drivers/USB/Core/AVR8/../AVR8/Endpoint_AVR8.h **** 			 *
 400:/users/hunter/downloads/tmk_core/protocol/lufa/LUFA-git/LUFA/Drivers/USB/Core/AVR8/../AVR8/Endpoint_AVR8.h **** 			 *  \ingroup Group_EndpointPacketManagement_AVR8
 401:/users/hunter/downloads/tmk_core/protocol/lufa/LUFA-git/LUFA/Drivers/USB/Core/AVR8/../AVR8/Endpoint_AVR8.h **** 			 *
 402:/users/hunter/downloads/tmk_core/protocol/lufa/LUFA-git/LUFA/Drivers/USB/Core/AVR8/../AVR8/Endpoint_AVR8.h **** 			 *  \return Boolean \c true if the current endpoint is ready for an IN packet, \c false otherwis
 403:/users/hunter/downloads/tmk_core/protocol/lufa/LUFA-git/LUFA/Drivers/USB/Core/AVR8/../AVR8/Endpoint_AVR8.h **** 			 */
 404:/users/hunter/downloads/tmk_core/protocol/lufa/LUFA-git/LUFA/Drivers/USB/Core/AVR8/../AVR8/Endpoint_AVR8.h **** 			static inline bool Endpoint_IsINReady(void) ATTR_WARN_UNUSED_RESULT ATTR_ALWAYS_INLINE;
 405:/users/hunter/downloads/tmk_core/protocol/lufa/LUFA-git/LUFA/Drivers/USB/Core/AVR8/../AVR8/Endpoint_AVR8.h **** 			static inline bool Endpoint_IsINReady(void)
 406:/users/hunter/downloads/tmk_core/protocol/lufa/LUFA-git/LUFA/Drivers/USB/Core/AVR8/../AVR8/Endpoint_AVR8.h **** 			{
 407:/users/hunter/downloads/tmk_core/protocol/lufa/LUFA-git/LUFA/Drivers/USB/Core/AVR8/../AVR8/Endpoint_AVR8.h **** 				return ((UEINTX & (1 << TXINI)) ? true : false);
 408:/users/hunter/downloads/tmk_core/protocol/lufa/LUFA-git/LUFA/Drivers/USB/Core/AVR8/../AVR8/Endpoint_AVR8.h **** 			}
 409:/users/hunter/downloads/tmk_core/protocol/lufa/LUFA-git/LUFA/Drivers/USB/Core/AVR8/../AVR8/Endpoint_AVR8.h **** 
 410:/users/hunter/downloads/tmk_core/protocol/lufa/LUFA-git/LUFA/Drivers/USB/Core/AVR8/../AVR8/Endpoint_AVR8.h **** 			/** Determines if the selected OUT endpoint has received new packet from the host.
 411:/users/hunter/downloads/tmk_core/protocol/lufa/LUFA-git/LUFA/Drivers/USB/Core/AVR8/../AVR8/Endpoint_AVR8.h **** 			 *
 412:/users/hunter/downloads/tmk_core/protocol/lufa/LUFA-git/LUFA/Drivers/USB/Core/AVR8/../AVR8/Endpoint_AVR8.h **** 			 *  \ingroup Group_EndpointPacketManagement_AVR8
 413:/users/hunter/downloads/tmk_core/protocol/lufa/LUFA-git/LUFA/Drivers/USB/Core/AVR8/../AVR8/Endpoint_AVR8.h **** 			 *
 414:/users/hunter/downloads/tmk_core/protocol/lufa/LUFA-git/LUFA/Drivers/USB/Core/AVR8/../AVR8/Endpoint_AVR8.h **** 			 *  \return Boolean \c true if current endpoint is has received an OUT packet, \c false otherwis
 415:/users/hunter/downloads/tmk_core/protocol/lufa/LUFA-git/LUFA/Drivers/USB/Core/AVR8/../AVR8/Endpoint_AVR8.h **** 			 */
 416:/users/hunter/downloads/tmk_core/protocol/lufa/LUFA-git/LUFA/Drivers/USB/Core/AVR8/../AVR8/Endpoint_AVR8.h **** 			static inline bool Endpoint_IsOUTReceived(void) ATTR_WARN_UNUSED_RESULT ATTR_ALWAYS_INLINE;
 417:/users/hunter/downloads/tmk_core/protocol/lufa/LUFA-git/LUFA/Drivers/USB/Core/AVR8/../AVR8/Endpoint_AVR8.h **** 			static inline bool Endpoint_IsOUTReceived(void)
 418:/users/hunter/downloads/tmk_core/protocol/lufa/LUFA-git/LUFA/Drivers/USB/Core/AVR8/../AVR8/Endpoint_AVR8.h **** 			{
 419:/users/hunter/downloads/tmk_core/protocol/lufa/LUFA-git/LUFA/Drivers/USB/Core/AVR8/../AVR8/Endpoint_AVR8.h **** 				return ((UEINTX & (1 << RXOUTI)) ? true : false);
 420:/users/hunter/downloads/tmk_core/protocol/lufa/LUFA-git/LUFA/Drivers/USB/Core/AVR8/../AVR8/Endpoint_AVR8.h **** 			}
 421:/users/hunter/downloads/tmk_core/protocol/lufa/LUFA-git/LUFA/Drivers/USB/Core/AVR8/../AVR8/Endpoint_AVR8.h **** 
 422:/users/hunter/downloads/tmk_core/protocol/lufa/LUFA-git/LUFA/Drivers/USB/Core/AVR8/../AVR8/Endpoint_AVR8.h **** 			/** Determines if the current CONTROL type endpoint has received a SETUP packet.
 423:/users/hunter/downloads/tmk_core/protocol/lufa/LUFA-git/LUFA/Drivers/USB/Core/AVR8/../AVR8/Endpoint_AVR8.h **** 			 *
 424:/users/hunter/downloads/tmk_core/protocol/lufa/LUFA-git/LUFA/Drivers/USB/Core/AVR8/../AVR8/Endpoint_AVR8.h **** 			 *  \ingroup Group_EndpointPacketManagement_AVR8
 425:/users/hunter/downloads/tmk_core/protocol/lufa/LUFA-git/LUFA/Drivers/USB/Core/AVR8/../AVR8/Endpoint_AVR8.h **** 			 *
 426:/users/hunter/downloads/tmk_core/protocol/lufa/LUFA-git/LUFA/Drivers/USB/Core/AVR8/../AVR8/Endpoint_AVR8.h **** 			 *  \return Boolean \c true if the selected endpoint has received a SETUP packet, \c false other
 427:/users/hunter/downloads/tmk_core/protocol/lufa/LUFA-git/LUFA/Drivers/USB/Core/AVR8/../AVR8/Endpoint_AVR8.h **** 			 */
 428:/users/hunter/downloads/tmk_core/protocol/lufa/LUFA-git/LUFA/Drivers/USB/Core/AVR8/../AVR8/Endpoint_AVR8.h **** 			static inline bool Endpoint_IsSETUPReceived(void) ATTR_WARN_UNUSED_RESULT ATTR_ALWAYS_INLINE;
 429:/users/hunter/downloads/tmk_core/protocol/lufa/LUFA-git/LUFA/Drivers/USB/Core/AVR8/../AVR8/Endpoint_AVR8.h **** 			static inline bool Endpoint_IsSETUPReceived(void)
 430:/users/hunter/downloads/tmk_core/protocol/lufa/LUFA-git/LUFA/Drivers/USB/Core/AVR8/../AVR8/Endpoint_AVR8.h **** 			{
 431:/users/hunter/downloads/tmk_core/protocol/lufa/LUFA-git/LUFA/Drivers/USB/Core/AVR8/../AVR8/Endpoint_AVR8.h **** 				return ((UEINTX & (1 << RXSTPI)) ? true : false);
 432:/users/hunter/downloads/tmk_core/protocol/lufa/LUFA-git/LUFA/Drivers/USB/Core/AVR8/../AVR8/Endpoint_AVR8.h **** 			}
 433:/users/hunter/downloads/tmk_core/protocol/lufa/LUFA-git/LUFA/Drivers/USB/Core/AVR8/../AVR8/Endpoint_AVR8.h **** 
 434:/users/hunter/downloads/tmk_core/protocol/lufa/LUFA-git/LUFA/Drivers/USB/Core/AVR8/../AVR8/Endpoint_AVR8.h **** 			/** Clears a received SETUP packet on the currently selected CONTROL type endpoint, freeing up t
 435:/users/hunter/downloads/tmk_core/protocol/lufa/LUFA-git/LUFA/Drivers/USB/Core/AVR8/../AVR8/Endpoint_AVR8.h **** 			 *  endpoint for the next packet.
 436:/users/hunter/downloads/tmk_core/protocol/lufa/LUFA-git/LUFA/Drivers/USB/Core/AVR8/../AVR8/Endpoint_AVR8.h **** 			 *
 437:/users/hunter/downloads/tmk_core/protocol/lufa/LUFA-git/LUFA/Drivers/USB/Core/AVR8/../AVR8/Endpoint_AVR8.h **** 			 *  \ingroup Group_EndpointPacketManagement_AVR8
 438:/users/hunter/downloads/tmk_core/protocol/lufa/LUFA-git/LUFA/Drivers/USB/Core/AVR8/../AVR8/Endpoint_AVR8.h **** 			 *
 439:/users/hunter/downloads/tmk_core/protocol/lufa/LUFA-git/LUFA/Drivers/USB/Core/AVR8/../AVR8/Endpoint_AVR8.h **** 			 *  \note This is not applicable for non CONTROL type endpoints.
 440:/users/hunter/downloads/tmk_core/protocol/lufa/LUFA-git/LUFA/Drivers/USB/Core/AVR8/../AVR8/Endpoint_AVR8.h **** 			 */
 441:/users/hunter/downloads/tmk_core/protocol/lufa/LUFA-git/LUFA/Drivers/USB/Core/AVR8/../AVR8/Endpoint_AVR8.h **** 			static inline void Endpoint_ClearSETUP(void) ATTR_ALWAYS_INLINE;
 442:/users/hunter/downloads/tmk_core/protocol/lufa/LUFA-git/LUFA/Drivers/USB/Core/AVR8/../AVR8/Endpoint_AVR8.h **** 			static inline void Endpoint_ClearSETUP(void)
 443:/users/hunter/downloads/tmk_core/protocol/lufa/LUFA-git/LUFA/Drivers/USB/Core/AVR8/../AVR8/Endpoint_AVR8.h **** 			{
 444:/users/hunter/downloads/tmk_core/protocol/lufa/LUFA-git/LUFA/Drivers/USB/Core/AVR8/../AVR8/Endpoint_AVR8.h **** 				UEINTX &= ~(1 << RXSTPI);
 445:/users/hunter/downloads/tmk_core/protocol/lufa/LUFA-git/LUFA/Drivers/USB/Core/AVR8/../AVR8/Endpoint_AVR8.h **** 			}
 446:/users/hunter/downloads/tmk_core/protocol/lufa/LUFA-git/LUFA/Drivers/USB/Core/AVR8/../AVR8/Endpoint_AVR8.h **** 
 447:/users/hunter/downloads/tmk_core/protocol/lufa/LUFA-git/LUFA/Drivers/USB/Core/AVR8/../AVR8/Endpoint_AVR8.h **** 			/** Sends an IN packet to the host on the currently selected endpoint, freeing up the endpoint f
 448:/users/hunter/downloads/tmk_core/protocol/lufa/LUFA-git/LUFA/Drivers/USB/Core/AVR8/../AVR8/Endpoint_AVR8.h **** 			 *  next packet and switching to the alternative endpoint bank if double banked.
 449:/users/hunter/downloads/tmk_core/protocol/lufa/LUFA-git/LUFA/Drivers/USB/Core/AVR8/../AVR8/Endpoint_AVR8.h **** 			 *
 450:/users/hunter/downloads/tmk_core/protocol/lufa/LUFA-git/LUFA/Drivers/USB/Core/AVR8/../AVR8/Endpoint_AVR8.h **** 			 *  \ingroup Group_EndpointPacketManagement_AVR8
 451:/users/hunter/downloads/tmk_core/protocol/lufa/LUFA-git/LUFA/Drivers/USB/Core/AVR8/../AVR8/Endpoint_AVR8.h **** 			 */
 452:/users/hunter/downloads/tmk_core/protocol/lufa/LUFA-git/LUFA/Drivers/USB/Core/AVR8/../AVR8/Endpoint_AVR8.h **** 			static inline void Endpoint_ClearIN(void) ATTR_ALWAYS_INLINE;
 453:/users/hunter/downloads/tmk_core/protocol/lufa/LUFA-git/LUFA/Drivers/USB/Core/AVR8/../AVR8/Endpoint_AVR8.h **** 			static inline void Endpoint_ClearIN(void)
 454:/users/hunter/downloads/tmk_core/protocol/lufa/LUFA-git/LUFA/Drivers/USB/Core/AVR8/../AVR8/Endpoint_AVR8.h **** 			{
 455:/users/hunter/downloads/tmk_core/protocol/lufa/LUFA-git/LUFA/Drivers/USB/Core/AVR8/../AVR8/Endpoint_AVR8.h **** 				#if !defined(CONTROL_ONLY_DEVICE)
 456:/users/hunter/downloads/tmk_core/protocol/lufa/LUFA-git/LUFA/Drivers/USB/Core/AVR8/../AVR8/Endpoint_AVR8.h **** 					UEINTX &= ~((1 << TXINI) | (1 << FIFOCON));
 457:/users/hunter/downloads/tmk_core/protocol/lufa/LUFA-git/LUFA/Drivers/USB/Core/AVR8/../AVR8/Endpoint_AVR8.h **** 				#else
 458:/users/hunter/downloads/tmk_core/protocol/lufa/LUFA-git/LUFA/Drivers/USB/Core/AVR8/../AVR8/Endpoint_AVR8.h **** 					UEINTX &= ~(1 << TXINI);
 459:/users/hunter/downloads/tmk_core/protocol/lufa/LUFA-git/LUFA/Drivers/USB/Core/AVR8/../AVR8/Endpoint_AVR8.h **** 				#endif
 460:/users/hunter/downloads/tmk_core/protocol/lufa/LUFA-git/LUFA/Drivers/USB/Core/AVR8/../AVR8/Endpoint_AVR8.h **** 			}
 461:/users/hunter/downloads/tmk_core/protocol/lufa/LUFA-git/LUFA/Drivers/USB/Core/AVR8/../AVR8/Endpoint_AVR8.h **** 
 462:/users/hunter/downloads/tmk_core/protocol/lufa/LUFA-git/LUFA/Drivers/USB/Core/AVR8/../AVR8/Endpoint_AVR8.h **** 			/** Acknowledges an OUT packet to the host on the currently selected endpoint, freeing up the en
 463:/users/hunter/downloads/tmk_core/protocol/lufa/LUFA-git/LUFA/Drivers/USB/Core/AVR8/../AVR8/Endpoint_AVR8.h **** 			 *  for the next packet and switching to the alternative endpoint bank if double banked.
 464:/users/hunter/downloads/tmk_core/protocol/lufa/LUFA-git/LUFA/Drivers/USB/Core/AVR8/../AVR8/Endpoint_AVR8.h **** 			 *
 465:/users/hunter/downloads/tmk_core/protocol/lufa/LUFA-git/LUFA/Drivers/USB/Core/AVR8/../AVR8/Endpoint_AVR8.h **** 			 *  \ingroup Group_EndpointPacketManagement_AVR8
 466:/users/hunter/downloads/tmk_core/protocol/lufa/LUFA-git/LUFA/Drivers/USB/Core/AVR8/../AVR8/Endpoint_AVR8.h **** 			 */
 467:/users/hunter/downloads/tmk_core/protocol/lufa/LUFA-git/LUFA/Drivers/USB/Core/AVR8/../AVR8/Endpoint_AVR8.h **** 			static inline void Endpoint_ClearOUT(void) ATTR_ALWAYS_INLINE;
 468:/users/hunter/downloads/tmk_core/protocol/lufa/LUFA-git/LUFA/Drivers/USB/Core/AVR8/../AVR8/Endpoint_AVR8.h **** 			static inline void Endpoint_ClearOUT(void)
 469:/users/hunter/downloads/tmk_core/protocol/lufa/LUFA-git/LUFA/Drivers/USB/Core/AVR8/../AVR8/Endpoint_AVR8.h **** 			{
 470:/users/hunter/downloads/tmk_core/protocol/lufa/LUFA-git/LUFA/Drivers/USB/Core/AVR8/../AVR8/Endpoint_AVR8.h **** 				#if !defined(CONTROL_ONLY_DEVICE)
 471:/users/hunter/downloads/tmk_core/protocol/lufa/LUFA-git/LUFA/Drivers/USB/Core/AVR8/../AVR8/Endpoint_AVR8.h **** 					UEINTX &= ~((1 << RXOUTI) | (1 << FIFOCON));
 472:/users/hunter/downloads/tmk_core/protocol/lufa/LUFA-git/LUFA/Drivers/USB/Core/AVR8/../AVR8/Endpoint_AVR8.h **** 				#else
 473:/users/hunter/downloads/tmk_core/protocol/lufa/LUFA-git/LUFA/Drivers/USB/Core/AVR8/../AVR8/Endpoint_AVR8.h **** 					UEINTX &= ~(1 << RXOUTI);
 474:/users/hunter/downloads/tmk_core/protocol/lufa/LUFA-git/LUFA/Drivers/USB/Core/AVR8/../AVR8/Endpoint_AVR8.h **** 				#endif
 475:/users/hunter/downloads/tmk_core/protocol/lufa/LUFA-git/LUFA/Drivers/USB/Core/AVR8/../AVR8/Endpoint_AVR8.h **** 			}
 476:/users/hunter/downloads/tmk_core/protocol/lufa/LUFA-git/LUFA/Drivers/USB/Core/AVR8/../AVR8/Endpoint_AVR8.h **** 
 477:/users/hunter/downloads/tmk_core/protocol/lufa/LUFA-git/LUFA/Drivers/USB/Core/AVR8/../AVR8/Endpoint_AVR8.h **** 			/** Stalls the current endpoint, indicating to the host that a logical problem occurred with the
 478:/users/hunter/downloads/tmk_core/protocol/lufa/LUFA-git/LUFA/Drivers/USB/Core/AVR8/../AVR8/Endpoint_AVR8.h **** 			 *  indicated endpoint and that the current transfer sequence should be aborted. This provides a
 479:/users/hunter/downloads/tmk_core/protocol/lufa/LUFA-git/LUFA/Drivers/USB/Core/AVR8/../AVR8/Endpoint_AVR8.h **** 			 *  way for devices to indicate invalid commands to the host so that the current transfer can be
 480:/users/hunter/downloads/tmk_core/protocol/lufa/LUFA-git/LUFA/Drivers/USB/Core/AVR8/../AVR8/Endpoint_AVR8.h **** 			 *  aborted and the host can begin its own recovery sequence.
 481:/users/hunter/downloads/tmk_core/protocol/lufa/LUFA-git/LUFA/Drivers/USB/Core/AVR8/../AVR8/Endpoint_AVR8.h **** 			 *
 482:/users/hunter/downloads/tmk_core/protocol/lufa/LUFA-git/LUFA/Drivers/USB/Core/AVR8/../AVR8/Endpoint_AVR8.h **** 			 *  The currently selected endpoint remains stalled until either the \ref Endpoint_ClearStall() 
 483:/users/hunter/downloads/tmk_core/protocol/lufa/LUFA-git/LUFA/Drivers/USB/Core/AVR8/../AVR8/Endpoint_AVR8.h **** 			 *  is called, or the host issues a CLEAR FEATURE request to the device for the currently select
 484:/users/hunter/downloads/tmk_core/protocol/lufa/LUFA-git/LUFA/Drivers/USB/Core/AVR8/../AVR8/Endpoint_AVR8.h **** 			 *  endpoint.
 485:/users/hunter/downloads/tmk_core/protocol/lufa/LUFA-git/LUFA/Drivers/USB/Core/AVR8/../AVR8/Endpoint_AVR8.h **** 			 *
 486:/users/hunter/downloads/tmk_core/protocol/lufa/LUFA-git/LUFA/Drivers/USB/Core/AVR8/../AVR8/Endpoint_AVR8.h **** 			 *  \ingroup Group_EndpointPacketManagement_AVR8
 487:/users/hunter/downloads/tmk_core/protocol/lufa/LUFA-git/LUFA/Drivers/USB/Core/AVR8/../AVR8/Endpoint_AVR8.h **** 			 */
 488:/users/hunter/downloads/tmk_core/protocol/lufa/LUFA-git/LUFA/Drivers/USB/Core/AVR8/../AVR8/Endpoint_AVR8.h **** 			static inline void Endpoint_StallTransaction(void) ATTR_ALWAYS_INLINE;
 489:/users/hunter/downloads/tmk_core/protocol/lufa/LUFA-git/LUFA/Drivers/USB/Core/AVR8/../AVR8/Endpoint_AVR8.h **** 			static inline void Endpoint_StallTransaction(void)
 490:/users/hunter/downloads/tmk_core/protocol/lufa/LUFA-git/LUFA/Drivers/USB/Core/AVR8/../AVR8/Endpoint_AVR8.h **** 			{
 491:/users/hunter/downloads/tmk_core/protocol/lufa/LUFA-git/LUFA/Drivers/USB/Core/AVR8/../AVR8/Endpoint_AVR8.h **** 				UECONX |= (1 << STALLRQ);
 492:/users/hunter/downloads/tmk_core/protocol/lufa/LUFA-git/LUFA/Drivers/USB/Core/AVR8/../AVR8/Endpoint_AVR8.h **** 			}
 493:/users/hunter/downloads/tmk_core/protocol/lufa/LUFA-git/LUFA/Drivers/USB/Core/AVR8/../AVR8/Endpoint_AVR8.h **** 
 494:/users/hunter/downloads/tmk_core/protocol/lufa/LUFA-git/LUFA/Drivers/USB/Core/AVR8/../AVR8/Endpoint_AVR8.h **** 			/** Clears the STALL condition on the currently selected endpoint.
 495:/users/hunter/downloads/tmk_core/protocol/lufa/LUFA-git/LUFA/Drivers/USB/Core/AVR8/../AVR8/Endpoint_AVR8.h **** 			 *
 496:/users/hunter/downloads/tmk_core/protocol/lufa/LUFA-git/LUFA/Drivers/USB/Core/AVR8/../AVR8/Endpoint_AVR8.h **** 			 *  \ingroup Group_EndpointPacketManagement_AVR8
 497:/users/hunter/downloads/tmk_core/protocol/lufa/LUFA-git/LUFA/Drivers/USB/Core/AVR8/../AVR8/Endpoint_AVR8.h **** 			 */
 498:/users/hunter/downloads/tmk_core/protocol/lufa/LUFA-git/LUFA/Drivers/USB/Core/AVR8/../AVR8/Endpoint_AVR8.h **** 			static inline void Endpoint_ClearStall(void) ATTR_ALWAYS_INLINE;
 499:/users/hunter/downloads/tmk_core/protocol/lufa/LUFA-git/LUFA/Drivers/USB/Core/AVR8/../AVR8/Endpoint_AVR8.h **** 			static inline void Endpoint_ClearStall(void)
 500:/users/hunter/downloads/tmk_core/protocol/lufa/LUFA-git/LUFA/Drivers/USB/Core/AVR8/../AVR8/Endpoint_AVR8.h **** 			{
 501:/users/hunter/downloads/tmk_core/protocol/lufa/LUFA-git/LUFA/Drivers/USB/Core/AVR8/../AVR8/Endpoint_AVR8.h **** 				UECONX |= (1 << STALLRQC);
 502:/users/hunter/downloads/tmk_core/protocol/lufa/LUFA-git/LUFA/Drivers/USB/Core/AVR8/../AVR8/Endpoint_AVR8.h **** 			}
 503:/users/hunter/downloads/tmk_core/protocol/lufa/LUFA-git/LUFA/Drivers/USB/Core/AVR8/../AVR8/Endpoint_AVR8.h **** 
 504:/users/hunter/downloads/tmk_core/protocol/lufa/LUFA-git/LUFA/Drivers/USB/Core/AVR8/../AVR8/Endpoint_AVR8.h **** 			/** Determines if the currently selected endpoint is stalled, \c false otherwise.
 505:/users/hunter/downloads/tmk_core/protocol/lufa/LUFA-git/LUFA/Drivers/USB/Core/AVR8/../AVR8/Endpoint_AVR8.h **** 			 *
 506:/users/hunter/downloads/tmk_core/protocol/lufa/LUFA-git/LUFA/Drivers/USB/Core/AVR8/../AVR8/Endpoint_AVR8.h **** 			 *  \ingroup Group_EndpointPacketManagement_AVR8
 507:/users/hunter/downloads/tmk_core/protocol/lufa/LUFA-git/LUFA/Drivers/USB/Core/AVR8/../AVR8/Endpoint_AVR8.h **** 			 *
 508:/users/hunter/downloads/tmk_core/protocol/lufa/LUFA-git/LUFA/Drivers/USB/Core/AVR8/../AVR8/Endpoint_AVR8.h **** 			 *  \return Boolean \c true if the currently selected endpoint is stalled, \c false otherwise.
 509:/users/hunter/downloads/tmk_core/protocol/lufa/LUFA-git/LUFA/Drivers/USB/Core/AVR8/../AVR8/Endpoint_AVR8.h **** 			 */
 510:/users/hunter/downloads/tmk_core/protocol/lufa/LUFA-git/LUFA/Drivers/USB/Core/AVR8/../AVR8/Endpoint_AVR8.h **** 			static inline bool Endpoint_IsStalled(void) ATTR_WARN_UNUSED_RESULT ATTR_ALWAYS_INLINE;
 511:/users/hunter/downloads/tmk_core/protocol/lufa/LUFA-git/LUFA/Drivers/USB/Core/AVR8/../AVR8/Endpoint_AVR8.h **** 			static inline bool Endpoint_IsStalled(void)
 512:/users/hunter/downloads/tmk_core/protocol/lufa/LUFA-git/LUFA/Drivers/USB/Core/AVR8/../AVR8/Endpoint_AVR8.h **** 			{
 513:/users/hunter/downloads/tmk_core/protocol/lufa/LUFA-git/LUFA/Drivers/USB/Core/AVR8/../AVR8/Endpoint_AVR8.h **** 				return ((UECONX & (1 << STALLRQ)) ? true : false);
 514:/users/hunter/downloads/tmk_core/protocol/lufa/LUFA-git/LUFA/Drivers/USB/Core/AVR8/../AVR8/Endpoint_AVR8.h **** 			}
 515:/users/hunter/downloads/tmk_core/protocol/lufa/LUFA-git/LUFA/Drivers/USB/Core/AVR8/../AVR8/Endpoint_AVR8.h **** 
 516:/users/hunter/downloads/tmk_core/protocol/lufa/LUFA-git/LUFA/Drivers/USB/Core/AVR8/../AVR8/Endpoint_AVR8.h **** 			/** Resets the data toggle of the currently selected endpoint. */
 517:/users/hunter/downloads/tmk_core/protocol/lufa/LUFA-git/LUFA/Drivers/USB/Core/AVR8/../AVR8/Endpoint_AVR8.h **** 			static inline void Endpoint_ResetDataToggle(void) ATTR_ALWAYS_INLINE;
 518:/users/hunter/downloads/tmk_core/protocol/lufa/LUFA-git/LUFA/Drivers/USB/Core/AVR8/../AVR8/Endpoint_AVR8.h **** 			static inline void Endpoint_ResetDataToggle(void)
 519:/users/hunter/downloads/tmk_core/protocol/lufa/LUFA-git/LUFA/Drivers/USB/Core/AVR8/../AVR8/Endpoint_AVR8.h **** 			{
 520:/users/hunter/downloads/tmk_core/protocol/lufa/LUFA-git/LUFA/Drivers/USB/Core/AVR8/../AVR8/Endpoint_AVR8.h **** 				UECONX |= (1 << RSTDT);
 521:/users/hunter/downloads/tmk_core/protocol/lufa/LUFA-git/LUFA/Drivers/USB/Core/AVR8/../AVR8/Endpoint_AVR8.h **** 			}
 522:/users/hunter/downloads/tmk_core/protocol/lufa/LUFA-git/LUFA/Drivers/USB/Core/AVR8/../AVR8/Endpoint_AVR8.h **** 
 523:/users/hunter/downloads/tmk_core/protocol/lufa/LUFA-git/LUFA/Drivers/USB/Core/AVR8/../AVR8/Endpoint_AVR8.h **** 			/** Sets the direction of the currently selected endpoint.
 524:/users/hunter/downloads/tmk_core/protocol/lufa/LUFA-git/LUFA/Drivers/USB/Core/AVR8/../AVR8/Endpoint_AVR8.h **** 			 *
 525:/users/hunter/downloads/tmk_core/protocol/lufa/LUFA-git/LUFA/Drivers/USB/Core/AVR8/../AVR8/Endpoint_AVR8.h **** 			 *  \param[in] DirectionMask  New endpoint direction, as a \c ENDPOINT_DIR_* mask.
 526:/users/hunter/downloads/tmk_core/protocol/lufa/LUFA-git/LUFA/Drivers/USB/Core/AVR8/../AVR8/Endpoint_AVR8.h **** 			 */
 527:/users/hunter/downloads/tmk_core/protocol/lufa/LUFA-git/LUFA/Drivers/USB/Core/AVR8/../AVR8/Endpoint_AVR8.h **** 			static inline void Endpoint_SetEndpointDirection(const uint8_t DirectionMask) ATTR_ALWAYS_INLINE
 528:/users/hunter/downloads/tmk_core/protocol/lufa/LUFA-git/LUFA/Drivers/USB/Core/AVR8/../AVR8/Endpoint_AVR8.h **** 			static inline void Endpoint_SetEndpointDirection(const uint8_t DirectionMask)
 529:/users/hunter/downloads/tmk_core/protocol/lufa/LUFA-git/LUFA/Drivers/USB/Core/AVR8/../AVR8/Endpoint_AVR8.h **** 			{
 530:/users/hunter/downloads/tmk_core/protocol/lufa/LUFA-git/LUFA/Drivers/USB/Core/AVR8/../AVR8/Endpoint_AVR8.h **** 				UECFG0X = ((UECFG0X & ~(1 << EPDIR)) | (DirectionMask ? (1 << EPDIR) : 0));
 531:/users/hunter/downloads/tmk_core/protocol/lufa/LUFA-git/LUFA/Drivers/USB/Core/AVR8/../AVR8/Endpoint_AVR8.h **** 			}
 532:/users/hunter/downloads/tmk_core/protocol/lufa/LUFA-git/LUFA/Drivers/USB/Core/AVR8/../AVR8/Endpoint_AVR8.h **** 
 533:/users/hunter/downloads/tmk_core/protocol/lufa/LUFA-git/LUFA/Drivers/USB/Core/AVR8/../AVR8/Endpoint_AVR8.h **** 			/** Reads one byte from the currently selected endpoint's bank, for OUT direction endpoints.
 534:/users/hunter/downloads/tmk_core/protocol/lufa/LUFA-git/LUFA/Drivers/USB/Core/AVR8/../AVR8/Endpoint_AVR8.h **** 			 *
 535:/users/hunter/downloads/tmk_core/protocol/lufa/LUFA-git/LUFA/Drivers/USB/Core/AVR8/../AVR8/Endpoint_AVR8.h **** 			 *  \ingroup Group_EndpointPrimitiveRW_AVR8
 536:/users/hunter/downloads/tmk_core/protocol/lufa/LUFA-git/LUFA/Drivers/USB/Core/AVR8/../AVR8/Endpoint_AVR8.h **** 			 *
 537:/users/hunter/downloads/tmk_core/protocol/lufa/LUFA-git/LUFA/Drivers/USB/Core/AVR8/../AVR8/Endpoint_AVR8.h **** 			 *  \return Next byte in the currently selected endpoint's FIFO buffer.
 538:/users/hunter/downloads/tmk_core/protocol/lufa/LUFA-git/LUFA/Drivers/USB/Core/AVR8/../AVR8/Endpoint_AVR8.h **** 			 */
 539:/users/hunter/downloads/tmk_core/protocol/lufa/LUFA-git/LUFA/Drivers/USB/Core/AVR8/../AVR8/Endpoint_AVR8.h **** 			static inline uint8_t Endpoint_Read_8(void) ATTR_WARN_UNUSED_RESULT ATTR_ALWAYS_INLINE;
 540:/users/hunter/downloads/tmk_core/protocol/lufa/LUFA-git/LUFA/Drivers/USB/Core/AVR8/../AVR8/Endpoint_AVR8.h **** 			static inline uint8_t Endpoint_Read_8(void)
 541:/users/hunter/downloads/tmk_core/protocol/lufa/LUFA-git/LUFA/Drivers/USB/Core/AVR8/../AVR8/Endpoint_AVR8.h **** 			{
 542:/users/hunter/downloads/tmk_core/protocol/lufa/LUFA-git/LUFA/Drivers/USB/Core/AVR8/../AVR8/Endpoint_AVR8.h **** 				return UEDATX;
 543:/users/hunter/downloads/tmk_core/protocol/lufa/LUFA-git/LUFA/Drivers/USB/Core/AVR8/../AVR8/Endpoint_AVR8.h **** 			}
 544:/users/hunter/downloads/tmk_core/protocol/lufa/LUFA-git/LUFA/Drivers/USB/Core/AVR8/../AVR8/Endpoint_AVR8.h **** 
 545:/users/hunter/downloads/tmk_core/protocol/lufa/LUFA-git/LUFA/Drivers/USB/Core/AVR8/../AVR8/Endpoint_AVR8.h **** 			/** Writes one byte to the currently selected endpoint's bank, for IN direction endpoints.
 546:/users/hunter/downloads/tmk_core/protocol/lufa/LUFA-git/LUFA/Drivers/USB/Core/AVR8/../AVR8/Endpoint_AVR8.h **** 			 *
 547:/users/hunter/downloads/tmk_core/protocol/lufa/LUFA-git/LUFA/Drivers/USB/Core/AVR8/../AVR8/Endpoint_AVR8.h **** 			 *  \ingroup Group_EndpointPrimitiveRW_AVR8
 548:/users/hunter/downloads/tmk_core/protocol/lufa/LUFA-git/LUFA/Drivers/USB/Core/AVR8/../AVR8/Endpoint_AVR8.h **** 			 *
 549:/users/hunter/downloads/tmk_core/protocol/lufa/LUFA-git/LUFA/Drivers/USB/Core/AVR8/../AVR8/Endpoint_AVR8.h **** 			 *  \param[in] Data  Data to write into the the currently selected endpoint's FIFO buffer.
 550:/users/hunter/downloads/tmk_core/protocol/lufa/LUFA-git/LUFA/Drivers/USB/Core/AVR8/../AVR8/Endpoint_AVR8.h **** 			 */
 551:/users/hunter/downloads/tmk_core/protocol/lufa/LUFA-git/LUFA/Drivers/USB/Core/AVR8/../AVR8/Endpoint_AVR8.h **** 			static inline void Endpoint_Write_8(const uint8_t Data) ATTR_ALWAYS_INLINE;
 552:/users/hunter/downloads/tmk_core/protocol/lufa/LUFA-git/LUFA/Drivers/USB/Core/AVR8/../AVR8/Endpoint_AVR8.h **** 			static inline void Endpoint_Write_8(const uint8_t Data)
 553:/users/hunter/downloads/tmk_core/protocol/lufa/LUFA-git/LUFA/Drivers/USB/Core/AVR8/../AVR8/Endpoint_AVR8.h **** 			{
 554:/users/hunter/downloads/tmk_core/protocol/lufa/LUFA-git/LUFA/Drivers/USB/Core/AVR8/../AVR8/Endpoint_AVR8.h **** 				UEDATX = Data;
 155               		.loc 2 554 0
 156 005a 8093 F100 		sts 241,r24
 157               	.LVL9:
 158               	.LBE165:
 159               	.LBE164:
 160               	.LBB166:
 161               	.LBB167:
 360:/users/hunter/downloads/tmk_core/protocol/lufa/LUFA-git/LUFA/Drivers/USB/Core/AVR8/../AVR8/Endpoint_AVR8.h **** 			}
 162               		.loc 2 360 0
 163 005e 8091 E800 		lds r24,232
 164               	.LVL10:
 165               	.LBE167:
 166               	.LBE166:
 561:/users/hunter/downloads/tmk_core/protocol/lufa/lufa.c ****         if (USB_DeviceState != DEVICE_STATE_Configured) {
 562:/users/hunter/downloads/tmk_core/protocol/lufa/lufa.c ****             goto ERROR_EXIT;
 563:/users/hunter/downloads/tmk_core/protocol/lufa/lufa.c ****         }
 564:/users/hunter/downloads/tmk_core/protocol/lufa/lufa.c ****         if (Endpoint_IsStalled()) {
 565:/users/hunter/downloads/tmk_core/protocol/lufa/lufa.c ****             goto ERROR_EXIT;
 566:/users/hunter/downloads/tmk_core/protocol/lufa/lufa.c ****         }
 567:/users/hunter/downloads/tmk_core/protocol/lufa/lufa.c ****         if (!(timeout--)) {
 568:/users/hunter/downloads/tmk_core/protocol/lufa/lufa.c ****             timeouted = true;
 569:/users/hunter/downloads/tmk_core/protocol/lufa/lufa.c ****             goto ERROR_EXIT;
 570:/users/hunter/downloads/tmk_core/protocol/lufa/lufa.c ****         }
 571:/users/hunter/downloads/tmk_core/protocol/lufa/lufa.c ****         _delay_ms(1);
 572:/users/hunter/downloads/tmk_core/protocol/lufa/lufa.c ****     }
 573:/users/hunter/downloads/tmk_core/protocol/lufa/lufa.c **** 
 574:/users/hunter/downloads/tmk_core/protocol/lufa/lufa.c ****     Endpoint_Write_8(c);
 575:/users/hunter/downloads/tmk_core/protocol/lufa/lufa.c **** 
 576:/users/hunter/downloads/tmk_core/protocol/lufa/lufa.c ****     // send when bank is full
 577:/users/hunter/downloads/tmk_core/protocol/lufa/lufa.c ****     if (!Endpoint_IsReadWriteAllowed()) {
 167               		.loc 1 577 0
 168 0062 85FD      		sbrc r24,5
 169 0064 00C0      		rjmp .L12
 170               	.L13:
 171               	.LBB168:
 172               	.LBB169:
 407:/users/hunter/downloads/tmk_core/protocol/lufa/LUFA-git/LUFA/Drivers/USB/Core/AVR8/../AVR8/Endpoint_AVR8.h **** 			}
 173               		.loc 2 407 0 discriminator 1
 174 0066 8091 E800 		lds r24,232
 175               	.LBE169:
 176               	.LBE168:
 578:/users/hunter/downloads/tmk_core/protocol/lufa/lufa.c ****         while (!(Endpoint_IsINReady()));
 177               		.loc 1 578 0 discriminator 1
 178 006a 80FF      		sbrs r24,0
 179 006c 00C0      		rjmp .L13
 180               	.LBB170:
 181               	.LBB171:
 456:/users/hunter/downloads/tmk_core/protocol/lufa/LUFA-git/LUFA/Drivers/USB/Core/AVR8/../AVR8/Endpoint_AVR8.h **** 				#else
 182               		.loc 2 456 0
 183 006e 8091 E800 		lds r24,232
 184 0072 8E77      		andi r24,lo8(126)
 185 0074 8093 E800 		sts 232,r24
 186               	.LVL11:
 187               	.L14:
 188               	.LBE171:
 189               	.LBE170:
 190               	.LBB172:
 191               	.LBB173:
 270:/users/hunter/downloads/tmk_core/protocol/lufa/LUFA-git/LUFA/Drivers/USB/Core/AVR8/../AVR8/Endpoint_AVR8.h **** 				#endif
 192               		.loc 2 270 0
 193 0078 9F70      		andi r25,lo8(15)
 194               	.LVL12:
 195 007a 9093 E900 		sts 233,r25
 196               	.LBE173:
 197               	.LBE172:
 579:/users/hunter/downloads/tmk_core/protocol/lufa/lufa.c ****         Endpoint_ClearIN();
 580:/users/hunter/downloads/tmk_core/protocol/lufa/lufa.c ****     } else {
 581:/users/hunter/downloads/tmk_core/protocol/lufa/lufa.c ****         CONSOLE_FLUSH_SET(true);
 582:/users/hunter/downloads/tmk_core/protocol/lufa/lufa.c ****     }
 583:/users/hunter/downloads/tmk_core/protocol/lufa/lufa.c **** 
 584:/users/hunter/downloads/tmk_core/protocol/lufa/lufa.c ****     Endpoint_SelectEndpoint(ep);
 585:/users/hunter/downloads/tmk_core/protocol/lufa/lufa.c ****     return 0;
 198               		.loc 1 585 0
 199 007e 80E0      		ldi r24,0
 200 0080 0895      		ret
 201               	.LVL13:
 202               	.L16:
 203               	.LBB174:
 204               	.LBB153:
 205               	.LBB152:
 206               	.LBB151:
 240:/users/hunter/downloads/tmk_core/protocol/lufa/LUFA-git/LUFA/Drivers/USB/Core/AVR8/../AVR8/Endpoint_AVR8.h **** 			}
 207               		.loc 2 240 0
 208 0082 90E8      		ldi r25,lo8(-128)
 209 0084 00C0      		rjmp .L5
 210               	.LVL14:
 211               	.L11:
 212               	.LBE151:
 213               	.LBE152:
 214               	.LBE153:
 215               	.LBE174:
 561:/users/hunter/downloads/tmk_core/protocol/lufa/lufa.c ****             goto ERROR_EXIT;
 216               		.loc 1 561 0
 217 0086 3091 0000 		lds r19,USB_DeviceState
 218 008a 3430      		cpi r19,lo8(4)
 219 008c 01F4      		brne .L10
 220               	.LBB175:
 221               	.LBB176:
 513:/users/hunter/downloads/tmk_core/protocol/lufa/LUFA-git/LUFA/Drivers/USB/Core/AVR8/../AVR8/Endpoint_AVR8.h **** 			}
 222               		.loc 2 513 0
 223 008e 3091 EB00 		lds r19,235
 224               	.LBE176:
 225               	.LBE175:
 564:/users/hunter/downloads/tmk_core/protocol/lufa/lufa.c ****             goto ERROR_EXIT;
 226               		.loc 1 564 0
 227 0092 35FD      		sbrc r19,5
 228 0094 00C0      		rjmp .L10
 229               	.LVL15:
 230 0096 2150      		subi r18,lo8(-(-1))
 231               	.LVL16:
 567:/users/hunter/downloads/tmk_core/protocol/lufa/lufa.c ****             timeouted = true;
 232               		.loc 1 567 0
 233 0098 01F4      		brne .L9
 568:/users/hunter/downloads/tmk_core/protocol/lufa/lufa.c ****             goto ERROR_EXIT;
 234               		.loc 1 568 0
 235 009a 81E0      		ldi r24,lo8(1)
 236               	.LVL17:
 237 009c 8093 0000 		sts timeouted.4841,r24
 238               	.LVL18:
 239               	.L10:
 240               	.LBB177:
 241               	.LBB178:
 270:/users/hunter/downloads/tmk_core/protocol/lufa/LUFA-git/LUFA/Drivers/USB/Core/AVR8/../AVR8/Endpoint_AVR8.h **** 				#endif
 242               		.loc 2 270 0
 243 00a0 9F70      		andi r25,lo8(15)
 244               	.LVL19:
 245 00a2 9093 E900 		sts 233,r25
 246               	.L15:
 247               	.LBE178:
 248               	.LBE177:
 545:/users/hunter/downloads/tmk_core/protocol/lufa/lufa.c **** 
 249               		.loc 1 545 0
 250 00a6 8FEF      		ldi r24,lo8(-1)
 251               	/* epilogue start */
 586:/users/hunter/downloads/tmk_core/protocol/lufa/lufa.c **** ERROR_EXIT:
 587:/users/hunter/downloads/tmk_core/protocol/lufa/lufa.c ****     Endpoint_SelectEndpoint(ep);
 588:/users/hunter/downloads/tmk_core/protocol/lufa/lufa.c ****     return -1;
 589:/users/hunter/downloads/tmk_core/protocol/lufa/lufa.c **** }
 252               		.loc 1 589 0
 253 00a8 0895      		ret
 254               	.LVL20:
 255               	.L9:
 256               	.LBB179:
 257               	.LBB180:
 258               		.file 3 "/opt/local/avr/include/util/delay.h"
   1:/opt/local/avr/include/util/delay.h **** /* Copyright (c) 2002, Marek Michalkiewicz
   2:/opt/local/avr/include/util/delay.h ****    Copyright (c) 2004,2005,2007 Joerg Wunsch
   3:/opt/local/avr/include/util/delay.h ****    Copyright (c) 2007  Florin-Viorel Petrov
   4:/opt/local/avr/include/util/delay.h ****    All rights reserved.
   5:/opt/local/avr/include/util/delay.h **** 
   6:/opt/local/avr/include/util/delay.h ****    Redistribution and use in source and binary forms, with or without
   7:/opt/local/avr/include/util/delay.h ****    modification, are permitted provided that the following conditions are met:
   8:/opt/local/avr/include/util/delay.h **** 
   9:/opt/local/avr/include/util/delay.h ****    * Redistributions of source code must retain the above copyright
  10:/opt/local/avr/include/util/delay.h ****      notice, this list of conditions and the following disclaimer.
  11:/opt/local/avr/include/util/delay.h **** 
  12:/opt/local/avr/include/util/delay.h ****    * Redistributions in binary form must reproduce the above copyright
  13:/opt/local/avr/include/util/delay.h ****      notice, this list of conditions and the following disclaimer in
  14:/opt/local/avr/include/util/delay.h ****      the documentation and/or other materials provided with the
  15:/opt/local/avr/include/util/delay.h ****      distribution.
  16:/opt/local/avr/include/util/delay.h **** 
  17:/opt/local/avr/include/util/delay.h ****    * Neither the name of the copyright holders nor the names of
  18:/opt/local/avr/include/util/delay.h ****      contributors may be used to endorse or promote products derived
  19:/opt/local/avr/include/util/delay.h ****      from this software without specific prior written permission.
  20:/opt/local/avr/include/util/delay.h **** 
  21:/opt/local/avr/include/util/delay.h ****   THIS SOFTWARE IS PROVIDED BY THE COPYRIGHT HOLDERS AND CONTRIBUTORS "AS IS"
  22:/opt/local/avr/include/util/delay.h ****   AND ANY EXPRESS OR IMPLIED WARRANTIES, INCLUDING, BUT NOT LIMITED TO, THE
  23:/opt/local/avr/include/util/delay.h ****   IMPLIED WARRANTIES OF MERCHANTABILITY AND FITNESS FOR A PARTICULAR PURPOSE
  24:/opt/local/avr/include/util/delay.h ****   ARE DISCLAIMED. IN NO EVENT SHALL THE COPYRIGHT OWNER OR CONTRIBUTORS BE
  25:/opt/local/avr/include/util/delay.h ****   LIABLE FOR ANY DIRECT, INDIRECT, INCIDENTAL, SPECIAL, EXEMPLARY, OR
  26:/opt/local/avr/include/util/delay.h ****   CONSEQUENTIAL DAMAGES (INCLUDING, BUT NOT LIMITED TO, PROCUREMENT OF
  27:/opt/local/avr/include/util/delay.h ****   SUBSTITUTE GOODS OR SERVICES; LOSS OF USE, DATA, OR PROFITS; OR BUSINESS
  28:/opt/local/avr/include/util/delay.h ****   INTERRUPTION) HOWEVER CAUSED AND ON ANY THEORY OF LIABILITY, WHETHER IN
  29:/opt/local/avr/include/util/delay.h ****   CONTRACT, STRICT LIABILITY, OR TORT (INCLUDING NEGLIGENCE OR OTHERWISE)
  30:/opt/local/avr/include/util/delay.h ****   ARISING IN ANY WAY OUT OF THE USE OF THIS SOFTWARE, EVEN IF ADVISED OF THE
  31:/opt/local/avr/include/util/delay.h ****   POSSIBILITY OF SUCH DAMAGE. */
  32:/opt/local/avr/include/util/delay.h **** 
  33:/opt/local/avr/include/util/delay.h **** /* $Id: delay.h.in 2506 2016-02-08 10:05:45Z joerg_wunsch $ */
  34:/opt/local/avr/include/util/delay.h **** 
  35:/opt/local/avr/include/util/delay.h **** #ifndef _UTIL_DELAY_H_
  36:/opt/local/avr/include/util/delay.h **** #define _UTIL_DELAY_H_ 1
  37:/opt/local/avr/include/util/delay.h **** 
  38:/opt/local/avr/include/util/delay.h **** #ifndef __DOXYGEN__
  39:/opt/local/avr/include/util/delay.h **** #  ifndef __HAS_DELAY_CYCLES
  40:/opt/local/avr/include/util/delay.h **** #    define __HAS_DELAY_CYCLES 1
  41:/opt/local/avr/include/util/delay.h **** #  endif
  42:/opt/local/avr/include/util/delay.h **** #endif  /* __DOXYGEN__ */
  43:/opt/local/avr/include/util/delay.h **** 
  44:/opt/local/avr/include/util/delay.h **** #include <inttypes.h>
  45:/opt/local/avr/include/util/delay.h **** #include <util/delay_basic.h>
  46:/opt/local/avr/include/util/delay.h **** #include <math.h>
  47:/opt/local/avr/include/util/delay.h **** 
  48:/opt/local/avr/include/util/delay.h **** /** \file */
  49:/opt/local/avr/include/util/delay.h **** /** \defgroup util_delay <util/delay.h>: Convenience functions for busy-wait delay loops
  50:/opt/local/avr/include/util/delay.h ****     \code
  51:/opt/local/avr/include/util/delay.h ****     #define F_CPU 1000000UL  // 1 MHz
  52:/opt/local/avr/include/util/delay.h ****     //#define F_CPU 14.7456E6
  53:/opt/local/avr/include/util/delay.h ****     #include <util/delay.h>
  54:/opt/local/avr/include/util/delay.h ****     \endcode
  55:/opt/local/avr/include/util/delay.h **** 
  56:/opt/local/avr/include/util/delay.h ****     \note As an alternative method, it is possible to pass the
  57:/opt/local/avr/include/util/delay.h ****     F_CPU macro down to the compiler from the Makefile.
  58:/opt/local/avr/include/util/delay.h ****     Obviously, in that case, no \c \#define statement should be
  59:/opt/local/avr/include/util/delay.h ****     used.
  60:/opt/local/avr/include/util/delay.h **** 
  61:/opt/local/avr/include/util/delay.h ****     The functions in this header file are wrappers around the basic
  62:/opt/local/avr/include/util/delay.h ****     busy-wait functions from <util/delay_basic.h>.  They are meant as
  63:/opt/local/avr/include/util/delay.h ****     convenience functions where actual time values can be specified
  64:/opt/local/avr/include/util/delay.h ****     rather than a number of cycles to wait for.  The idea behind is
  65:/opt/local/avr/include/util/delay.h ****     that compile-time constant expressions will be eliminated by
  66:/opt/local/avr/include/util/delay.h ****     compiler optimization so floating-point expressions can be used
  67:/opt/local/avr/include/util/delay.h ****     to calculate the number of delay cycles needed based on the CPU
  68:/opt/local/avr/include/util/delay.h ****     frequency passed by the macro F_CPU.
  69:/opt/local/avr/include/util/delay.h **** 
  70:/opt/local/avr/include/util/delay.h ****     \note In order for these functions to work as intended, compiler
  71:/opt/local/avr/include/util/delay.h ****     optimizations <em>must</em> be enabled, and the delay time
  72:/opt/local/avr/include/util/delay.h ****     <em>must</em> be an expression that is a known constant at
  73:/opt/local/avr/include/util/delay.h ****     compile-time.  If these requirements are not met, the resulting
  74:/opt/local/avr/include/util/delay.h ****     delay will be much longer (and basically unpredictable), and
  75:/opt/local/avr/include/util/delay.h ****     applications that otherwise do not use floating-point calculations
  76:/opt/local/avr/include/util/delay.h ****     will experience severe code bloat by the floating-point library
  77:/opt/local/avr/include/util/delay.h ****     routines linked into the application.
  78:/opt/local/avr/include/util/delay.h **** 
  79:/opt/local/avr/include/util/delay.h ****     The functions available allow the specification of microsecond, and
  80:/opt/local/avr/include/util/delay.h ****     millisecond delays directly, using the application-supplied macro
  81:/opt/local/avr/include/util/delay.h ****     F_CPU as the CPU clock frequency (in Hertz).
  82:/opt/local/avr/include/util/delay.h **** 
  83:/opt/local/avr/include/util/delay.h **** */
  84:/opt/local/avr/include/util/delay.h **** 
  85:/opt/local/avr/include/util/delay.h **** #if !defined(__DOXYGEN__)
  86:/opt/local/avr/include/util/delay.h **** static __inline__ void _delay_us(double __us) __attribute__((__always_inline__));
  87:/opt/local/avr/include/util/delay.h **** static __inline__ void _delay_ms(double __ms) __attribute__((__always_inline__));
  88:/opt/local/avr/include/util/delay.h **** #endif
  89:/opt/local/avr/include/util/delay.h **** 
  90:/opt/local/avr/include/util/delay.h **** #ifndef F_CPU
  91:/opt/local/avr/include/util/delay.h **** /* prevent compiler error by supplying a default */
  92:/opt/local/avr/include/util/delay.h **** # warning "F_CPU not defined for <util/delay.h>"
  93:/opt/local/avr/include/util/delay.h **** /** \ingroup util_delay
  94:/opt/local/avr/include/util/delay.h ****     \def F_CPU
  95:/opt/local/avr/include/util/delay.h ****     \brief CPU frequency in Hz
  96:/opt/local/avr/include/util/delay.h **** 
  97:/opt/local/avr/include/util/delay.h ****     The macro F_CPU specifies the CPU frequency to be considered by
  98:/opt/local/avr/include/util/delay.h ****     the delay macros.  This macro is normally supplied by the
  99:/opt/local/avr/include/util/delay.h ****     environment (e.g. from within a project header, or the project's
 100:/opt/local/avr/include/util/delay.h ****     Makefile).  The value 1 MHz here is only provided as a "vanilla"
 101:/opt/local/avr/include/util/delay.h ****     fallback if no such user-provided definition could be found.
 102:/opt/local/avr/include/util/delay.h **** 
 103:/opt/local/avr/include/util/delay.h ****     In terms of the delay functions, the CPU frequency can be given as
 104:/opt/local/avr/include/util/delay.h ****     a floating-point constant (e.g. 3.6864E6 for 3.6864 MHz).
 105:/opt/local/avr/include/util/delay.h ****     However, the macros in <util/setbaud.h> require it to be an
 106:/opt/local/avr/include/util/delay.h ****     integer value.
 107:/opt/local/avr/include/util/delay.h ****  */
 108:/opt/local/avr/include/util/delay.h **** # define F_CPU 1000000UL
 109:/opt/local/avr/include/util/delay.h **** #endif
 110:/opt/local/avr/include/util/delay.h **** 
 111:/opt/local/avr/include/util/delay.h **** #ifndef __OPTIMIZE__
 112:/opt/local/avr/include/util/delay.h **** # warning "Compiler optimizations disabled; functions from <util/delay.h> won't work as designed"
 113:/opt/local/avr/include/util/delay.h **** #endif
 114:/opt/local/avr/include/util/delay.h **** 
 115:/opt/local/avr/include/util/delay.h **** #if __HAS_DELAY_CYCLES && defined(__OPTIMIZE__) && \
 116:/opt/local/avr/include/util/delay.h ****   !defined(__DELAY_BACKWARD_COMPATIBLE__) &&	   \
 117:/opt/local/avr/include/util/delay.h ****   __STDC_HOSTED__
 118:/opt/local/avr/include/util/delay.h **** #  include <math.h>
 119:/opt/local/avr/include/util/delay.h **** #endif
 120:/opt/local/avr/include/util/delay.h **** 
 121:/opt/local/avr/include/util/delay.h **** /**
 122:/opt/local/avr/include/util/delay.h ****    \ingroup util_delay
 123:/opt/local/avr/include/util/delay.h **** 
 124:/opt/local/avr/include/util/delay.h ****    Perform a delay of \c __ms milliseconds, using _delay_loop_2().
 125:/opt/local/avr/include/util/delay.h **** 
 126:/opt/local/avr/include/util/delay.h ****    The macro F_CPU is supposed to be defined to a
 127:/opt/local/avr/include/util/delay.h ****    constant defining the CPU clock frequency (in Hertz).
 128:/opt/local/avr/include/util/delay.h **** 
 129:/opt/local/avr/include/util/delay.h ****    The maximal possible delay is 262.14 ms / F_CPU in MHz.
 130:/opt/local/avr/include/util/delay.h **** 
 131:/opt/local/avr/include/util/delay.h ****    When the user request delay which exceed the maximum possible one,
 132:/opt/local/avr/include/util/delay.h ****    _delay_ms() provides a decreased resolution functionality. In this
 133:/opt/local/avr/include/util/delay.h ****    mode _delay_ms() will work with a resolution of 1/10 ms, providing
 134:/opt/local/avr/include/util/delay.h ****    delays up to 6.5535 seconds (independent from CPU frequency).  The
 135:/opt/local/avr/include/util/delay.h ****    user will not be informed about decreased resolution.
 136:/opt/local/avr/include/util/delay.h **** 
 137:/opt/local/avr/include/util/delay.h ****    If the avr-gcc toolchain has __builtin_avr_delay_cycles()
 138:/opt/local/avr/include/util/delay.h ****    support, maximal possible delay is 4294967.295 ms/ F_CPU in MHz. For
 139:/opt/local/avr/include/util/delay.h ****    values greater than the maximal possible delay, overflows results in
 140:/opt/local/avr/include/util/delay.h ****    no delay i.e., 0ms.
 141:/opt/local/avr/include/util/delay.h **** 
 142:/opt/local/avr/include/util/delay.h ****    Conversion of \c __ms into clock cycles may not always result in
 143:/opt/local/avr/include/util/delay.h ****    integer.  By default, the clock cycles rounded up to next
 144:/opt/local/avr/include/util/delay.h ****    integer. This ensures that the user gets at least \c __ms
 145:/opt/local/avr/include/util/delay.h ****    microseconds of delay.
 146:/opt/local/avr/include/util/delay.h **** 
 147:/opt/local/avr/include/util/delay.h ****    Alternatively, by defining the macro \c __DELAY_ROUND_DOWN__, or
 148:/opt/local/avr/include/util/delay.h ****    \c __DELAY_ROUND_CLOSEST__, before including this header file, the
 149:/opt/local/avr/include/util/delay.h ****    algorithm can be made to round down, or round to closest integer,
 150:/opt/local/avr/include/util/delay.h ****    respectively.
 151:/opt/local/avr/include/util/delay.h **** 
 152:/opt/local/avr/include/util/delay.h ****    \note
 153:/opt/local/avr/include/util/delay.h **** 
 154:/opt/local/avr/include/util/delay.h ****    The implementation of _delay_ms() based on
 155:/opt/local/avr/include/util/delay.h ****    __builtin_avr_delay_cycles() is not backward compatible with older
 156:/opt/local/avr/include/util/delay.h ****    implementations.  In order to get functionality backward compatible
 157:/opt/local/avr/include/util/delay.h ****    with previous versions, the macro \c "__DELAY_BACKWARD_COMPATIBLE__"
 158:/opt/local/avr/include/util/delay.h ****    must be defined before including this header file. Also, the
 159:/opt/local/avr/include/util/delay.h ****    backward compatible algorithm will be chosen if the code is
 160:/opt/local/avr/include/util/delay.h ****    compiled in a <em>freestanding environment</em> (GCC option
 161:/opt/local/avr/include/util/delay.h ****    \c -ffreestanding), as the math functions required for rounding are
 162:/opt/local/avr/include/util/delay.h ****    not available to the compiler then.
 163:/opt/local/avr/include/util/delay.h **** 
 164:/opt/local/avr/include/util/delay.h ****  */
 165:/opt/local/avr/include/util/delay.h **** void
 166:/opt/local/avr/include/util/delay.h **** _delay_ms(double __ms)
 167:/opt/local/avr/include/util/delay.h **** {
 168:/opt/local/avr/include/util/delay.h **** 	double __tmp ;
 169:/opt/local/avr/include/util/delay.h **** #if __HAS_DELAY_CYCLES && defined(__OPTIMIZE__) && \
 170:/opt/local/avr/include/util/delay.h ****   !defined(__DELAY_BACKWARD_COMPATIBLE__) &&	   \
 171:/opt/local/avr/include/util/delay.h ****   __STDC_HOSTED__
 172:/opt/local/avr/include/util/delay.h **** 	uint32_t __ticks_dc;
 173:/opt/local/avr/include/util/delay.h **** 	extern void __builtin_avr_delay_cycles(unsigned long);
 174:/opt/local/avr/include/util/delay.h **** 	__tmp = ((F_CPU) / 1e3) * __ms;
 175:/opt/local/avr/include/util/delay.h **** 
 176:/opt/local/avr/include/util/delay.h **** 	#if defined(__DELAY_ROUND_DOWN__)
 177:/opt/local/avr/include/util/delay.h **** 		__ticks_dc = (uint32_t)fabs(__tmp);
 178:/opt/local/avr/include/util/delay.h **** 
 179:/opt/local/avr/include/util/delay.h **** 	#elif defined(__DELAY_ROUND_CLOSEST__)
 180:/opt/local/avr/include/util/delay.h **** 		__ticks_dc = (uint32_t)(fabs(__tmp)+0.5);
 181:/opt/local/avr/include/util/delay.h **** 
 182:/opt/local/avr/include/util/delay.h **** 	#else
 183:/opt/local/avr/include/util/delay.h **** 		//round up by default
 184:/opt/local/avr/include/util/delay.h **** 		__ticks_dc = (uint32_t)(ceil(fabs(__tmp)));
 185:/opt/local/avr/include/util/delay.h **** 	#endif
 186:/opt/local/avr/include/util/delay.h **** 
 187:/opt/local/avr/include/util/delay.h **** 	__builtin_avr_delay_cycles(__ticks_dc);
 259               		.loc 3 187 0
 260 00aa EFE9      		ldi r30,lo8(3999)
 261 00ac FFE0      		ldi r31,hi8(3999)
 262 00ae 3197      	1:	sbiw r30,1
 263 00b0 01F4      		brne 1b
 264 00b2 00C0      		rjmp .
 265 00b4 0000      		nop
 266 00b6 00C0      		rjmp .L8
 267               	.LVL21:
 268               	.L12:
 269               	.LBE180:
 270               	.LBE179:
 271               	.LBB181:
 581:/users/hunter/downloads/tmk_core/protocol/lufa/lufa.c ****     }
 272               		.loc 1 581 0
 273 00b8 8FB7      		in r24,__SREG__
 274               	.LVL22:
 275               	/* #APP */
 276               	 ;  581 "/users/hunter/downloads/tmk_core/protocol/lufa/lufa.c" 1
 277 00ba F894      		cli
 278               	 ;  0 "" 2
 279               	/* #NOAPP */
 280 00bc 21E0      		ldi r18,lo8(1)
 281               	.LVL23:
 282 00be 2093 0000 		sts console_flush,r18
 283               	.LVL24:
 284 00c2 8FBF      		out __SREG__,r24
 285 00c4 00C0      		rjmp .L14
 286               	.LBE181:
 287               		.cfi_endproc
 288               	.LFE122:
 290               		.section	.text.send_consumer,"ax",@progbits
 292               	send_consumer:
 293               	.LFB121:
 505:/users/hunter/downloads/tmk_core/protocol/lufa/lufa.c ****     uint8_t timeout = 255;
 294               		.loc 1 505 0
 295               		.cfi_startproc
 296               	.LVL25:
 297 0000 CF93      		push r28
 298               	.LCFI0:
 299               		.cfi_def_cfa_offset 3
 300               		.cfi_offset 28, -2
 301 0002 DF93      		push r29
 302               	.LCFI1:
 303               		.cfi_def_cfa_offset 4
 304               		.cfi_offset 29, -3
 305 0004 00D0      		rcall .
 306 0006 1F92      		push __zero_reg__
 307               	.LCFI2:
 308               		.cfi_def_cfa_offset 7
 309 0008 CDB7      		in r28,__SP_L__
 310 000a DEB7      		in r29,__SP_H__
 311               	.LCFI3:
 312               		.cfi_def_cfa_register 28
 313               	/* prologue: function */
 314               	/* frame size = 3 */
 315               	/* stack size = 5 */
 316               	.L__stack_usage = 5
 317               	.LVL26:
 508:/users/hunter/downloads/tmk_core/protocol/lufa/lufa.c ****         return;
 318               		.loc 1 508 0
 319 000c 2091 0000 		lds r18,USB_DeviceState
 320 0010 2430      		cpi r18,lo8(4)
 321 0012 01F4      		brne .L28
 511:/users/hunter/downloads/tmk_core/protocol/lufa/lufa.c ****         .report_id = REPORT_ID_CONSUMER,
 322               		.loc 1 511 0
 323 0014 23E0      		ldi r18,lo8(3)
 324 0016 2983      		std Y+1,r18
 325 0018 9B83      		std Y+3,r25
 326 001a 8A83      		std Y+2,r24
 327               	.LVL27:
 328               	.LBB182:
 329               	.LBB183:
 270:/users/hunter/downloads/tmk_core/protocol/lufa/LUFA-git/LUFA/Drivers/USB/Core/AVR8/../AVR8/Endpoint_AVR8.h **** 				#endif
 330               		.loc 2 270 0
 331 001c 81E0      		ldi r24,lo8(1)
 332               	.LVL28:
 333 001e 8093 E900 		sts 233,r24
 334               	.LVL29:
 335 0022 8FEF      		ldi r24,lo8(-1)
 336               	.LVL30:
 337               	.L30:
 338               	.LBE183:
 339               	.LBE182:
 340               	.LBB184:
 341               	.LBB185:
 360:/users/hunter/downloads/tmk_core/protocol/lufa/LUFA-git/LUFA/Drivers/USB/Core/AVR8/../AVR8/Endpoint_AVR8.h **** 			}
 342               		.loc 2 360 0
 343 0024 9091 E800 		lds r25,232
 344 0028 8150      		subi r24,lo8(-(-1))
 345               	.LVL31:
 346               	.LBE185:
 347               	.LBE184:
 518:/users/hunter/downloads/tmk_core/protocol/lufa/lufa.c ****     if (!Endpoint_IsReadWriteAllowed()) return;
 348               		.loc 1 518 0
 349 002a 95FD      		sbrc r25,5
 350 002c 00C0      		rjmp .L31
 351               	.LVL32:
 352               	.LBB186:
 353               	.LBB187:
 188:/opt/local/avr/include/util/delay.h **** 
 189:/opt/local/avr/include/util/delay.h **** #else
 190:/opt/local/avr/include/util/delay.h **** 	uint16_t __ticks;
 191:/opt/local/avr/include/util/delay.h **** 	__tmp = ((F_CPU) / 4e3) * __ms;
 192:/opt/local/avr/include/util/delay.h **** 	if (__tmp < 1.0)
 193:/opt/local/avr/include/util/delay.h **** 		__ticks = 1;
 194:/opt/local/avr/include/util/delay.h **** 	else if (__tmp > 65535)
 195:/opt/local/avr/include/util/delay.h **** 	{
 196:/opt/local/avr/include/util/delay.h **** 		//	__ticks = requested delay in 1/10 ms
 197:/opt/local/avr/include/util/delay.h **** 		__ticks = (uint16_t) (__ms * 10.0);
 198:/opt/local/avr/include/util/delay.h **** 		while(__ticks)
 199:/opt/local/avr/include/util/delay.h **** 		{
 200:/opt/local/avr/include/util/delay.h **** 			// wait 1/10 ms
 201:/opt/local/avr/include/util/delay.h **** 			_delay_loop_2(((F_CPU) / 4e3) / 10);
 202:/opt/local/avr/include/util/delay.h **** 			__ticks --;
 203:/opt/local/avr/include/util/delay.h **** 		}
 204:/opt/local/avr/include/util/delay.h **** 		return;
 205:/opt/local/avr/include/util/delay.h **** 	}
 206:/opt/local/avr/include/util/delay.h **** 	else
 207:/opt/local/avr/include/util/delay.h **** 		__ticks = (uint16_t)__tmp;
 208:/opt/local/avr/include/util/delay.h **** 	_delay_loop_2(__ticks);
 209:/opt/local/avr/include/util/delay.h **** #endif
 210:/opt/local/avr/include/util/delay.h **** }
 211:/opt/local/avr/include/util/delay.h **** 
 212:/opt/local/avr/include/util/delay.h **** /**
 213:/opt/local/avr/include/util/delay.h ****    \ingroup util_delay
 214:/opt/local/avr/include/util/delay.h **** 
 215:/opt/local/avr/include/util/delay.h ****    Perform a delay of \c __us microseconds, using _delay_loop_1().
 216:/opt/local/avr/include/util/delay.h **** 
 217:/opt/local/avr/include/util/delay.h ****    The macro F_CPU is supposed to be defined to a
 218:/opt/local/avr/include/util/delay.h ****    constant defining the CPU clock frequency (in Hertz).
 219:/opt/local/avr/include/util/delay.h **** 
 220:/opt/local/avr/include/util/delay.h ****    The maximal possible delay is 768 us / F_CPU in MHz.
 221:/opt/local/avr/include/util/delay.h **** 
 222:/opt/local/avr/include/util/delay.h ****    If the user requests a delay greater than the maximal possible one,
 223:/opt/local/avr/include/util/delay.h ****    _delay_us() will automatically call _delay_ms() instead.  The user
 224:/opt/local/avr/include/util/delay.h ****    will not be informed about this case.
 225:/opt/local/avr/include/util/delay.h **** 
 226:/opt/local/avr/include/util/delay.h ****    If the avr-gcc toolchain has __builtin_avr_delay_cycles()
 227:/opt/local/avr/include/util/delay.h ****    support, maximal possible delay is 4294967.295 us/ F_CPU in MHz. For
 228:/opt/local/avr/include/util/delay.h ****    values greater than the maximal possible delay, overflow results in
 229:/opt/local/avr/include/util/delay.h ****    no delay i.e., 0us.
 230:/opt/local/avr/include/util/delay.h **** 
 231:/opt/local/avr/include/util/delay.h ****    Conversion of \c __us into clock cycles may not always result in
 232:/opt/local/avr/include/util/delay.h ****    integer.  By default, the clock cycles rounded up to next
 233:/opt/local/avr/include/util/delay.h ****    integer. This ensures that the user gets at least \c __us
 234:/opt/local/avr/include/util/delay.h ****    microseconds of delay.
 235:/opt/local/avr/include/util/delay.h **** 
 236:/opt/local/avr/include/util/delay.h ****    Alternatively, by defining the macro \c __DELAY_ROUND_DOWN__, or
 237:/opt/local/avr/include/util/delay.h ****    \c __DELAY_ROUND_CLOSEST__, before including this header file, the
 238:/opt/local/avr/include/util/delay.h ****    algorithm can be made to round down, or round to closest integer,
 239:/opt/local/avr/include/util/delay.h ****    respectively.
 240:/opt/local/avr/include/util/delay.h **** 
 241:/opt/local/avr/include/util/delay.h ****    \note
 242:/opt/local/avr/include/util/delay.h **** 
 243:/opt/local/avr/include/util/delay.h ****    The implementation of _delay_ms() based on
 244:/opt/local/avr/include/util/delay.h ****    __builtin_avr_delay_cycles() is not backward compatible with older
 245:/opt/local/avr/include/util/delay.h ****    implementations.  In order to get functionality backward compatible
 246:/opt/local/avr/include/util/delay.h ****    with previous versions, the macro \c __DELAY_BACKWARD_COMPATIBLE__
 247:/opt/local/avr/include/util/delay.h ****    must be defined before including this header file. Also, the
 248:/opt/local/avr/include/util/delay.h ****    backward compatible algorithm will be chosen if the code is
 249:/opt/local/avr/include/util/delay.h ****    compiled in a <em>freestanding environment</em> (GCC option
 250:/opt/local/avr/include/util/delay.h ****    \c -ffreestanding), as the math functions required for rounding are
 251:/opt/local/avr/include/util/delay.h ****    not available to the compiler then.
 252:/opt/local/avr/include/util/delay.h **** 
 253:/opt/local/avr/include/util/delay.h ****  */
 254:/opt/local/avr/include/util/delay.h **** void
 255:/opt/local/avr/include/util/delay.h **** _delay_us(double __us)
 256:/opt/local/avr/include/util/delay.h **** {
 257:/opt/local/avr/include/util/delay.h **** 	double __tmp ;
 258:/opt/local/avr/include/util/delay.h **** #if __HAS_DELAY_CYCLES && defined(__OPTIMIZE__) && \
 259:/opt/local/avr/include/util/delay.h ****   !defined(__DELAY_BACKWARD_COMPATIBLE__) &&	   \
 260:/opt/local/avr/include/util/delay.h ****   __STDC_HOSTED__
 261:/opt/local/avr/include/util/delay.h **** 	uint32_t __ticks_dc;
 262:/opt/local/avr/include/util/delay.h **** 	extern void __builtin_avr_delay_cycles(unsigned long);
 263:/opt/local/avr/include/util/delay.h **** 	__tmp = ((F_CPU) / 1e6) * __us;
 264:/opt/local/avr/include/util/delay.h **** 
 265:/opt/local/avr/include/util/delay.h **** 	#if defined(__DELAY_ROUND_DOWN__)
 266:/opt/local/avr/include/util/delay.h **** 		__ticks_dc = (uint32_t)fabs(__tmp);
 267:/opt/local/avr/include/util/delay.h **** 
 268:/opt/local/avr/include/util/delay.h **** 	#elif defined(__DELAY_ROUND_CLOSEST__)
 269:/opt/local/avr/include/util/delay.h **** 		__ticks_dc = (uint32_t)(fabs(__tmp)+0.5);
 270:/opt/local/avr/include/util/delay.h **** 
 271:/opt/local/avr/include/util/delay.h **** 	#else
 272:/opt/local/avr/include/util/delay.h **** 		//round up by default
 273:/opt/local/avr/include/util/delay.h **** 		__ticks_dc = (uint32_t)(ceil(fabs(__tmp)));
 274:/opt/local/avr/include/util/delay.h **** 	#endif
 275:/opt/local/avr/include/util/delay.h **** 
 276:/opt/local/avr/include/util/delay.h **** 	__builtin_avr_delay_cycles(__ticks_dc);
 354               		.loc 3 276 0
 355 002e 95ED      		ldi r25,lo8(-43)
 356 0030 9A95      	1:	dec r25
 357 0032 01F4      		brne 1b
 358 0034 0000      		nop
 359               	.LVL33:
 360               	.LBE187:
 361               	.LBE186:
 518:/users/hunter/downloads/tmk_core/protocol/lufa/lufa.c ****     if (!Endpoint_IsReadWriteAllowed()) return;
 362               		.loc 1 518 0
 363 0036 8111      		cpse r24,__zero_reg__
 364 0038 00C0      		rjmp .L30
 365               	.LVL34:
 366               	.L31:
 367               	.LBB188:
 368               	.LBB189:
 360:/users/hunter/downloads/tmk_core/protocol/lufa/LUFA-git/LUFA/Drivers/USB/Core/AVR8/../AVR8/Endpoint_AVR8.h **** 			}
 369               		.loc 2 360 0
 370 003a 8091 E800 		lds r24,232
 371               	.LBE189:
 372               	.LBE188:
 519:/users/hunter/downloads/tmk_core/protocol/lufa/lufa.c **** 
 373               		.loc 1 519 0
 374 003e 85FF      		sbrs r24,5
 375 0040 00C0      		rjmp .L28
 521:/users/hunter/downloads/tmk_core/protocol/lufa/lufa.c ****     Endpoint_ClearIN();
 376               		.loc 1 521 0
 377 0042 50E0      		ldi r21,0
 378 0044 40E0      		ldi r20,0
 379 0046 63E0      		ldi r22,lo8(3)
 380 0048 70E0      		ldi r23,0
 381 004a CE01      		movw r24,r28
 382 004c 0196      		adiw r24,1
 383 004e 0E94 0000 		call Endpoint_Write_Stream_LE
 384               	.LVL35:
 385               	.LBB190:
 386               	.LBB191:
 456:/users/hunter/downloads/tmk_core/protocol/lufa/LUFA-git/LUFA/Drivers/USB/Core/AVR8/../AVR8/Endpoint_AVR8.h **** 				#else
 387               		.loc 2 456 0
 388 0052 8091 E800 		lds r24,232
 389 0056 8E77      		andi r24,lo8(126)
 390 0058 8093 E800 		sts 232,r24
 391               	.LVL36:
 392               	.L28:
 393               	/* epilogue start */
 394               	.LBE191:
 395               	.LBE190:
 523:/users/hunter/downloads/tmk_core/protocol/lufa/lufa.c **** 
 396               		.loc 1 523 0
 397 005c 0F90      		pop __tmp_reg__
 398 005e 0F90      		pop __tmp_reg__
 399 0060 0F90      		pop __tmp_reg__
 400 0062 DF91      		pop r29
 401 0064 CF91      		pop r28
 402 0066 0895      		ret
 403               		.cfi_endproc
 404               	.LFE121:
 406               		.section	.text.send_system,"ax",@progbits
 408               	send_system:
 409               	.LFB120:
 484:/users/hunter/downloads/tmk_core/protocol/lufa/lufa.c ****     uint8_t timeout = 255;
 410               		.loc 1 484 0
 411               		.cfi_startproc
 412               	.LVL37:
 413 0000 CF93      		push r28
 414               	.LCFI4:
 415               		.cfi_def_cfa_offset 3
 416               		.cfi_offset 28, -2
 417 0002 DF93      		push r29
 418               	.LCFI5:
 419               		.cfi_def_cfa_offset 4
 420               		.cfi_offset 29, -3
 421 0004 00D0      		rcall .
 422 0006 1F92      		push __zero_reg__
 423               	.LCFI6:
 424               		.cfi_def_cfa_offset 7
 425 0008 CDB7      		in r28,__SP_L__
 426 000a DEB7      		in r29,__SP_H__
 427               	.LCFI7:
 428               		.cfi_def_cfa_register 28
 429               	/* prologue: function */
 430               	/* frame size = 3 */
 431               	/* stack size = 5 */
 432               	.L__stack_usage = 5
 433               	.LVL38:
 487:/users/hunter/downloads/tmk_core/protocol/lufa/lufa.c ****         return;
 434               		.loc 1 487 0
 435 000c 2091 0000 		lds r18,USB_DeviceState
 436 0010 2430      		cpi r18,lo8(4)
 437 0012 01F4      		brne .L40
 490:/users/hunter/downloads/tmk_core/protocol/lufa/lufa.c ****         .report_id = REPORT_ID_SYSTEM,
 438               		.loc 1 490 0
 439 0014 22E0      		ldi r18,lo8(2)
 440 0016 2983      		std Y+1,r18
 441 0018 9B83      		std Y+3,r25
 442 001a 8A83      		std Y+2,r24
 443               	.LVL39:
 444               	.LBB192:
 445               	.LBB193:
 270:/users/hunter/downloads/tmk_core/protocol/lufa/LUFA-git/LUFA/Drivers/USB/Core/AVR8/../AVR8/Endpoint_AVR8.h **** 				#endif
 446               		.loc 2 270 0
 447 001c 81E0      		ldi r24,lo8(1)
 448               	.LVL40:
 449 001e 8093 E900 		sts 233,r24
 450               	.LVL41:
 451 0022 8FEF      		ldi r24,lo8(-1)
 452               	.LVL42:
 453               	.L42:
 454               	.LBE193:
 455               	.LBE192:
 456               	.LBB194:
 457               	.LBB195:
 360:/users/hunter/downloads/tmk_core/protocol/lufa/LUFA-git/LUFA/Drivers/USB/Core/AVR8/../AVR8/Endpoint_AVR8.h **** 			}
 458               		.loc 2 360 0
 459 0024 9091 E800 		lds r25,232
 460 0028 8150      		subi r24,lo8(-(-1))
 461               	.LVL43:
 462               	.LBE195:
 463               	.LBE194:
 497:/users/hunter/downloads/tmk_core/protocol/lufa/lufa.c ****     if (!Endpoint_IsReadWriteAllowed()) return;
 464               		.loc 1 497 0
 465 002a 95FD      		sbrc r25,5
 466 002c 00C0      		rjmp .L43
 467               	.LVL44:
 468               	.LBB196:
 469               	.LBB197:
 470               		.loc 3 276 0
 471 002e 95ED      		ldi r25,lo8(-43)
 472 0030 9A95      	1:	dec r25
 473 0032 01F4      		brne 1b
 474 0034 0000      		nop
 475               	.LVL45:
 476               	.LBE197:
 477               	.LBE196:
 497:/users/hunter/downloads/tmk_core/protocol/lufa/lufa.c ****     if (!Endpoint_IsReadWriteAllowed()) return;
 478               		.loc 1 497 0
 479 0036 8111      		cpse r24,__zero_reg__
 480 0038 00C0      		rjmp .L42
 481               	.LVL46:
 482               	.L43:
 483               	.LBB198:
 484               	.LBB199:
 360:/users/hunter/downloads/tmk_core/protocol/lufa/LUFA-git/LUFA/Drivers/USB/Core/AVR8/../AVR8/Endpoint_AVR8.h **** 			}
 485               		.loc 2 360 0
 486 003a 8091 E800 		lds r24,232
 487               	.LBE199:
 488               	.LBE198:
 498:/users/hunter/downloads/tmk_core/protocol/lufa/lufa.c **** 
 489               		.loc 1 498 0
 490 003e 85FF      		sbrs r24,5
 491 0040 00C0      		rjmp .L40
 500:/users/hunter/downloads/tmk_core/protocol/lufa/lufa.c ****     Endpoint_ClearIN();
 492               		.loc 1 500 0
 493 0042 50E0      		ldi r21,0
 494 0044 40E0      		ldi r20,0
 495 0046 63E0      		ldi r22,lo8(3)
 496 0048 70E0      		ldi r23,0
 497 004a CE01      		movw r24,r28
 498 004c 0196      		adiw r24,1
 499 004e 0E94 0000 		call Endpoint_Write_Stream_LE
 500               	.LVL47:
 501               	.LBB200:
 502               	.LBB201:
 456:/users/hunter/downloads/tmk_core/protocol/lufa/LUFA-git/LUFA/Drivers/USB/Core/AVR8/../AVR8/Endpoint_AVR8.h **** 				#else
 503               		.loc 2 456 0
 504 0052 8091 E800 		lds r24,232
 505 0056 8E77      		andi r24,lo8(126)
 506 0058 8093 E800 		sts 232,r24
 507               	.LVL48:
 508               	.L40:
 509               	/* epilogue start */
 510               	.LBE201:
 511               	.LBE200:
 502:/users/hunter/downloads/tmk_core/protocol/lufa/lufa.c **** 
 512               		.loc 1 502 0
 513 005c 0F90      		pop __tmp_reg__
 514 005e 0F90      		pop __tmp_reg__
 515 0060 0F90      		pop __tmp_reg__
 516 0062 DF91      		pop r29
 517 0064 CF91      		pop r28
 518 0066 0895      		ret
 519               		.cfi_endproc
 520               	.LFE120:
 522               		.section	.text.send_keyboard,"ax",@progbits
 524               	send_keyboard:
 525               	.LFB118:
 421:/users/hunter/downloads/tmk_core/protocol/lufa/lufa.c ****     uint8_t timeout = 255;
 526               		.loc 1 421 0
 527               		.cfi_startproc
 528               	.LVL49:
 529 0000 CF93      		push r28
 530               	.LCFI8:
 531               		.cfi_def_cfa_offset 3
 532               		.cfi_offset 28, -2
 533 0002 DF93      		push r29
 534               	.LCFI9:
 535               		.cfi_def_cfa_offset 4
 536               		.cfi_offset 29, -3
 537               	/* prologue: function */
 538               	/* frame size = 0 */
 539               	/* stack size = 2 */
 540               	.L__stack_usage = 2
 541 0004 EC01      		movw r28,r24
 542               	.LVL50:
 424:/users/hunter/downloads/tmk_core/protocol/lufa/lufa.c ****         return;
 543               		.loc 1 424 0
 544 0006 8091 0000 		lds r24,USB_DeviceState
 545               	.LVL51:
 546 000a 8430      		cpi r24,lo8(4)
 547 000c 01F4      		brne .L52
 548               	.LVL52:
 549               	.LBB202:
 550               	.LBB203:
 270:/users/hunter/downloads/tmk_core/protocol/lufa/LUFA-git/LUFA/Drivers/USB/Core/AVR8/../AVR8/Endpoint_AVR8.h **** 				#endif
 551               		.loc 2 270 0
 552 000e 81E0      		ldi r24,lo8(1)
 553 0010 8093 E900 		sts 233,r24
 554               	.LVL53:
 555 0014 8FEF      		ldi r24,lo8(-1)
 556               	.LVL54:
 557               	.L55:
 558               	.LBE203:
 559               	.LBE202:
 560               	.LBB204:
 561               	.LBB205:
 360:/users/hunter/downloads/tmk_core/protocol/lufa/LUFA-git/LUFA/Drivers/USB/Core/AVR8/../AVR8/Endpoint_AVR8.h **** 			}
 562               		.loc 2 360 0
 563 0016 9091 E800 		lds r25,232
 564 001a 8150      		subi r24,lo8(-(-1))
 565               	.LVL55:
 566               	.LBE205:
 567               	.LBE204:
 447:/users/hunter/downloads/tmk_core/protocol/lufa/lufa.c ****         if (!Endpoint_IsReadWriteAllowed()) return;
 568               		.loc 1 447 0
 569 001c 95FD      		sbrc r25,5
 570 001e 00C0      		rjmp .L56
 571               	.LVL56:
 572               	.LBB206:
 573               	.LBB207:
 574               		.loc 3 276 0
 575 0020 95ED      		ldi r25,lo8(-43)
 576 0022 9A95      	1:	dec r25
 577 0024 01F4      		brne 1b
 578 0026 0000      		nop
 579               	.LVL57:
 580               	.LBE207:
 581               	.LBE206:
 447:/users/hunter/downloads/tmk_core/protocol/lufa/lufa.c ****         if (!Endpoint_IsReadWriteAllowed()) return;
 582               		.loc 1 447 0
 583 0028 8111      		cpse r24,__zero_reg__
 584 002a 00C0      		rjmp .L55
 585               	.LVL58:
 586               	.L56:
 587               	.LBB208:
 588               	.LBB209:
 360:/users/hunter/downloads/tmk_core/protocol/lufa/LUFA-git/LUFA/Drivers/USB/Core/AVR8/../AVR8/Endpoint_AVR8.h **** 			}
 589               		.loc 2 360 0
 590 002c 8091 E800 		lds r24,232
 591               	.LBE209:
 592               	.LBE208:
 448:/users/hunter/downloads/tmk_core/protocol/lufa/lufa.c **** 
 593               		.loc 1 448 0
 594 0030 85FF      		sbrs r24,5
 595 0032 00C0      		rjmp .L52
 451:/users/hunter/downloads/tmk_core/protocol/lufa/lufa.c ****     }
 596               		.loc 1 451 0
 597 0034 50E0      		ldi r21,0
 598 0036 40E0      		ldi r20,0
 599 0038 68E0      		ldi r22,lo8(8)
 600 003a 70E0      		ldi r23,0
 601 003c CE01      		movw r24,r28
 602 003e 0E94 0000 		call Endpoint_Write_Stream_LE
 603               	.LVL59:
 604               	.LBB210:
 605               	.LBB211:
 456:/users/hunter/downloads/tmk_core/protocol/lufa/LUFA-git/LUFA/Drivers/USB/Core/AVR8/../AVR8/Endpoint_AVR8.h **** 				#else
 606               		.loc 2 456 0
 607 0042 8091 E800 		lds r24,232
 608 0046 8E77      		andi r24,lo8(126)
 609 0048 8093 E800 		sts 232,r24
 610               	.LBE211:
 611               	.LBE210:
 457:/users/hunter/downloads/tmk_core/protocol/lufa/lufa.c **** }
 612               		.loc 1 457 0
 613 004c 88E0      		ldi r24,lo8(8)
 614 004e FE01      		movw r30,r28
 615 0050 A0E0      		ldi r26,lo8(keyboard_report_sent)
 616 0052 B0E0      		ldi r27,hi8(keyboard_report_sent)
 617               		0:
 618 0054 0190      		ld r0,Z+
 619 0056 0D92      		st X+,r0
 620 0058 8A95      		dec r24
 621 005a 01F4      		brne 0b
 622               	.LVL60:
 623               	.L52:
 624               	/* epilogue start */
 458:/users/hunter/downloads/tmk_core/protocol/lufa/lufa.c **** 
 625               		.loc 1 458 0
 626 005c DF91      		pop r29
 627 005e CF91      		pop r28
 628               	.LVL61:
 629 0060 0895      		ret
 630               		.cfi_endproc
 631               	.LFE118:
 633               		.section	.text.EVENT_USB_Device_Connect,"ax",@progbits
 634               	.global	EVENT_USB_Device_Connect
 636               	EVENT_USB_Device_Connect:
 637               	.LFB109:
 161:/users/hunter/downloads/tmk_core/protocol/lufa/lufa.c ****     print("[C]");
 638               		.loc 1 161 0
 639               		.cfi_startproc
 640               	/* prologue: function */
 641               	/* frame size = 0 */
 642               	/* stack size = 0 */
 643               	.L__stack_usage = 0
 162:/users/hunter/downloads/tmk_core/protocol/lufa/lufa.c ****     /* For battery powered device */
 644               		.loc 1 162 0
 645 0000 80E0      		ldi r24,lo8(__c.4761)
 646 0002 90E0      		ldi r25,hi8(__c.4761)
 647 0004 0E94 0000 		call xputs
 648               	.LVL62:
 164:/users/hunter/downloads/tmk_core/protocol/lufa/lufa.c ****         USB_Disable();
 649               		.loc 1 164 0
 650 0008 8091 0000 		lds r24,USB_IsInitialized
 651 000c 8111      		cpse r24,__zero_reg__
 652 000e 00C0      		rjmp .L65
 165:/users/hunter/downloads/tmk_core/protocol/lufa/lufa.c ****         USB_Init();
 653               		.loc 1 165 0
 654 0010 0E94 0000 		call USB_Disable
 655               	.LVL63:
 166:/users/hunter/downloads/tmk_core/protocol/lufa/lufa.c ****         USB_Device_EnableSOFEvents();
 656               		.loc 1 166 0
 657 0014 0E94 0000 		call USB_Init
 658               	.LVL64:
 659               	.LBB212:
 660               	.LBB213:
 661               	.LBB214:
 662               		.file 4 "/users/hunter/downloads/tmk_core/protocol/lufa/LUFA-git/LUFA/Drivers/USB/Core/AVR8/../AVR
   1:/users/hunter/downloads/tmk_core/protocol/lufa/LUFA-git/LUFA/Drivers/USB/Core/AVR8/../AVR8/USBInterrupt_AVR8.h **** /*
   2:/users/hunter/downloads/tmk_core/protocol/lufa/LUFA-git/LUFA/Drivers/USB/Core/AVR8/../AVR8/USBInterrupt_AVR8.h ****              LUFA Library
   3:/users/hunter/downloads/tmk_core/protocol/lufa/LUFA-git/LUFA/Drivers/USB/Core/AVR8/../AVR8/USBInterrupt_AVR8.h ****      Copyright (C) Dean Camera, 2014.
   4:/users/hunter/downloads/tmk_core/protocol/lufa/LUFA-git/LUFA/Drivers/USB/Core/AVR8/../AVR8/USBInterrupt_AVR8.h **** 
   5:/users/hunter/downloads/tmk_core/protocol/lufa/LUFA-git/LUFA/Drivers/USB/Core/AVR8/../AVR8/USBInterrupt_AVR8.h ****   dean [at] fourwalledcubicle [dot] com
   6:/users/hunter/downloads/tmk_core/protocol/lufa/LUFA-git/LUFA/Drivers/USB/Core/AVR8/../AVR8/USBInterrupt_AVR8.h ****            www.lufa-lib.org
   7:/users/hunter/downloads/tmk_core/protocol/lufa/LUFA-git/LUFA/Drivers/USB/Core/AVR8/../AVR8/USBInterrupt_AVR8.h **** */
   8:/users/hunter/downloads/tmk_core/protocol/lufa/LUFA-git/LUFA/Drivers/USB/Core/AVR8/../AVR8/USBInterrupt_AVR8.h **** 
   9:/users/hunter/downloads/tmk_core/protocol/lufa/LUFA-git/LUFA/Drivers/USB/Core/AVR8/../AVR8/USBInterrupt_AVR8.h **** /*
  10:/users/hunter/downloads/tmk_core/protocol/lufa/LUFA-git/LUFA/Drivers/USB/Core/AVR8/../AVR8/USBInterrupt_AVR8.h ****   Copyright 2014  Dean Camera (dean [at] fourwalledcubicle [dot] com)
  11:/users/hunter/downloads/tmk_core/protocol/lufa/LUFA-git/LUFA/Drivers/USB/Core/AVR8/../AVR8/USBInterrupt_AVR8.h **** 
  12:/users/hunter/downloads/tmk_core/protocol/lufa/LUFA-git/LUFA/Drivers/USB/Core/AVR8/../AVR8/USBInterrupt_AVR8.h ****   Permission to use, copy, modify, distribute, and sell this
  13:/users/hunter/downloads/tmk_core/protocol/lufa/LUFA-git/LUFA/Drivers/USB/Core/AVR8/../AVR8/USBInterrupt_AVR8.h ****   software and its documentation for any purpose is hereby granted
  14:/users/hunter/downloads/tmk_core/protocol/lufa/LUFA-git/LUFA/Drivers/USB/Core/AVR8/../AVR8/USBInterrupt_AVR8.h ****   without fee, provided that the above copyright notice appear in
  15:/users/hunter/downloads/tmk_core/protocol/lufa/LUFA-git/LUFA/Drivers/USB/Core/AVR8/../AVR8/USBInterrupt_AVR8.h ****   all copies and that both that the copyright notice and this
  16:/users/hunter/downloads/tmk_core/protocol/lufa/LUFA-git/LUFA/Drivers/USB/Core/AVR8/../AVR8/USBInterrupt_AVR8.h ****   permission notice and warranty disclaimer appear in supporting
  17:/users/hunter/downloads/tmk_core/protocol/lufa/LUFA-git/LUFA/Drivers/USB/Core/AVR8/../AVR8/USBInterrupt_AVR8.h ****   documentation, and that the name of the author not be used in
  18:/users/hunter/downloads/tmk_core/protocol/lufa/LUFA-git/LUFA/Drivers/USB/Core/AVR8/../AVR8/USBInterrupt_AVR8.h ****   advertising or publicity pertaining to distribution of the
  19:/users/hunter/downloads/tmk_core/protocol/lufa/LUFA-git/LUFA/Drivers/USB/Core/AVR8/../AVR8/USBInterrupt_AVR8.h ****   software without specific, written prior permission.
  20:/users/hunter/downloads/tmk_core/protocol/lufa/LUFA-git/LUFA/Drivers/USB/Core/AVR8/../AVR8/USBInterrupt_AVR8.h **** 
  21:/users/hunter/downloads/tmk_core/protocol/lufa/LUFA-git/LUFA/Drivers/USB/Core/AVR8/../AVR8/USBInterrupt_AVR8.h ****   The author disclaims all warranties with regard to this
  22:/users/hunter/downloads/tmk_core/protocol/lufa/LUFA-git/LUFA/Drivers/USB/Core/AVR8/../AVR8/USBInterrupt_AVR8.h ****   software, including all implied warranties of merchantability
  23:/users/hunter/downloads/tmk_core/protocol/lufa/LUFA-git/LUFA/Drivers/USB/Core/AVR8/../AVR8/USBInterrupt_AVR8.h ****   and fitness.  In no event shall the author be liable for any
  24:/users/hunter/downloads/tmk_core/protocol/lufa/LUFA-git/LUFA/Drivers/USB/Core/AVR8/../AVR8/USBInterrupt_AVR8.h ****   special, indirect or consequential damages or any damages
  25:/users/hunter/downloads/tmk_core/protocol/lufa/LUFA-git/LUFA/Drivers/USB/Core/AVR8/../AVR8/USBInterrupt_AVR8.h ****   whatsoever resulting from loss of use, data or profits, whether
  26:/users/hunter/downloads/tmk_core/protocol/lufa/LUFA-git/LUFA/Drivers/USB/Core/AVR8/../AVR8/USBInterrupt_AVR8.h ****   in an action of contract, negligence or other tortious action,
  27:/users/hunter/downloads/tmk_core/protocol/lufa/LUFA-git/LUFA/Drivers/USB/Core/AVR8/../AVR8/USBInterrupt_AVR8.h ****   arising out of or in connection with the use or performance of
  28:/users/hunter/downloads/tmk_core/protocol/lufa/LUFA-git/LUFA/Drivers/USB/Core/AVR8/../AVR8/USBInterrupt_AVR8.h ****   this software.
  29:/users/hunter/downloads/tmk_core/protocol/lufa/LUFA-git/LUFA/Drivers/USB/Core/AVR8/../AVR8/USBInterrupt_AVR8.h **** */
  30:/users/hunter/downloads/tmk_core/protocol/lufa/LUFA-git/LUFA/Drivers/USB/Core/AVR8/../AVR8/USBInterrupt_AVR8.h **** 
  31:/users/hunter/downloads/tmk_core/protocol/lufa/LUFA-git/LUFA/Drivers/USB/Core/AVR8/../AVR8/USBInterrupt_AVR8.h **** /** \file
  32:/users/hunter/downloads/tmk_core/protocol/lufa/LUFA-git/LUFA/Drivers/USB/Core/AVR8/../AVR8/USBInterrupt_AVR8.h ****  *  \brief USB Controller Interrupt definitions for the AVR8 microcontrollers.
  33:/users/hunter/downloads/tmk_core/protocol/lufa/LUFA-git/LUFA/Drivers/USB/Core/AVR8/../AVR8/USBInterrupt_AVR8.h ****  *
  34:/users/hunter/downloads/tmk_core/protocol/lufa/LUFA-git/LUFA/Drivers/USB/Core/AVR8/../AVR8/USBInterrupt_AVR8.h ****  *  This file contains definitions required for the correct handling of low level USB service routi
  35:/users/hunter/downloads/tmk_core/protocol/lufa/LUFA-git/LUFA/Drivers/USB/Core/AVR8/../AVR8/USBInterrupt_AVR8.h ****  *  from the USB controller.
  36:/users/hunter/downloads/tmk_core/protocol/lufa/LUFA-git/LUFA/Drivers/USB/Core/AVR8/../AVR8/USBInterrupt_AVR8.h ****  *
  37:/users/hunter/downloads/tmk_core/protocol/lufa/LUFA-git/LUFA/Drivers/USB/Core/AVR8/../AVR8/USBInterrupt_AVR8.h ****  *  \note This file should not be included directly. It is automatically included as needed by the 
  38:/users/hunter/downloads/tmk_core/protocol/lufa/LUFA-git/LUFA/Drivers/USB/Core/AVR8/../AVR8/USBInterrupt_AVR8.h ****  *        dispatch header located in LUFA/Drivers/USB/USB.h.
  39:/users/hunter/downloads/tmk_core/protocol/lufa/LUFA-git/LUFA/Drivers/USB/Core/AVR8/../AVR8/USBInterrupt_AVR8.h ****  */
  40:/users/hunter/downloads/tmk_core/protocol/lufa/LUFA-git/LUFA/Drivers/USB/Core/AVR8/../AVR8/USBInterrupt_AVR8.h **** 
  41:/users/hunter/downloads/tmk_core/protocol/lufa/LUFA-git/LUFA/Drivers/USB/Core/AVR8/../AVR8/USBInterrupt_AVR8.h **** #ifndef __USBINTERRUPT_AVR8_H__
  42:/users/hunter/downloads/tmk_core/protocol/lufa/LUFA-git/LUFA/Drivers/USB/Core/AVR8/../AVR8/USBInterrupt_AVR8.h **** #define __USBINTERRUPT_AVR8_H__
  43:/users/hunter/downloads/tmk_core/protocol/lufa/LUFA-git/LUFA/Drivers/USB/Core/AVR8/../AVR8/USBInterrupt_AVR8.h **** 
  44:/users/hunter/downloads/tmk_core/protocol/lufa/LUFA-git/LUFA/Drivers/USB/Core/AVR8/../AVR8/USBInterrupt_AVR8.h **** 	/* Includes: */
  45:/users/hunter/downloads/tmk_core/protocol/lufa/LUFA-git/LUFA/Drivers/USB/Core/AVR8/../AVR8/USBInterrupt_AVR8.h **** 		#include "../../../../Common/Common.h"
  46:/users/hunter/downloads/tmk_core/protocol/lufa/LUFA-git/LUFA/Drivers/USB/Core/AVR8/../AVR8/USBInterrupt_AVR8.h **** 
  47:/users/hunter/downloads/tmk_core/protocol/lufa/LUFA-git/LUFA/Drivers/USB/Core/AVR8/../AVR8/USBInterrupt_AVR8.h **** 	/* Enable C linkage for C++ Compilers: */
  48:/users/hunter/downloads/tmk_core/protocol/lufa/LUFA-git/LUFA/Drivers/USB/Core/AVR8/../AVR8/USBInterrupt_AVR8.h **** 		#if defined(__cplusplus)
  49:/users/hunter/downloads/tmk_core/protocol/lufa/LUFA-git/LUFA/Drivers/USB/Core/AVR8/../AVR8/USBInterrupt_AVR8.h **** 			extern "C" {
  50:/users/hunter/downloads/tmk_core/protocol/lufa/LUFA-git/LUFA/Drivers/USB/Core/AVR8/../AVR8/USBInterrupt_AVR8.h **** 		#endif
  51:/users/hunter/downloads/tmk_core/protocol/lufa/LUFA-git/LUFA/Drivers/USB/Core/AVR8/../AVR8/USBInterrupt_AVR8.h **** 
  52:/users/hunter/downloads/tmk_core/protocol/lufa/LUFA-git/LUFA/Drivers/USB/Core/AVR8/../AVR8/USBInterrupt_AVR8.h **** 	/* Preprocessor Checks: */
  53:/users/hunter/downloads/tmk_core/protocol/lufa/LUFA-git/LUFA/Drivers/USB/Core/AVR8/../AVR8/USBInterrupt_AVR8.h **** 		#if !defined(__INCLUDE_FROM_USB_DRIVER)
  54:/users/hunter/downloads/tmk_core/protocol/lufa/LUFA-git/LUFA/Drivers/USB/Core/AVR8/../AVR8/USBInterrupt_AVR8.h **** 			#error Do not include this file directly. Include LUFA/Drivers/USB/USB.h instead.
  55:/users/hunter/downloads/tmk_core/protocol/lufa/LUFA-git/LUFA/Drivers/USB/Core/AVR8/../AVR8/USBInterrupt_AVR8.h **** 		#endif
  56:/users/hunter/downloads/tmk_core/protocol/lufa/LUFA-git/LUFA/Drivers/USB/Core/AVR8/../AVR8/USBInterrupt_AVR8.h **** 
  57:/users/hunter/downloads/tmk_core/protocol/lufa/LUFA-git/LUFA/Drivers/USB/Core/AVR8/../AVR8/USBInterrupt_AVR8.h **** 	/* Private Interface - For use in library only: */
  58:/users/hunter/downloads/tmk_core/protocol/lufa/LUFA-git/LUFA/Drivers/USB/Core/AVR8/../AVR8/USBInterrupt_AVR8.h **** 	#if !defined(__DOXYGEN__)
  59:/users/hunter/downloads/tmk_core/protocol/lufa/LUFA-git/LUFA/Drivers/USB/Core/AVR8/../AVR8/USBInterrupt_AVR8.h **** 		/* Enums: */
  60:/users/hunter/downloads/tmk_core/protocol/lufa/LUFA-git/LUFA/Drivers/USB/Core/AVR8/../AVR8/USBInterrupt_AVR8.h **** 			enum USB_Interrupts_t
  61:/users/hunter/downloads/tmk_core/protocol/lufa/LUFA-git/LUFA/Drivers/USB/Core/AVR8/../AVR8/USBInterrupt_AVR8.h **** 			{
  62:/users/hunter/downloads/tmk_core/protocol/lufa/LUFA-git/LUFA/Drivers/USB/Core/AVR8/../AVR8/USBInterrupt_AVR8.h **** 				#if (defined(USB_SERIES_4_AVR) || defined(USB_SERIES_6_AVR) || defined(USB_SERIES_7_AVR) || def
  63:/users/hunter/downloads/tmk_core/protocol/lufa/LUFA-git/LUFA/Drivers/USB/Core/AVR8/../AVR8/USBInterrupt_AVR8.h **** 				USB_INT_VBUSTI  = 0,
  64:/users/hunter/downloads/tmk_core/protocol/lufa/LUFA-git/LUFA/Drivers/USB/Core/AVR8/../AVR8/USBInterrupt_AVR8.h **** 				#endif
  65:/users/hunter/downloads/tmk_core/protocol/lufa/LUFA-git/LUFA/Drivers/USB/Core/AVR8/../AVR8/USBInterrupt_AVR8.h **** 				#if (defined(USB_CAN_BE_BOTH) || defined(__DOXYGEN__))
  66:/users/hunter/downloads/tmk_core/protocol/lufa/LUFA-git/LUFA/Drivers/USB/Core/AVR8/../AVR8/USBInterrupt_AVR8.h **** 				USB_INT_IDTI    = 1,
  67:/users/hunter/downloads/tmk_core/protocol/lufa/LUFA-git/LUFA/Drivers/USB/Core/AVR8/../AVR8/USBInterrupt_AVR8.h **** 				#endif
  68:/users/hunter/downloads/tmk_core/protocol/lufa/LUFA-git/LUFA/Drivers/USB/Core/AVR8/../AVR8/USBInterrupt_AVR8.h **** 				#if (defined(USB_CAN_BE_DEVICE) || defined(__DOXYGEN__))
  69:/users/hunter/downloads/tmk_core/protocol/lufa/LUFA-git/LUFA/Drivers/USB/Core/AVR8/../AVR8/USBInterrupt_AVR8.h **** 				USB_INT_WAKEUPI = 2,
  70:/users/hunter/downloads/tmk_core/protocol/lufa/LUFA-git/LUFA/Drivers/USB/Core/AVR8/../AVR8/USBInterrupt_AVR8.h **** 				USB_INT_SUSPI   = 3,
  71:/users/hunter/downloads/tmk_core/protocol/lufa/LUFA-git/LUFA/Drivers/USB/Core/AVR8/../AVR8/USBInterrupt_AVR8.h **** 				USB_INT_EORSTI  = 4,
  72:/users/hunter/downloads/tmk_core/protocol/lufa/LUFA-git/LUFA/Drivers/USB/Core/AVR8/../AVR8/USBInterrupt_AVR8.h **** 				USB_INT_SOFI    = 5,
  73:/users/hunter/downloads/tmk_core/protocol/lufa/LUFA-git/LUFA/Drivers/USB/Core/AVR8/../AVR8/USBInterrupt_AVR8.h **** 				USB_INT_RXSTPI  = 6,
  74:/users/hunter/downloads/tmk_core/protocol/lufa/LUFA-git/LUFA/Drivers/USB/Core/AVR8/../AVR8/USBInterrupt_AVR8.h **** 				#endif
  75:/users/hunter/downloads/tmk_core/protocol/lufa/LUFA-git/LUFA/Drivers/USB/Core/AVR8/../AVR8/USBInterrupt_AVR8.h **** 				#if (defined(USB_CAN_BE_HOST) || defined(__DOXYGEN__))
  76:/users/hunter/downloads/tmk_core/protocol/lufa/LUFA-git/LUFA/Drivers/USB/Core/AVR8/../AVR8/USBInterrupt_AVR8.h **** 				USB_INT_HSOFI   = 7,
  77:/users/hunter/downloads/tmk_core/protocol/lufa/LUFA-git/LUFA/Drivers/USB/Core/AVR8/../AVR8/USBInterrupt_AVR8.h **** 				USB_INT_DCONNI  = 8,
  78:/users/hunter/downloads/tmk_core/protocol/lufa/LUFA-git/LUFA/Drivers/USB/Core/AVR8/../AVR8/USBInterrupt_AVR8.h **** 				USB_INT_DDISCI  = 9,
  79:/users/hunter/downloads/tmk_core/protocol/lufa/LUFA-git/LUFA/Drivers/USB/Core/AVR8/../AVR8/USBInterrupt_AVR8.h **** 				USB_INT_RSTI    = 10,
  80:/users/hunter/downloads/tmk_core/protocol/lufa/LUFA-git/LUFA/Drivers/USB/Core/AVR8/../AVR8/USBInterrupt_AVR8.h **** 				USB_INT_BCERRI  = 11,
  81:/users/hunter/downloads/tmk_core/protocol/lufa/LUFA-git/LUFA/Drivers/USB/Core/AVR8/../AVR8/USBInterrupt_AVR8.h **** 				USB_INT_VBERRI  = 12,
  82:/users/hunter/downloads/tmk_core/protocol/lufa/LUFA-git/LUFA/Drivers/USB/Core/AVR8/../AVR8/USBInterrupt_AVR8.h **** 				USB_INT_SRPI    = 13,
  83:/users/hunter/downloads/tmk_core/protocol/lufa/LUFA-git/LUFA/Drivers/USB/Core/AVR8/../AVR8/USBInterrupt_AVR8.h **** 				#endif
  84:/users/hunter/downloads/tmk_core/protocol/lufa/LUFA-git/LUFA/Drivers/USB/Core/AVR8/../AVR8/USBInterrupt_AVR8.h **** 			};
  85:/users/hunter/downloads/tmk_core/protocol/lufa/LUFA-git/LUFA/Drivers/USB/Core/AVR8/../AVR8/USBInterrupt_AVR8.h **** 
  86:/users/hunter/downloads/tmk_core/protocol/lufa/LUFA-git/LUFA/Drivers/USB/Core/AVR8/../AVR8/USBInterrupt_AVR8.h **** 		/* Inline Functions: */
  87:/users/hunter/downloads/tmk_core/protocol/lufa/LUFA-git/LUFA/Drivers/USB/Core/AVR8/../AVR8/USBInterrupt_AVR8.h **** 			static inline void USB_INT_Enable(const uint8_t Interrupt) ATTR_ALWAYS_INLINE;
  88:/users/hunter/downloads/tmk_core/protocol/lufa/LUFA-git/LUFA/Drivers/USB/Core/AVR8/../AVR8/USBInterrupt_AVR8.h **** 			static inline void USB_INT_Enable(const uint8_t Interrupt)
  89:/users/hunter/downloads/tmk_core/protocol/lufa/LUFA-git/LUFA/Drivers/USB/Core/AVR8/../AVR8/USBInterrupt_AVR8.h **** 			{
  90:/users/hunter/downloads/tmk_core/protocol/lufa/LUFA-git/LUFA/Drivers/USB/Core/AVR8/../AVR8/USBInterrupt_AVR8.h **** 				switch (Interrupt)
  91:/users/hunter/downloads/tmk_core/protocol/lufa/LUFA-git/LUFA/Drivers/USB/Core/AVR8/../AVR8/USBInterrupt_AVR8.h **** 				{
  92:/users/hunter/downloads/tmk_core/protocol/lufa/LUFA-git/LUFA/Drivers/USB/Core/AVR8/../AVR8/USBInterrupt_AVR8.h **** 					#if (defined(USB_SERIES_4_AVR) || defined(USB_SERIES_6_AVR) || defined(USB_SERIES_7_AVR))
  93:/users/hunter/downloads/tmk_core/protocol/lufa/LUFA-git/LUFA/Drivers/USB/Core/AVR8/../AVR8/USBInterrupt_AVR8.h **** 					case USB_INT_VBUSTI:
  94:/users/hunter/downloads/tmk_core/protocol/lufa/LUFA-git/LUFA/Drivers/USB/Core/AVR8/../AVR8/USBInterrupt_AVR8.h **** 						USBCON |= (1 << VBUSTE);
  95:/users/hunter/downloads/tmk_core/protocol/lufa/LUFA-git/LUFA/Drivers/USB/Core/AVR8/../AVR8/USBInterrupt_AVR8.h **** 						break;
  96:/users/hunter/downloads/tmk_core/protocol/lufa/LUFA-git/LUFA/Drivers/USB/Core/AVR8/../AVR8/USBInterrupt_AVR8.h **** 					#endif
  97:/users/hunter/downloads/tmk_core/protocol/lufa/LUFA-git/LUFA/Drivers/USB/Core/AVR8/../AVR8/USBInterrupt_AVR8.h **** 					#if defined(USB_CAN_BE_BOTH)
  98:/users/hunter/downloads/tmk_core/protocol/lufa/LUFA-git/LUFA/Drivers/USB/Core/AVR8/../AVR8/USBInterrupt_AVR8.h **** 					case USB_INT_IDTI:
  99:/users/hunter/downloads/tmk_core/protocol/lufa/LUFA-git/LUFA/Drivers/USB/Core/AVR8/../AVR8/USBInterrupt_AVR8.h **** 						USBCON |= (1 << IDTE);
 100:/users/hunter/downloads/tmk_core/protocol/lufa/LUFA-git/LUFA/Drivers/USB/Core/AVR8/../AVR8/USBInterrupt_AVR8.h **** 						break;
 101:/users/hunter/downloads/tmk_core/protocol/lufa/LUFA-git/LUFA/Drivers/USB/Core/AVR8/../AVR8/USBInterrupt_AVR8.h **** 					#endif
 102:/users/hunter/downloads/tmk_core/protocol/lufa/LUFA-git/LUFA/Drivers/USB/Core/AVR8/../AVR8/USBInterrupt_AVR8.h **** 					#if defined(USB_CAN_BE_DEVICE)
 103:/users/hunter/downloads/tmk_core/protocol/lufa/LUFA-git/LUFA/Drivers/USB/Core/AVR8/../AVR8/USBInterrupt_AVR8.h **** 					case USB_INT_WAKEUPI:
 104:/users/hunter/downloads/tmk_core/protocol/lufa/LUFA-git/LUFA/Drivers/USB/Core/AVR8/../AVR8/USBInterrupt_AVR8.h **** 						UDIEN  |= (1 << WAKEUPE);
 105:/users/hunter/downloads/tmk_core/protocol/lufa/LUFA-git/LUFA/Drivers/USB/Core/AVR8/../AVR8/USBInterrupt_AVR8.h **** 						break;
 106:/users/hunter/downloads/tmk_core/protocol/lufa/LUFA-git/LUFA/Drivers/USB/Core/AVR8/../AVR8/USBInterrupt_AVR8.h **** 					case USB_INT_SUSPI:
 107:/users/hunter/downloads/tmk_core/protocol/lufa/LUFA-git/LUFA/Drivers/USB/Core/AVR8/../AVR8/USBInterrupt_AVR8.h **** 						UDIEN  |= (1 << SUSPE);
 108:/users/hunter/downloads/tmk_core/protocol/lufa/LUFA-git/LUFA/Drivers/USB/Core/AVR8/../AVR8/USBInterrupt_AVR8.h **** 						break;
 109:/users/hunter/downloads/tmk_core/protocol/lufa/LUFA-git/LUFA/Drivers/USB/Core/AVR8/../AVR8/USBInterrupt_AVR8.h **** 					case USB_INT_EORSTI:
 110:/users/hunter/downloads/tmk_core/protocol/lufa/LUFA-git/LUFA/Drivers/USB/Core/AVR8/../AVR8/USBInterrupt_AVR8.h **** 						UDIEN  |= (1 << EORSTE);
 111:/users/hunter/downloads/tmk_core/protocol/lufa/LUFA-git/LUFA/Drivers/USB/Core/AVR8/../AVR8/USBInterrupt_AVR8.h **** 						break;
 112:/users/hunter/downloads/tmk_core/protocol/lufa/LUFA-git/LUFA/Drivers/USB/Core/AVR8/../AVR8/USBInterrupt_AVR8.h **** 					case USB_INT_SOFI:
 113:/users/hunter/downloads/tmk_core/protocol/lufa/LUFA-git/LUFA/Drivers/USB/Core/AVR8/../AVR8/USBInterrupt_AVR8.h **** 						UDIEN  |= (1 << SOFE);
 663               		.loc 4 113 0
 664 0018 8091 E200 		lds r24,226
 665 001c 8460      		ori r24,lo8(4)
 666 001e 8093 E200 		sts 226,r24
 667               	.LVL65:
 668               	.L65:
 669               	/* epilogue start */
 670               	.LBE214:
 671               	.LBE213:
 672               	.LBE212:
 169:/users/hunter/downloads/tmk_core/protocol/lufa/lufa.c **** 
 673               		.loc 1 169 0
 674 0022 0895      		ret
 675               		.cfi_endproc
 676               	.LFE109:
 678               		.section	.text.EVENT_USB_Device_Disconnect,"ax",@progbits
 679               	.global	EVENT_USB_Device_Disconnect
 681               	EVENT_USB_Device_Disconnect:
 682               	.LFB110:
 172:/users/hunter/downloads/tmk_core/protocol/lufa/lufa.c ****     print("[D]");
 683               		.loc 1 172 0
 684               		.cfi_startproc
 685               	/* prologue: function */
 686               	/* frame size = 0 */
 687               	/* stack size = 0 */
 688               	.L__stack_usage = 0
 173:/users/hunter/downloads/tmk_core/protocol/lufa/lufa.c ****     /* For battery powered device */
 689               		.loc 1 173 0
 690 0000 80E0      		ldi r24,lo8(__c.4766)
 691 0002 90E0      		ldi r25,hi8(__c.4766)
 692 0004 0E94 0000 		call xputs
 693               	.LVL66:
 175:/users/hunter/downloads/tmk_core/protocol/lufa/lufa.c **** /* TODO: This doesn't work. After several plug in/outs can not be enumerated.
 694               		.loc 1 175 0
 695 0008 1092 0000 		sts USB_IsInitialized,__zero_reg__
 696               	/* epilogue start */
 183:/users/hunter/downloads/tmk_core/protocol/lufa/lufa.c **** 
 697               		.loc 1 183 0
 698 000c 0895      		ret
 699               		.cfi_endproc
 700               	.LFE110:
 702               		.section	.text.EVENT_USB_Device_Reset,"ax",@progbits
 703               	.global	EVENT_USB_Device_Reset
 705               	EVENT_USB_Device_Reset:
 706               	.LFB111:
 186:/users/hunter/downloads/tmk_core/protocol/lufa/lufa.c **** #ifdef LUFA_DEBUG
 707               		.loc 1 186 0
 708               		.cfi_startproc
 709               	/* prologue: function */
 710               	/* frame size = 0 */
 711               	/* stack size = 0 */
 712               	.L__stack_usage = 0
 713               	/* epilogue start */
 190:/users/hunter/downloads/tmk_core/protocol/lufa/lufa.c **** 
 714               		.loc 1 190 0
 715 0000 0895      		ret
 716               		.cfi_endproc
 717               	.LFE111:
 719               		.section	.text.EVENT_USB_Device_StartOfFrame,"ax",@progbits
 720               	.global	EVENT_USB_Device_StartOfFrame
 722               	EVENT_USB_Device_StartOfFrame:
 723               	.LFB114:
 216:/users/hunter/downloads/tmk_core/protocol/lufa/lufa.c ****     static uint8_t count;
 724               		.loc 1 216 0
 725               		.cfi_startproc
 726               	/* prologue: function */
 727               	/* frame size = 0 */
 728               	/* stack size = 0 */
 729               	.L__stack_usage = 0
 218:/users/hunter/downloads/tmk_core/protocol/lufa/lufa.c ****     count = 0;
 730               		.loc 1 218 0
 731 0000 2091 0000 		lds r18,count.4779
 732 0004 2F5F      		subi r18,lo8(-(1))
 733 0006 822F      		mov r24,r18
 734 0008 62E3      		ldi r22,lo8(50)
 735 000a 0E94 0000 		call __udivmodqi4
 736 000e 9923      		tst r25
 737 0010 01F0      		breq .L70
 738 0012 2093 0000 		sts count.4779,r18
 739 0016 0895      		ret
 740               	.L70:
 219:/users/hunter/downloads/tmk_core/protocol/lufa/lufa.c **** 
 741               		.loc 1 219 0
 742 0018 1092 0000 		sts count.4779,__zero_reg__
 221:/users/hunter/downloads/tmk_core/protocol/lufa/lufa.c ****     Console_Task();
 743               		.loc 1 221 0
 744 001c 8091 0000 		lds r24,console_flush
 745 0020 8823      		tst r24
 746 0022 01F0      		breq .L69
 747               	.LBB239:
 748               	.LBB240:
  95:/users/hunter/downloads/tmk_core/protocol/lufa/lufa.c ****         return;
 749               		.loc 1 95 0
 750 0024 8091 0000 		lds r24,USB_DeviceState
 751 0028 8430      		cpi r24,lo8(4)
 752 002a 01F4      		brne .L73
 753               	.LBB241:
 754               	.LBB242:
 253:/users/hunter/downloads/tmk_core/protocol/lufa/LUFA-git/LUFA/Drivers/USB/Core/AVR8/../AVR8/Endpoint_AVR8.h **** 				#else
 755               		.loc 2 253 0
 756 002c 9091 E900 		lds r25,233
 757 0030 9F70      		andi r25,lo8(15)
 758               	.LBB243:
 759               	.LBB244:
 240:/users/hunter/downloads/tmk_core/protocol/lufa/LUFA-git/LUFA/Drivers/USB/Core/AVR8/../AVR8/Endpoint_AVR8.h **** 			}
 760               		.loc 2 240 0
 761 0032 8091 EC00 		lds r24,236
 762 0036 80FD      		sbrc r24,0
 763 0038 00C0      		rjmp .L79
 764 003a 80E0      		ldi r24,0
 765               	.L74:
 766               	.LBE244:
 767               	.LBE243:
 253:/users/hunter/downloads/tmk_core/protocol/lufa/LUFA-git/LUFA/Drivers/USB/Core/AVR8/../AVR8/Endpoint_AVR8.h **** 				#else
 768               		.loc 2 253 0
 769 003c 892B      		or r24,r25
 770               	.LVL67:
 771               	.LBE242:
 772               	.LBE241:
 773               	.LBB248:
 774               	.LBB249:
 270:/users/hunter/downloads/tmk_core/protocol/lufa/LUFA-git/LUFA/Drivers/USB/Core/AVR8/../AVR8/Endpoint_AVR8.h **** 				#endif
 775               		.loc 2 270 0
 776 003e 92E0      		ldi r25,lo8(2)
 777 0040 9093 E900 		sts 233,r25
 778               	.LVL68:
 779               	.LBE249:
 780               	.LBE248:
 781               	.LBB250:
 782               	.LBB251:
 313:/users/hunter/downloads/tmk_core/protocol/lufa/LUFA-git/LUFA/Drivers/USB/Core/AVR8/../AVR8/Endpoint_AVR8.h **** 			}
 783               		.loc 2 313 0
 784 0044 9091 EB00 		lds r25,235
 785               	.LBE251:
 786               	.LBE250:
 127:/users/hunter/downloads/tmk_core/protocol/lufa/lufa.c ****         Endpoint_SelectEndpoint(ep);
 787               		.loc 1 127 0
 788 0048 90FF      		sbrs r25,0
 789 004a 00C0      		rjmp .L78
 790               	.LBB252:
 791               	.LBB253:
 370:/users/hunter/downloads/tmk_core/protocol/lufa/LUFA-git/LUFA/Drivers/USB/Core/AVR8/../AVR8/Endpoint_AVR8.h **** 			}
 792               		.loc 2 370 0
 793 004c 9091 EE00 		lds r25,238
 794               	.LBE253:
 795               	.LBE252:
 127:/users/hunter/downloads/tmk_core/protocol/lufa/lufa.c ****         Endpoint_SelectEndpoint(ep);
 796               		.loc 1 127 0
 797 0050 97FD      		sbrc r25,7
 798 0052 00C0      		rjmp .L76
 799               	.L78:
 800               	.LVL69:
 801               	.LBB254:
 802               	.LBB255:
 270:/users/hunter/downloads/tmk_core/protocol/lufa/LUFA-git/LUFA/Drivers/USB/Core/AVR8/../AVR8/Endpoint_AVR8.h **** 				#endif
 803               		.loc 2 270 0
 804 0054 8F70      		andi r24,lo8(15)
 805               	.LVL70:
 806 0056 8093 E900 		sts 233,r24
 807               	.L73:
 808               	.LBE255:
 809               	.LBE254:
 810               	.LBE240:
 811               	.LBE239:
 223:/users/hunter/downloads/tmk_core/protocol/lufa/lufa.c **** }
 812               		.loc 1 223 0
 813 005a 1092 0000 		sts console_flush,__zero_reg__
 814               	.L69:
 815               	/* epilogue start */
 224:/users/hunter/downloads/tmk_core/protocol/lufa/lufa.c **** #endif
 816               		.loc 1 224 0
 817 005e 0895      		ret
 818               	.L79:
 819               	.LBB266:
 820               	.LBB265:
 821               	.LBB256:
 822               	.LBB247:
 823               	.LBB246:
 824               	.LBB245:
 240:/users/hunter/downloads/tmk_core/protocol/lufa/LUFA-git/LUFA/Drivers/USB/Core/AVR8/../AVR8/Endpoint_AVR8.h **** 			}
 825               		.loc 2 240 0
 826 0060 80E8      		ldi r24,lo8(-128)
 827 0062 00C0      		rjmp .L74
 828               	.L77:
 829               	.LVL71:
 830               	.LBE245:
 831               	.LBE246:
 832               	.LBE247:
 833               	.LBE256:
 834               	.LBB257:
 835               	.LBB258:
 836               		.loc 2 554 0
 837 0064 1092 F100 		sts 241,__zero_reg__
 838               	.LVL72:
 839               	.L76:
 840               	.LBE258:
 841               	.LBE257:
 842               	.LBB259:
 843               	.LBB260:
 360:/users/hunter/downloads/tmk_core/protocol/lufa/LUFA-git/LUFA/Drivers/USB/Core/AVR8/../AVR8/Endpoint_AVR8.h **** 			}
 844               		.loc 2 360 0
 845 0068 9091 E800 		lds r25,232
 846               	.LBE260:
 847               	.LBE259:
 133:/users/hunter/downloads/tmk_core/protocol/lufa/lufa.c ****         Endpoint_Write_8(0);
 848               		.loc 1 133 0
 849 006c 95FD      		sbrc r25,5
 850 006e 00C0      		rjmp .L77
 851               	.LBB261:
 852               	.LBB262:
 407:/users/hunter/downloads/tmk_core/protocol/lufa/LUFA-git/LUFA/Drivers/USB/Core/AVR8/../AVR8/Endpoint_AVR8.h **** 			}
 853               		.loc 2 407 0
 854 0070 9091 E800 		lds r25,232
 855               	.LBE262:
 856               	.LBE261:
 137:/users/hunter/downloads/tmk_core/protocol/lufa/lufa.c ****         Endpoint_ClearIN();
 857               		.loc 1 137 0
 858 0074 90FF      		sbrs r25,0
 859 0076 00C0      		rjmp .L78
 860               	.LBB263:
 861               	.LBB264:
 456:/users/hunter/downloads/tmk_core/protocol/lufa/LUFA-git/LUFA/Drivers/USB/Core/AVR8/../AVR8/Endpoint_AVR8.h **** 				#else
 862               		.loc 2 456 0
 863 0078 9091 E800 		lds r25,232
 864 007c 9E77      		andi r25,lo8(126)
 865 007e 9093 E800 		sts 232,r25
 866 0082 00C0      		rjmp .L78
 867               	.LBE264:
 868               	.LBE263:
 869               	.LBE265:
 870               	.LBE266:
 871               		.cfi_endproc
 872               	.LFE114:
 874               		.section	.text.EVENT_USB_Device_ConfigurationChanged,"ax",@progbits
 875               	.global	EVENT_USB_Device_ConfigurationChanged
 877               	EVENT_USB_Device_ConfigurationChanged:
 878               	.LFB115:
 234:/users/hunter/downloads/tmk_core/protocol/lufa/lufa.c **** #ifdef LUFA_DEBUG
 879               		.loc 1 234 0
 880               		.cfi_startproc
 881               	/* prologue: function */
 882               	/* frame size = 0 */
 883               	/* stack size = 0 */
 884               	.L__stack_usage = 0
 885               	.LVL73:
 886               	.LBB267:
 887               	.LBB268:
 210:/users/hunter/downloads/tmk_core/protocol/lufa/LUFA-git/LUFA/Drivers/USB/Core/AVR8/../AVR8/Endpoint_AVR8.h **** 				                                      ((Type << EPTYPE0) | ((Address & ENDPOINT_DIR_IN) ? (1 <<
 888               		.loc 2 210 0
 889 0000 42E0      		ldi r20,lo8(2)
 890 0002 61EC      		ldi r22,lo8(-63)
 891 0004 81E0      		ldi r24,lo8(1)
 892 0006 0E94 0000 		call Endpoint_ConfigureEndpoint_Prv
 893               	.LVL74:
 894               	.LBE268:
 895               	.LBE267:
 896               	.LBB269:
 897               	.LBB270:
 898 000a 42E2      		ldi r20,lo8(34)
 899 000c 61EC      		ldi r22,lo8(-63)
 900 000e 82E0      		ldi r24,lo8(2)
 901 0010 0C94 0000 		jmp Endpoint_ConfigureEndpoint_Prv
 902               	.LVL75:
 903               	.LBE270:
 904               	.LBE269:
 905               		.cfi_endproc
 906               	.LFE115:
 908               		.section	.text.EVENT_USB_Device_ControlRequest,"ax",@progbits
 909               	.global	EVENT_USB_Device_ControlRequest
 911               	EVENT_USB_Device_ControlRequest:
 912               	.LFB116:
 290:/users/hunter/downloads/tmk_core/protocol/lufa/lufa.c ****     uint8_t* ReportData = NULL;
 913               		.loc 1 290 0
 914               		.cfi_startproc
 915               	/* prologue: function */
 916               	/* frame size = 0 */
 917               	/* stack size = 0 */
 918               	.L__stack_usage = 0
 919               	.LVL76:
 295:/users/hunter/downloads/tmk_core/protocol/lufa/lufa.c ****     {
 920               		.loc 1 295 0
 921 0000 8091 0000 		lds r24,USB_ControlRequest+1
 922 0004 8330      		cpi r24,lo8(3)
 923 0006 01F4      		brne .+2
 924 0008 00C0      		rjmp .L93
 925 000a 00F4      		brsh .L94
 926 000c 8130      		cpi r24,lo8(1)
 927 000e 01F0      		breq .L95
 928 0010 8230      		cpi r24,lo8(2)
 929 0012 01F4      		brne .+2
 930 0014 00C0      		rjmp .L96
 931 0016 0895      		ret
 932               	.L94:
 933 0018 8A30      		cpi r24,lo8(10)
 934 001a 01F4      		brne .+2
 935 001c 00C0      		rjmp .L97
 936 001e 8B30      		cpi r24,lo8(11)
 937 0020 01F4      		brne .+2
 938 0022 00C0      		rjmp .L98
 939 0024 8930      		cpi r24,lo8(9)
 940 0026 01F0      		breq .+2
 941 0028 00C0      		rjmp .L91
 321:/users/hunter/downloads/tmk_core/protocol/lufa/lufa.c ****             {
 942               		.loc 1 321 0
 943 002a 8091 0000 		lds r24,USB_ControlRequest
 944 002e 8132      		cpi r24,lo8(33)
 945 0030 01F4      		brne .L91
 325:/users/hunter/downloads/tmk_core/protocol/lufa/lufa.c ****                 case KEYBOARD_INTERFACE:
 946               		.loc 1 325 0
 947 0032 8091 0000 		lds r24,USB_ControlRequest+4
 948 0036 9091 0000 		lds r25,USB_ControlRequest+4+1
 949 003a 892B      		or r24,r25
 950 003c 01F4      		brne .L91
 951               	.LBB271:
 952               	.LBB272:
 444:/users/hunter/downloads/tmk_core/protocol/lufa/LUFA-git/LUFA/Drivers/USB/Core/AVR8/../AVR8/Endpoint_AVR8.h **** 			}
 953               		.loc 2 444 0
 954 003e 8091 E800 		lds r24,232
 955 0042 877F      		andi r24,lo8(-9)
 956 0044 8093 E800 		sts 232,r24
 957               	.L105:
 958               	.LBE272:
 959               	.LBE271:
 960               	.LBB273:
 961               	.LBB274:
 419:/users/hunter/downloads/tmk_core/protocol/lufa/LUFA-git/LUFA/Drivers/USB/Core/AVR8/../AVR8/Endpoint_AVR8.h **** 			}
 962               		.loc 2 419 0
 963 0048 8091 E800 		lds r24,232
 964               	.LBE274:
 965               	.LBE273:
 332:/users/hunter/downloads/tmk_core/protocol/lufa/lufa.c ****                         if (USB_DeviceState == DEVICE_STATE_Unattached)
 966               		.loc 1 332 0
 967 004c 82FF      		sbrs r24,2
 968 004e 00C0      		rjmp .L106
 969               	.LBB275:
 970               	.LBB276:
 542:/users/hunter/downloads/tmk_core/protocol/lufa/LUFA-git/LUFA/Drivers/USB/Core/AVR8/../AVR8/Endpoint_AVR8.h **** 			}
 971               		.loc 2 542 0
 972 0050 8091 F100 		lds r24,241
 973               	.LBE276:
 974               	.LBE275:
 336:/users/hunter/downloads/tmk_core/protocol/lufa/lufa.c **** 
 975               		.loc 1 336 0
 976 0054 8093 0000 		sts keyboard_led_stats,r24
 977               	.LBB277:
 978               	.LBB278:
 471:/users/hunter/downloads/tmk_core/protocol/lufa/LUFA-git/LUFA/Drivers/USB/Core/AVR8/../AVR8/Endpoint_AVR8.h **** 				#else
 979               		.loc 2 471 0
 980 0058 8091 E800 		lds r24,232
 981 005c 8B77      		andi r24,lo8(123)
 982               	.L118:
 983               	.LBE278:
 984               	.LBE277:
 985               	.LBB279:
 986               	.LBB280:
 456:/users/hunter/downloads/tmk_core/protocol/lufa/LUFA-git/LUFA/Drivers/USB/Core/AVR8/../AVR8/Endpoint_AVR8.h **** 				#else
 987               		.loc 2 456 0
 988 005e 8093 E800 		sts 232,r24
 989               	.LBE280:
 990               	.LBE279:
 402:/users/hunter/downloads/tmk_core/protocol/lufa/lufa.c **** #ifdef LUFA_DEBUG
 991               		.loc 1 402 0
 992 0062 0C94 0000 		jmp Endpoint_ClearStatusStage
 993               	.LVL77:
 994               	.L95:
 298:/users/hunter/downloads/tmk_core/protocol/lufa/lufa.c ****             {
 995               		.loc 1 298 0
 996 0066 8091 0000 		lds r24,USB_ControlRequest
 997 006a 813A      		cpi r24,lo8(-95)
 998 006c 01F4      		brne .L91
 999               	.LBB282:
 1000               	.LBB283:
 444:/users/hunter/downloads/tmk_core/protocol/lufa/LUFA-git/LUFA/Drivers/USB/Core/AVR8/../AVR8/Endpoint_AVR8.h **** 			}
 1001               		.loc 2 444 0
 1002 006e 8091 E800 		lds r24,232
 1003 0072 877F      		andi r24,lo8(-9)
 1004 0074 8093 E800 		sts 232,r24
 1005               	.LBE283:
 1006               	.LBE282:
 303:/users/hunter/downloads/tmk_core/protocol/lufa/lufa.c ****                 case KEYBOARD_INTERFACE:
 1007               		.loc 1 303 0
 1008 0078 8091 0000 		lds r24,USB_ControlRequest+4
 1009 007c 9091 0000 		lds r25,USB_ControlRequest+4+1
 1010 0080 892B      		or r24,r25
 1011 0082 01F4      		brne .L117
 307:/users/hunter/downloads/tmk_core/protocol/lufa/lufa.c ****                     break;
 1012               		.loc 1 307 0
 1013 0084 68E0      		ldi r22,lo8(8)
 306:/users/hunter/downloads/tmk_core/protocol/lufa/lufa.c ****                     ReportSize = sizeof(keyboard_report_sent);
 1014               		.loc 1 306 0
 1015 0086 80E0      		ldi r24,lo8(keyboard_report_sent)
 1016 0088 90E0      		ldi r25,hi8(keyboard_report_sent)
 1017               	.L101:
 1018               	.LVL78:
 312:/users/hunter/downloads/tmk_core/protocol/lufa/lufa.c ****                 Endpoint_ClearOUT();
 1019               		.loc 1 312 0
 1020 008a 70E0      		ldi r23,0
 1021 008c 0E94 0000 		call Endpoint_Write_Control_Stream_LE
 1022               	.LVL79:
 1023               	.LBB284:
 1024               	.LBB285:
 471:/users/hunter/downloads/tmk_core/protocol/lufa/LUFA-git/LUFA/Drivers/USB/Core/AVR8/../AVR8/Endpoint_AVR8.h **** 				#else
 1025               		.loc 2 471 0
 1026 0090 8091 E800 		lds r24,232
 1027 0094 8B77      		andi r24,lo8(123)
 1028 0096 8093 E800 		sts 232,r24
 1029 009a 0895      		ret
 1030               	.LVL80:
 1031               	.L117:
 1032               	.LBE285:
 1033               	.LBE284:
 292:/users/hunter/downloads/tmk_core/protocol/lufa/lufa.c **** 
 1034               		.loc 1 292 0
 1035 009c 60E0      		ldi r22,0
 291:/users/hunter/downloads/tmk_core/protocol/lufa/lufa.c ****     uint8_t  ReportSize = 0;
 1036               		.loc 1 291 0
 1037 009e 90E0      		ldi r25,0
 1038 00a0 80E0      		ldi r24,0
 1039 00a2 00C0      		rjmp .L101
 1040               	.L106:
 333:/users/hunter/downloads/tmk_core/protocol/lufa/lufa.c ****                           return;
 1041               		.loc 1 333 0
 1042 00a4 8091 0000 		lds r24,USB_DeviceState
 1043 00a8 8111      		cpse r24,__zero_reg__
 1044 00aa 00C0      		rjmp .L105
 1045               	.L91:
 1046               	/* epilogue start */
 410:/users/hunter/downloads/tmk_core/protocol/lufa/lufa.c **** 
 1047               		.loc 1 410 0
 1048 00ac 0895      		ret
 1049               	.L93:
 351:/users/hunter/downloads/tmk_core/protocol/lufa/lufa.c ****             {
 1050               		.loc 1 351 0
 1051 00ae 8091 0000 		lds r24,USB_ControlRequest
 1052 00b2 813A      		cpi r24,lo8(-95)
 1053 00b4 01F4      		brne .L91
 353:/users/hunter/downloads/tmk_core/protocol/lufa/lufa.c ****                     Endpoint_ClearSETUP();
 1054               		.loc 1 353 0
 1055 00b6 8091 0000 		lds r24,USB_ControlRequest+4
 1056 00ba 9091 0000 		lds r25,USB_ControlRequest+4+1
 1057 00be 892B      		or r24,r25
 1058 00c0 01F4      		brne .L91
 1059               	.LBB286:
 1060               	.LBB287:
 444:/users/hunter/downloads/tmk_core/protocol/lufa/LUFA-git/LUFA/Drivers/USB/Core/AVR8/../AVR8/Endpoint_AVR8.h **** 			}
 1061               		.loc 2 444 0
 1062 00c2 8091 E800 		lds r24,232
 1063 00c6 877F      		andi r24,lo8(-9)
 1064 00c8 8093 E800 		sts 232,r24
 1065               	.L107:
 1066               	.LBE287:
 1067               	.LBE286:
 1068               	.LBB288:
 1069               	.LBB289:
 407:/users/hunter/downloads/tmk_core/protocol/lufa/LUFA-git/LUFA/Drivers/USB/Core/AVR8/../AVR8/Endpoint_AVR8.h **** 			}
 1070               		.loc 2 407 0 discriminator 1
 1071 00cc 8091 E800 		lds r24,232
 1072               	.LBE289:
 1073               	.LBE288:
 355:/users/hunter/downloads/tmk_core/protocol/lufa/lufa.c ****                     Endpoint_Write_8(keyboard_protocol);
 1074               		.loc 1 355 0 discriminator 1
 1075 00d0 80FF      		sbrs r24,0
 1076 00d2 00C0      		rjmp .L107
 356:/users/hunter/downloads/tmk_core/protocol/lufa/lufa.c ****                     Endpoint_ClearIN();
 1077               		.loc 1 356 0
 1078 00d4 8091 0000 		lds r24,keyboard_protocol
 1079               	.LVL81:
 1080               	.L119:
 1081               	.LBB290:
 1082               	.LBB291:
 1083               		.loc 2 554 0
 1084 00d8 8093 F100 		sts 241,r24
 1085               	.LVL82:
 1086               	.LBE291:
 1087               	.LBE290:
 1088               	.LBB292:
 1089               	.LBB281:
 456:/users/hunter/downloads/tmk_core/protocol/lufa/LUFA-git/LUFA/Drivers/USB/Core/AVR8/../AVR8/Endpoint_AVR8.h **** 				#else
 1090               		.loc 2 456 0
 1091 00dc 8091 E800 		lds r24,232
 1092 00e0 8E77      		andi r24,lo8(126)
 1093 00e2 00C0      		rjmp .L118
 1094               	.L98:
 1095               	.LBE281:
 1096               	.LBE292:
 367:/users/hunter/downloads/tmk_core/protocol/lufa/lufa.c ****             {
 1097               		.loc 1 367 0
 1098 00e4 8091 0000 		lds r24,USB_ControlRequest
 1099 00e8 8132      		cpi r24,lo8(33)
 1100 00ea 01F4      		brne .L91
 369:/users/hunter/downloads/tmk_core/protocol/lufa/lufa.c ****                     Endpoint_ClearSETUP();
 1101               		.loc 1 369 0
 1102 00ec 8091 0000 		lds r24,USB_ControlRequest+4
 1103 00f0 9091 0000 		lds r25,USB_ControlRequest+4+1
 1104 00f4 892B      		or r24,r25
 1105 00f6 01F4      		brne .L91
 1106               	.LBB293:
 1107               	.LBB294:
 444:/users/hunter/downloads/tmk_core/protocol/lufa/LUFA-git/LUFA/Drivers/USB/Core/AVR8/../AVR8/Endpoint_AVR8.h **** 			}
 1108               		.loc 2 444 0
 1109 00f8 8091 E800 		lds r24,232
 1110 00fc 877F      		andi r24,lo8(-9)
 1111 00fe 8093 E800 		sts 232,r24
 1112               	.LBE294:
 1113               	.LBE293:
 371:/users/hunter/downloads/tmk_core/protocol/lufa/lufa.c **** 
 1114               		.loc 1 371 0
 1115 0102 0E94 0000 		call Endpoint_ClearStatusStage
 1116               	.LVL83:
 373:/users/hunter/downloads/tmk_core/protocol/lufa/lufa.c ****                     clear_keyboard();
 1117               		.loc 1 373 0
 1118 0106 8091 0000 		lds r24,USB_ControlRequest+2
 1119 010a 8093 0000 		sts keyboard_protocol,r24
 374:/users/hunter/downloads/tmk_core/protocol/lufa/lufa.c **** #ifdef LUFA_DEBUG
 1120               		.loc 1 374 0
 1121 010e 0C94 0000 		jmp clear_keyboard
 1122               	.LVL84:
 1123               	.L97:
 383:/users/hunter/downloads/tmk_core/protocol/lufa/lufa.c ****             {
 1124               		.loc 1 383 0
 1125 0112 8091 0000 		lds r24,USB_ControlRequest
 1126 0116 8132      		cpi r24,lo8(33)
 1127 0118 01F4      		brne .L91
 1128               	.LBB295:
 1129               	.LBB296:
 444:/users/hunter/downloads/tmk_core/protocol/lufa/LUFA-git/LUFA/Drivers/USB/Core/AVR8/../AVR8/Endpoint_AVR8.h **** 			}
 1130               		.loc 2 444 0
 1131 011a 8091 E800 		lds r24,232
 1132 011e 877F      		andi r24,lo8(-9)
 1133 0120 8093 E800 		sts 232,r24
 1134               	.LBE296:
 1135               	.LBE295:
 386:/users/hunter/downloads/tmk_core/protocol/lufa/lufa.c **** 
 1136               		.loc 1 386 0
 1137 0124 0E94 0000 		call Endpoint_ClearStatusStage
 1138               	.LVL85:
 388:/users/hunter/downloads/tmk_core/protocol/lufa/lufa.c **** #ifdef LUFA_DEBUG
 1139               		.loc 1 388 0
 1140 0128 8091 0000 		lds r24,USB_ControlRequest+3
 1141 012c 8093 0000 		sts keyboard_idle,r24
 1142 0130 0895      		ret
 1143               	.L96:
 396:/users/hunter/downloads/tmk_core/protocol/lufa/lufa.c ****             {
 1144               		.loc 1 396 0
 1145 0132 8091 0000 		lds r24,USB_ControlRequest
 1146 0136 813A      		cpi r24,lo8(-95)
 1147 0138 01F0      		breq .+2
 1148 013a 00C0      		rjmp .L91
 1149               	.LBB297:
 1150               	.LBB298:
 444:/users/hunter/downloads/tmk_core/protocol/lufa/LUFA-git/LUFA/Drivers/USB/Core/AVR8/../AVR8/Endpoint_AVR8.h **** 			}
 1151               		.loc 2 444 0
 1152 013c 8091 E800 		lds r24,232
 1153 0140 877F      		andi r24,lo8(-9)
 1154 0142 8093 E800 		sts 232,r24
 1155               	.L108:
 1156               	.LBE298:
 1157               	.LBE297:
 1158               	.LBB299:
 1159               	.LBB300:
 407:/users/hunter/downloads/tmk_core/protocol/lufa/LUFA-git/LUFA/Drivers/USB/Core/AVR8/../AVR8/Endpoint_AVR8.h **** 			}
 1160               		.loc 2 407 0 discriminator 1
 1161 0146 8091 E800 		lds r24,232
 1162               	.LBE300:
 1163               	.LBE299:
 399:/users/hunter/downloads/tmk_core/protocol/lufa/lufa.c ****                 Endpoint_Write_8(keyboard_idle);
 1164               		.loc 1 399 0 discriminator 1
 1165 014a 80FF      		sbrs r24,0
 1166 014c 00C0      		rjmp .L108
 400:/users/hunter/downloads/tmk_core/protocol/lufa/lufa.c ****                 Endpoint_ClearIN();
 1167               		.loc 1 400 0
 1168 014e 8091 0000 		lds r24,keyboard_idle
 1169 0152 00C0      		rjmp .L119
 1170               		.cfi_endproc
 1171               	.LFE116:
 1173               		.section	.text.hook_early_init,"ax",@progbits
 1174               		.weak	hook_early_init
 1176               	hook_early_init:
 1177               	.LFB126:
 590:/users/hunter/downloads/tmk_core/protocol/lufa/lufa.c **** #else
 591:/users/hunter/downloads/tmk_core/protocol/lufa/lufa.c **** int8_t sendchar(uint8_t c)
 592:/users/hunter/downloads/tmk_core/protocol/lufa/lufa.c **** {
 593:/users/hunter/downloads/tmk_core/protocol/lufa/lufa.c **** #ifdef LUFA_DEBUG_SUART
 594:/users/hunter/downloads/tmk_core/protocol/lufa/lufa.c ****     xmit(c);
 595:/users/hunter/downloads/tmk_core/protocol/lufa/lufa.c **** #endif
 596:/users/hunter/downloads/tmk_core/protocol/lufa/lufa.c ****     return 0;
 597:/users/hunter/downloads/tmk_core/protocol/lufa/lufa.c **** }
 598:/users/hunter/downloads/tmk_core/protocol/lufa/lufa.c **** #endif
 599:/users/hunter/downloads/tmk_core/protocol/lufa/lufa.c **** 
 600:/users/hunter/downloads/tmk_core/protocol/lufa/lufa.c **** 
 601:/users/hunter/downloads/tmk_core/protocol/lufa/lufa.c **** /*******************************************************************************
 602:/users/hunter/downloads/tmk_core/protocol/lufa/lufa.c ****  * main
 603:/users/hunter/downloads/tmk_core/protocol/lufa/lufa.c ****  ******************************************************************************/
 604:/users/hunter/downloads/tmk_core/protocol/lufa/lufa.c **** static void setup_mcu(void)
 605:/users/hunter/downloads/tmk_core/protocol/lufa/lufa.c **** {
 606:/users/hunter/downloads/tmk_core/protocol/lufa/lufa.c ****     /* Disable watchdog if enabled by bootloader/fuses */
 607:/users/hunter/downloads/tmk_core/protocol/lufa/lufa.c ****     MCUSR &= ~(1 << WDRF);
 608:/users/hunter/downloads/tmk_core/protocol/lufa/lufa.c ****     wdt_disable();
 609:/users/hunter/downloads/tmk_core/protocol/lufa/lufa.c **** 
 610:/users/hunter/downloads/tmk_core/protocol/lufa/lufa.c ****     /* Disable clock division */
 611:/users/hunter/downloads/tmk_core/protocol/lufa/lufa.c ****     clock_prescale_set(clock_div_1);
 612:/users/hunter/downloads/tmk_core/protocol/lufa/lufa.c **** }
 613:/users/hunter/downloads/tmk_core/protocol/lufa/lufa.c **** 
 614:/users/hunter/downloads/tmk_core/protocol/lufa/lufa.c **** static void setup_usb(void)
 615:/users/hunter/downloads/tmk_core/protocol/lufa/lufa.c **** {
 616:/users/hunter/downloads/tmk_core/protocol/lufa/lufa.c ****     // Leonardo needs. Without this USB device is not recognized.
 617:/users/hunter/downloads/tmk_core/protocol/lufa/lufa.c ****     USB_Disable();
 618:/users/hunter/downloads/tmk_core/protocol/lufa/lufa.c **** 
 619:/users/hunter/downloads/tmk_core/protocol/lufa/lufa.c ****     USB_Init();
 620:/users/hunter/downloads/tmk_core/protocol/lufa/lufa.c **** 
 621:/users/hunter/downloads/tmk_core/protocol/lufa/lufa.c ****     // for Console_Task
 622:/users/hunter/downloads/tmk_core/protocol/lufa/lufa.c ****     USB_Device_EnableSOFEvents();
 623:/users/hunter/downloads/tmk_core/protocol/lufa/lufa.c **** }
 624:/users/hunter/downloads/tmk_core/protocol/lufa/lufa.c **** 
 625:/users/hunter/downloads/tmk_core/protocol/lufa/lufa.c **** int main(void)  __attribute__ ((weak));
 626:/users/hunter/downloads/tmk_core/protocol/lufa/lufa.c **** int main(void)
 627:/users/hunter/downloads/tmk_core/protocol/lufa/lufa.c **** {
 628:/users/hunter/downloads/tmk_core/protocol/lufa/lufa.c ****     setup_mcu();
 629:/users/hunter/downloads/tmk_core/protocol/lufa/lufa.c **** 
 630:/users/hunter/downloads/tmk_core/protocol/lufa/lufa.c **** #ifdef LUFA_DEBUG_SUART
 631:/users/hunter/downloads/tmk_core/protocol/lufa/lufa.c ****     SUART_OUT_DDR |= (1<<SUART_OUT_BIT);
 632:/users/hunter/downloads/tmk_core/protocol/lufa/lufa.c ****     SUART_OUT_PORT |= (1<<SUART_OUT_BIT);
 633:/users/hunter/downloads/tmk_core/protocol/lufa/lufa.c **** #endif
 634:/users/hunter/downloads/tmk_core/protocol/lufa/lufa.c ****     print_set_sendchar(sendchar);
 635:/users/hunter/downloads/tmk_core/protocol/lufa/lufa.c ****     print("\r\ninit\n");
 636:/users/hunter/downloads/tmk_core/protocol/lufa/lufa.c **** 
 637:/users/hunter/downloads/tmk_core/protocol/lufa/lufa.c ****     hook_early_init();
 638:/users/hunter/downloads/tmk_core/protocol/lufa/lufa.c ****     keyboard_setup();
 639:/users/hunter/downloads/tmk_core/protocol/lufa/lufa.c ****     setup_usb();
 640:/users/hunter/downloads/tmk_core/protocol/lufa/lufa.c ****     sei();
 641:/users/hunter/downloads/tmk_core/protocol/lufa/lufa.c **** 
 642:/users/hunter/downloads/tmk_core/protocol/lufa/lufa.c ****     /* wait for USB startup & debug output */
 643:/users/hunter/downloads/tmk_core/protocol/lufa/lufa.c ****     while (USB_DeviceState != DEVICE_STATE_Configured) {
 644:/users/hunter/downloads/tmk_core/protocol/lufa/lufa.c **** #if defined(INTERRUPT_CONTROL_ENDPOINT)
 645:/users/hunter/downloads/tmk_core/protocol/lufa/lufa.c ****         ;
 646:/users/hunter/downloads/tmk_core/protocol/lufa/lufa.c **** #else
 647:/users/hunter/downloads/tmk_core/protocol/lufa/lufa.c ****         USB_USBTask();
 648:/users/hunter/downloads/tmk_core/protocol/lufa/lufa.c **** #endif
 649:/users/hunter/downloads/tmk_core/protocol/lufa/lufa.c ****     }
 650:/users/hunter/downloads/tmk_core/protocol/lufa/lufa.c ****     print("USB configured.\n");
 651:/users/hunter/downloads/tmk_core/protocol/lufa/lufa.c **** 
 652:/users/hunter/downloads/tmk_core/protocol/lufa/lufa.c ****     /* init modules */
 653:/users/hunter/downloads/tmk_core/protocol/lufa/lufa.c ****     keyboard_init();
 654:/users/hunter/downloads/tmk_core/protocol/lufa/lufa.c ****     host_set_driver(&lufa_driver);
 655:/users/hunter/downloads/tmk_core/protocol/lufa/lufa.c **** #ifdef SLEEP_LED_ENABLE
 656:/users/hunter/downloads/tmk_core/protocol/lufa/lufa.c ****     sleep_led_init();
 657:/users/hunter/downloads/tmk_core/protocol/lufa/lufa.c **** #endif
 658:/users/hunter/downloads/tmk_core/protocol/lufa/lufa.c **** 
 659:/users/hunter/downloads/tmk_core/protocol/lufa/lufa.c ****     print("Keyboard start.\n");
 660:/users/hunter/downloads/tmk_core/protocol/lufa/lufa.c ****     hook_late_init();
 661:/users/hunter/downloads/tmk_core/protocol/lufa/lufa.c ****     while (1) {
 662:/users/hunter/downloads/tmk_core/protocol/lufa/lufa.c ****         while (USB_DeviceState == DEVICE_STATE_Suspended) {
 663:/users/hunter/downloads/tmk_core/protocol/lufa/lufa.c **** #ifdef LUFA_DEBUG
 664:/users/hunter/downloads/tmk_core/protocol/lufa/lufa.c ****             print("[s]");
 665:/users/hunter/downloads/tmk_core/protocol/lufa/lufa.c **** #endif
 666:/users/hunter/downloads/tmk_core/protocol/lufa/lufa.c ****             hook_usb_suspend_loop();
 667:/users/hunter/downloads/tmk_core/protocol/lufa/lufa.c ****         }
 668:/users/hunter/downloads/tmk_core/protocol/lufa/lufa.c **** 
 669:/users/hunter/downloads/tmk_core/protocol/lufa/lufa.c ****         keyboard_task();
 670:/users/hunter/downloads/tmk_core/protocol/lufa/lufa.c **** 
 671:/users/hunter/downloads/tmk_core/protocol/lufa/lufa.c **** #if !defined(INTERRUPT_CONTROL_ENDPOINT)
 672:/users/hunter/downloads/tmk_core/protocol/lufa/lufa.c ****         USB_USBTask();
 673:/users/hunter/downloads/tmk_core/protocol/lufa/lufa.c **** #endif
 674:/users/hunter/downloads/tmk_core/protocol/lufa/lufa.c ****     }
 675:/users/hunter/downloads/tmk_core/protocol/lufa/lufa.c **** }
 676:/users/hunter/downloads/tmk_core/protocol/lufa/lufa.c **** 
 677:/users/hunter/downloads/tmk_core/protocol/lufa/lufa.c **** 
 678:/users/hunter/downloads/tmk_core/protocol/lufa/lufa.c **** /* hooks */
 679:/users/hunter/downloads/tmk_core/protocol/lufa/lufa.c **** __attribute__((weak))
 680:/users/hunter/downloads/tmk_core/protocol/lufa/lufa.c **** void hook_early_init(void) {}
 1178               		.loc 1 680 0
 1179               		.cfi_startproc
 1180               	/* prologue: function */
 1181               	/* frame size = 0 */
 1182               	/* stack size = 0 */
 1183               	.L__stack_usage = 0
 1184               	/* epilogue start */
 1185               		.loc 1 680 0
 1186 0000 0895      		ret
 1187               		.cfi_endproc
 1188               	.LFE126:
 1190               		.set	hook_early_init.localalias.0,hook_early_init
 1191               		.section	.text.hook_late_init,"ax",@progbits
 1192               		.weak	hook_late_init
 1194               	hook_late_init:
 1195               	.LFB132:
 1196               		.cfi_startproc
 1197               	/* prologue: function */
 1198               	/* frame size = 0 */
 1199               	/* stack size = 0 */
 1200               	.L__stack_usage = 0
 1201               	/* epilogue start */
 1202 0000 0895      		ret
 1203               		.cfi_endproc
 1204               	.LFE132:
 1206               		.section	.text.hook_usb_suspend_entry,"ax",@progbits
 1207               		.weak	hook_usb_suspend_entry
 1209               	hook_usb_suspend_entry:
 1210               	.LFB128:
 681:/users/hunter/downloads/tmk_core/protocol/lufa/lufa.c **** 
 682:/users/hunter/downloads/tmk_core/protocol/lufa/lufa.c **** __attribute__((weak))
 683:/users/hunter/downloads/tmk_core/protocol/lufa/lufa.c **** void hook_late_init(void) {}
 684:/users/hunter/downloads/tmk_core/protocol/lufa/lufa.c **** 
 685:/users/hunter/downloads/tmk_core/protocol/lufa/lufa.c **** static uint8_t _led_stats = 0;
 686:/users/hunter/downloads/tmk_core/protocol/lufa/lufa.c ****  __attribute__((weak))
 687:/users/hunter/downloads/tmk_core/protocol/lufa/lufa.c **** void hook_usb_suspend_entry(void)
 688:/users/hunter/downloads/tmk_core/protocol/lufa/lufa.c **** {
 1211               		.loc 1 688 0
 1212               		.cfi_startproc
 1213               	/* prologue: function */
 1214               	/* frame size = 0 */
 1215               	/* stack size = 0 */
 1216               	.L__stack_usage = 0
 689:/users/hunter/downloads/tmk_core/protocol/lufa/lufa.c ****     // Turn LED off to save power
 690:/users/hunter/downloads/tmk_core/protocol/lufa/lufa.c ****     // Set 0 with putting aside status before suspend and restore
 691:/users/hunter/downloads/tmk_core/protocol/lufa/lufa.c ****     // it after wakeup, then LED is updated at keyboard_task() in main loop
 692:/users/hunter/downloads/tmk_core/protocol/lufa/lufa.c ****     _led_stats = keyboard_led_stats;
 1217               		.loc 1 692 0
 1218 0000 8091 0000 		lds r24,keyboard_led_stats
 1219 0004 8093 0000 		sts _led_stats,r24
 693:/users/hunter/downloads/tmk_core/protocol/lufa/lufa.c ****     keyboard_led_stats = 0;
 1220               		.loc 1 693 0
 1221 0008 1092 0000 		sts keyboard_led_stats,__zero_reg__
 694:/users/hunter/downloads/tmk_core/protocol/lufa/lufa.c ****     led_set(keyboard_led_stats);
 1222               		.loc 1 694 0
 1223 000c 80E0      		ldi r24,0
 1224 000e 0E94 0000 		call led_set
 1225               	.LVL86:
 695:/users/hunter/downloads/tmk_core/protocol/lufa/lufa.c **** 
 696:/users/hunter/downloads/tmk_core/protocol/lufa/lufa.c ****     matrix_clear();
 1226               		.loc 1 696 0
 1227 0012 0E94 0000 		call matrix_clear
 1228               	.LVL87:
 697:/users/hunter/downloads/tmk_core/protocol/lufa/lufa.c ****     clear_keyboard();
 1229               		.loc 1 697 0
 1230 0016 0C94 0000 		jmp clear_keyboard
 1231               	.LVL88:
 1232               		.cfi_endproc
 1233               	.LFE128:
 1235               		.section	.text.EVENT_USB_Device_Suspend,"ax",@progbits
 1236               	.global	EVENT_USB_Device_Suspend
 1238               	EVENT_USB_Device_Suspend:
 1239               	.LFB112:
 193:/users/hunter/downloads/tmk_core/protocol/lufa/lufa.c **** #ifdef LUFA_DEBUG
 1240               		.loc 1 193 0
 1241               		.cfi_startproc
 1242               	/* prologue: function */
 1243               	/* frame size = 0 */
 1244               	/* stack size = 0 */
 1245               	.L__stack_usage = 0
 197:/users/hunter/downloads/tmk_core/protocol/lufa/lufa.c **** }
 1246               		.loc 1 197 0
 1247 0000 0C94 0000 		jmp hook_usb_suspend_entry
 1248               	.LVL89:
 1249               		.cfi_endproc
 1250               	.LFE112:
 1252               		.section	.text.hook_usb_suspend_loop,"ax",@progbits
 1253               		.weak	hook_usb_suspend_loop
 1255               	hook_usb_suspend_loop:
 1256               	.LFB129:
 698:/users/hunter/downloads/tmk_core/protocol/lufa/lufa.c **** #ifdef SLEEP_LED_ENABLE
 699:/users/hunter/downloads/tmk_core/protocol/lufa/lufa.c ****     sleep_led_enable();
 700:/users/hunter/downloads/tmk_core/protocol/lufa/lufa.c **** #endif
 701:/users/hunter/downloads/tmk_core/protocol/lufa/lufa.c **** }
 702:/users/hunter/downloads/tmk_core/protocol/lufa/lufa.c **** 
 703:/users/hunter/downloads/tmk_core/protocol/lufa/lufa.c **** __attribute__((weak))
 704:/users/hunter/downloads/tmk_core/protocol/lufa/lufa.c **** void hook_usb_suspend_loop(void)
 705:/users/hunter/downloads/tmk_core/protocol/lufa/lufa.c **** {
 1257               		.loc 1 705 0
 1258               		.cfi_startproc
 1259               	/* prologue: function */
 1260               	/* frame size = 0 */
 1261               	/* stack size = 0 */
 1262               	.L__stack_usage = 0
 706:/users/hunter/downloads/tmk_core/protocol/lufa/lufa.c ****     suspend_power_down();
 1263               		.loc 1 706 0
 1264 0000 0E94 0000 		call suspend_power_down
 1265               	.LVL90:
 707:/users/hunter/downloads/tmk_core/protocol/lufa/lufa.c ****     if (USB_Device_RemoteWakeupEnabled && suspend_wakeup_condition()) {
 1266               		.loc 1 707 0
 1267 0004 8091 0000 		lds r24,USB_Device_RemoteWakeupEnabled
 1268 0008 8823      		tst r24
 1269 000a 01F0      		breq .L124
 1270               		.loc 1 707 0 is_stmt 0 discriminator 1
 1271 000c 0E94 0000 		call suspend_wakeup_condition
 1272               	.LVL91:
 1273 0010 8111      		cpse r24,__zero_reg__
 708:/users/hunter/downloads/tmk_core/protocol/lufa/lufa.c ****         USB_Device_SendRemoteWakeup();
 1274               		.loc 1 708 0 is_stmt 1
 1275 0012 0C94 0000 		jmp USB_Device_SendRemoteWakeup
 1276               	.LVL92:
 1277               	.L124:
 1278               	/* epilogue start */
 709:/users/hunter/downloads/tmk_core/protocol/lufa/lufa.c ****     }
 710:/users/hunter/downloads/tmk_core/protocol/lufa/lufa.c **** }
 1279               		.loc 1 710 0
 1280 0016 0895      		ret
 1281               		.cfi_endproc
 1282               	.LFE129:
 1284               		.section	.text.startup.main,"ax",@progbits
 1285               		.weak	main
 1287               	main:
 1288               	.LFB125:
 627:/users/hunter/downloads/tmk_core/protocol/lufa/lufa.c ****     setup_mcu();
 1289               		.loc 1 627 0
 1290               		.cfi_startproc
 1291               	/* prologue: function */
 1292               	/* frame size = 0 */
 1293               	/* stack size = 0 */
 1294               	.L__stack_usage = 0
 1295               	.LBB315:
 1296               	.LBB316:
 607:/users/hunter/downloads/tmk_core/protocol/lufa/lufa.c ****     wdt_disable();
 1297               		.loc 1 607 0
 1298 0000 84B7      		in r24,0x34
 1299 0002 877F      		andi r24,lo8(-9)
 1300 0004 84BF      		out 0x34,r24
 1301               	.LBB317:
 1302               	.LBB318:
 1303               		.file 5 "/opt/local/avr/include/avr/wdt.h"
   1:/opt/local/avr/include/avr/wdt.h **** /* Copyright (c) 2002, 2004 Marek Michalkiewicz
   2:/opt/local/avr/include/avr/wdt.h ****    Copyright (c) 2005, 2006, 2007 Eric B. Weddington
   3:/opt/local/avr/include/avr/wdt.h ****    All rights reserved.
   4:/opt/local/avr/include/avr/wdt.h **** 
   5:/opt/local/avr/include/avr/wdt.h ****    Redistribution and use in source and binary forms, with or without
   6:/opt/local/avr/include/avr/wdt.h ****    modification, are permitted provided that the following conditions are met:
   7:/opt/local/avr/include/avr/wdt.h **** 
   8:/opt/local/avr/include/avr/wdt.h ****    * Redistributions of source code must retain the above copyright
   9:/opt/local/avr/include/avr/wdt.h ****      notice, this list of conditions and the following disclaimer.
  10:/opt/local/avr/include/avr/wdt.h **** 
  11:/opt/local/avr/include/avr/wdt.h ****    * Redistributions in binary form must reproduce the above copyright
  12:/opt/local/avr/include/avr/wdt.h ****      notice, this list of conditions and the following disclaimer in
  13:/opt/local/avr/include/avr/wdt.h ****      the documentation and/or other materials provided with the
  14:/opt/local/avr/include/avr/wdt.h ****      distribution.
  15:/opt/local/avr/include/avr/wdt.h **** 
  16:/opt/local/avr/include/avr/wdt.h ****    * Neither the name of the copyright holders nor the names of
  17:/opt/local/avr/include/avr/wdt.h ****      contributors may be used to endorse or promote products derived
  18:/opt/local/avr/include/avr/wdt.h ****      from this software without specific prior written permission.
  19:/opt/local/avr/include/avr/wdt.h **** 
  20:/opt/local/avr/include/avr/wdt.h ****   THIS SOFTWARE IS PROVIDED BY THE COPYRIGHT HOLDERS AND CONTRIBUTORS "AS IS"
  21:/opt/local/avr/include/avr/wdt.h ****   AND ANY EXPRESS OR IMPLIED WARRANTIES, INCLUDING, BUT NOT LIMITED TO, THE
  22:/opt/local/avr/include/avr/wdt.h ****   IMPLIED WARRANTIES OF MERCHANTABILITY AND FITNESS FOR A PARTICULAR PURPOSE
  23:/opt/local/avr/include/avr/wdt.h ****   ARE DISCLAIMED. IN NO EVENT SHALL THE COPYRIGHT OWNER OR CONTRIBUTORS BE
  24:/opt/local/avr/include/avr/wdt.h ****   LIABLE FOR ANY DIRECT, INDIRECT, INCIDENTAL, SPECIAL, EXEMPLARY, OR
  25:/opt/local/avr/include/avr/wdt.h ****   CONSEQUENTIAL DAMAGES (INCLUDING, BUT NOT LIMITED TO, PROCUREMENT OF
  26:/opt/local/avr/include/avr/wdt.h ****   SUBSTITUTE GOODS OR SERVICES; LOSS OF USE, DATA, OR PROFITS; OR BUSINESS
  27:/opt/local/avr/include/avr/wdt.h ****   INTERRUPTION) HOWEVER CAUSED AND ON ANY THEORY OF LIABILITY, WHETHER IN
  28:/opt/local/avr/include/avr/wdt.h ****   CONTRACT, STRICT LIABILITY, OR TORT (INCLUDING NEGLIGENCE OR OTHERWISE)
  29:/opt/local/avr/include/avr/wdt.h ****   ARISING IN ANY WAY OUT OF THE USE OF THIS SOFTWARE, EVEN IF ADVISED OF THE
  30:/opt/local/avr/include/avr/wdt.h ****   POSSIBILITY OF SUCH DAMAGE. */
  31:/opt/local/avr/include/avr/wdt.h **** 
  32:/opt/local/avr/include/avr/wdt.h **** /* $Id: wdt.h 2503 2016-02-07 22:59:47Z joerg_wunsch $ */
  33:/opt/local/avr/include/avr/wdt.h **** 
  34:/opt/local/avr/include/avr/wdt.h **** /*
  35:/opt/local/avr/include/avr/wdt.h ****    avr/wdt.h - macros for AVR watchdog timer
  36:/opt/local/avr/include/avr/wdt.h ****  */
  37:/opt/local/avr/include/avr/wdt.h **** 
  38:/opt/local/avr/include/avr/wdt.h **** #ifndef _AVR_WDT_H_
  39:/opt/local/avr/include/avr/wdt.h **** #define _AVR_WDT_H_
  40:/opt/local/avr/include/avr/wdt.h **** 
  41:/opt/local/avr/include/avr/wdt.h **** #include <avr/io.h>
  42:/opt/local/avr/include/avr/wdt.h **** #include <stdint.h>
  43:/opt/local/avr/include/avr/wdt.h **** 
  44:/opt/local/avr/include/avr/wdt.h **** /** \file */
  45:/opt/local/avr/include/avr/wdt.h **** /** \defgroup avr_watchdog <avr/wdt.h>: Watchdog timer handling
  46:/opt/local/avr/include/avr/wdt.h ****     \code #include <avr/wdt.h> \endcode
  47:/opt/local/avr/include/avr/wdt.h **** 
  48:/opt/local/avr/include/avr/wdt.h ****     This header file declares the interface to some inline macros
  49:/opt/local/avr/include/avr/wdt.h ****     handling the watchdog timer present in many AVR devices.  In order
  50:/opt/local/avr/include/avr/wdt.h ****     to prevent the watchdog timer configuration from being
  51:/opt/local/avr/include/avr/wdt.h ****     accidentally altered by a crashing application, a special timed
  52:/opt/local/avr/include/avr/wdt.h ****     sequence is required in order to change it.  The macros within
  53:/opt/local/avr/include/avr/wdt.h ****     this header file handle the required sequence automatically
  54:/opt/local/avr/include/avr/wdt.h ****     before changing any value.  Interrupts will be disabled during
  55:/opt/local/avr/include/avr/wdt.h ****     the manipulation.
  56:/opt/local/avr/include/avr/wdt.h **** 
  57:/opt/local/avr/include/avr/wdt.h ****     \note Depending on the fuse configuration of the particular
  58:/opt/local/avr/include/avr/wdt.h ****     device, further restrictions might apply, in particular it might
  59:/opt/local/avr/include/avr/wdt.h ****     be disallowed to turn off the watchdog timer.
  60:/opt/local/avr/include/avr/wdt.h **** 
  61:/opt/local/avr/include/avr/wdt.h ****     Note that for newer devices (ATmega88 and newer, effectively any
  62:/opt/local/avr/include/avr/wdt.h ****     AVR that has the option to also generate interrupts), the watchdog
  63:/opt/local/avr/include/avr/wdt.h ****     timer remains active even after a system reset (except a power-on
  64:/opt/local/avr/include/avr/wdt.h ****     condition), using the fastest prescaler value (approximately 15
  65:/opt/local/avr/include/avr/wdt.h ****     ms).  It is therefore required to turn off the watchdog early
  66:/opt/local/avr/include/avr/wdt.h ****     during program startup, the datasheet recommends a sequence like
  67:/opt/local/avr/include/avr/wdt.h ****     the following:
  68:/opt/local/avr/include/avr/wdt.h **** 
  69:/opt/local/avr/include/avr/wdt.h ****     \code
  70:/opt/local/avr/include/avr/wdt.h ****     #include <stdint.h>
  71:/opt/local/avr/include/avr/wdt.h ****     #include <avr/wdt.h>
  72:/opt/local/avr/include/avr/wdt.h **** 
  73:/opt/local/avr/include/avr/wdt.h ****     uint8_t mcusr_mirror __attribute__ ((section (".noinit")));
  74:/opt/local/avr/include/avr/wdt.h **** 
  75:/opt/local/avr/include/avr/wdt.h ****     void get_mcusr(void) \
  76:/opt/local/avr/include/avr/wdt.h ****       __attribute__((naked)) \
  77:/opt/local/avr/include/avr/wdt.h ****       __attribute__((section(".init3")));
  78:/opt/local/avr/include/avr/wdt.h ****     void get_mcusr(void)
  79:/opt/local/avr/include/avr/wdt.h ****     {
  80:/opt/local/avr/include/avr/wdt.h ****       mcusr_mirror = MCUSR;
  81:/opt/local/avr/include/avr/wdt.h ****       MCUSR = 0;
  82:/opt/local/avr/include/avr/wdt.h ****       wdt_disable();
  83:/opt/local/avr/include/avr/wdt.h ****     }
  84:/opt/local/avr/include/avr/wdt.h ****     \endcode
  85:/opt/local/avr/include/avr/wdt.h **** 
  86:/opt/local/avr/include/avr/wdt.h ****     Saving the value of MCUSR in \c mcusr_mirror is only needed if the
  87:/opt/local/avr/include/avr/wdt.h ****     application later wants to examine the reset source, but in particular, 
  88:/opt/local/avr/include/avr/wdt.h ****     clearing the watchdog reset flag before disabling the
  89:/opt/local/avr/include/avr/wdt.h ****     watchdog is required, according to the datasheet.
  90:/opt/local/avr/include/avr/wdt.h **** */
  91:/opt/local/avr/include/avr/wdt.h **** 
  92:/opt/local/avr/include/avr/wdt.h **** /**
  93:/opt/local/avr/include/avr/wdt.h ****    \ingroup avr_watchdog
  94:/opt/local/avr/include/avr/wdt.h ****    Reset the watchdog timer.  When the watchdog timer is enabled,
  95:/opt/local/avr/include/avr/wdt.h ****    a call to this instruction is required before the timer expires,
  96:/opt/local/avr/include/avr/wdt.h ****    otherwise a watchdog-initiated device reset will occur. 
  97:/opt/local/avr/include/avr/wdt.h **** */
  98:/opt/local/avr/include/avr/wdt.h **** 
  99:/opt/local/avr/include/avr/wdt.h **** #define wdt_reset() __asm__ __volatile__ ("wdr")
 100:/opt/local/avr/include/avr/wdt.h **** 
 101:/opt/local/avr/include/avr/wdt.h **** #ifndef __DOXYGEN__
 102:/opt/local/avr/include/avr/wdt.h **** 
 103:/opt/local/avr/include/avr/wdt.h **** #if defined(WDP3)
 104:/opt/local/avr/include/avr/wdt.h **** # define _WD_PS3_MASK       _BV(WDP3)
 105:/opt/local/avr/include/avr/wdt.h **** #else
 106:/opt/local/avr/include/avr/wdt.h **** # define _WD_PS3_MASK       0x00
 107:/opt/local/avr/include/avr/wdt.h **** #endif
 108:/opt/local/avr/include/avr/wdt.h **** 
 109:/opt/local/avr/include/avr/wdt.h **** #if defined(WDTCSR)
 110:/opt/local/avr/include/avr/wdt.h **** #  define _WD_CONTROL_REG     WDTCSR
 111:/opt/local/avr/include/avr/wdt.h **** #elif defined(WDTCR)
 112:/opt/local/avr/include/avr/wdt.h **** #  define _WD_CONTROL_REG     WDTCR
 113:/opt/local/avr/include/avr/wdt.h **** #else
 114:/opt/local/avr/include/avr/wdt.h **** #  define _WD_CONTROL_REG     WDT
 115:/opt/local/avr/include/avr/wdt.h **** #endif
 116:/opt/local/avr/include/avr/wdt.h **** 
 117:/opt/local/avr/include/avr/wdt.h **** #if defined(WDTOE)
 118:/opt/local/avr/include/avr/wdt.h **** #define _WD_CHANGE_BIT      WDTOE
 119:/opt/local/avr/include/avr/wdt.h **** #else
 120:/opt/local/avr/include/avr/wdt.h **** #define _WD_CHANGE_BIT      WDCE
 121:/opt/local/avr/include/avr/wdt.h **** #endif
 122:/opt/local/avr/include/avr/wdt.h **** 
 123:/opt/local/avr/include/avr/wdt.h **** #endif	/* !__DOXYGEN__ */
 124:/opt/local/avr/include/avr/wdt.h **** 
 125:/opt/local/avr/include/avr/wdt.h **** 
 126:/opt/local/avr/include/avr/wdt.h **** /**
 127:/opt/local/avr/include/avr/wdt.h ****    \ingroup avr_watchdog
 128:/opt/local/avr/include/avr/wdt.h ****    Enable the watchdog timer, configuring it for expiry after
 129:/opt/local/avr/include/avr/wdt.h ****    \c timeout (which is a combination of the \c WDP0 through
 130:/opt/local/avr/include/avr/wdt.h ****    \c WDP2 bits to write into the \c WDTCR register; For those devices 
 131:/opt/local/avr/include/avr/wdt.h ****    that have a \c WDTCSR register, it uses the combination of the \c WDP0 
 132:/opt/local/avr/include/avr/wdt.h ****    through \c WDP3 bits).
 133:/opt/local/avr/include/avr/wdt.h **** 
 134:/opt/local/avr/include/avr/wdt.h ****    See also the symbolic constants \c WDTO_15MS et al.
 135:/opt/local/avr/include/avr/wdt.h **** */
 136:/opt/local/avr/include/avr/wdt.h **** 
 137:/opt/local/avr/include/avr/wdt.h **** 
 138:/opt/local/avr/include/avr/wdt.h **** #if defined(__AVR_XMEGA__)
 139:/opt/local/avr/include/avr/wdt.h **** 
 140:/opt/local/avr/include/avr/wdt.h **** /*
 141:/opt/local/avr/include/avr/wdt.h ****    wdt_enable(timeout) for xmega devices
 142:/opt/local/avr/include/avr/wdt.h **** ** write signature (CCP_IOREG_gc) that enables change of protected I/O
 143:/opt/local/avr/include/avr/wdt.h ****    registers to the CCP register
 144:/opt/local/avr/include/avr/wdt.h **** ** At the same time,
 145:/opt/local/avr/include/avr/wdt.h ****    1) set WDT change enable (WDT_CEN_bm)
 146:/opt/local/avr/include/avr/wdt.h ****    2) enable WDT (WDT_ENABLE_bm)
 147:/opt/local/avr/include/avr/wdt.h ****    3) set timeout (timeout)
 148:/opt/local/avr/include/avr/wdt.h **** ** Synchronization starts when ENABLE bit of WDT is set. So, wait till it
 149:/opt/local/avr/include/avr/wdt.h ****    finishes (SYNCBUSY of STATUS register is automatically cleared after the
 150:/opt/local/avr/include/avr/wdt.h ****    sync is finished).
 151:/opt/local/avr/include/avr/wdt.h **** */
 152:/opt/local/avr/include/avr/wdt.h **** #define wdt_enable(timeout) \
 153:/opt/local/avr/include/avr/wdt.h **** do { \
 154:/opt/local/avr/include/avr/wdt.h **** uint8_t temp; \
 155:/opt/local/avr/include/avr/wdt.h **** __asm__ __volatile__ (         \
 156:/opt/local/avr/include/avr/wdt.h ****     "in __tmp_reg__, %[rampd]"              "\n\t" \
 157:/opt/local/avr/include/avr/wdt.h ****     "out %[rampd], __zero_reg__"            "\n\t" \
 158:/opt/local/avr/include/avr/wdt.h ****     "out %[ccp_reg], %[ioreg_cen_mask]"     "\n\t" \
 159:/opt/local/avr/include/avr/wdt.h ****     "sts %[wdt_reg], %[wdt_enable_timeout]" "\n\t" \
 160:/opt/local/avr/include/avr/wdt.h ****     "1:lds %[tmp], %[wdt_status_reg]"       "\n\t" \
 161:/opt/local/avr/include/avr/wdt.h ****     "sbrc %[tmp], %[wdt_syncbusy_bit]"      "\n\t" \
 162:/opt/local/avr/include/avr/wdt.h ****     "rjmp 1b"                               "\n\t" \
 163:/opt/local/avr/include/avr/wdt.h ****     "out %[rampd], __tmp_reg__"             "\n\t" \
 164:/opt/local/avr/include/avr/wdt.h ****     : [tmp]                "=r" (temp) \
 165:/opt/local/avr/include/avr/wdt.h ****     : [rampd]              "I" (_SFR_IO_ADDR(RAMPD)),      \
 166:/opt/local/avr/include/avr/wdt.h ****       [ccp_reg]            "I" (_SFR_IO_ADDR(CCP)),        \
 167:/opt/local/avr/include/avr/wdt.h ****       [ioreg_cen_mask]     "r" ((uint8_t)CCP_IOREG_gc),     \
 168:/opt/local/avr/include/avr/wdt.h ****       [wdt_reg]            "n" (_SFR_MEM_ADDR(WDT_CTRL)),   \
 169:/opt/local/avr/include/avr/wdt.h ****       [wdt_enable_timeout] "r" ((uint8_t)(WDT_CEN_bm | WDT_ENABLE_bm | timeout)), \
 170:/opt/local/avr/include/avr/wdt.h ****       [wdt_status_reg]     "n" (_SFR_MEM_ADDR(WDT_STATUS)), \
 171:/opt/local/avr/include/avr/wdt.h ****       [wdt_syncbusy_bit]   "I" (WDT_SYNCBUSY_bm)            \
 172:/opt/local/avr/include/avr/wdt.h ****     : "r0" \
 173:/opt/local/avr/include/avr/wdt.h **** ); \
 174:/opt/local/avr/include/avr/wdt.h **** } while(0)
 175:/opt/local/avr/include/avr/wdt.h **** 
 176:/opt/local/avr/include/avr/wdt.h **** #define wdt_disable() \
 177:/opt/local/avr/include/avr/wdt.h **** __asm__ __volatile__ (  \
 178:/opt/local/avr/include/avr/wdt.h ****     "in __tmp_reg__, %[rampd]"          "\n\t" \
 179:/opt/local/avr/include/avr/wdt.h ****     "out %[rampd], __zero_reg__"        "\n\t" \
 180:/opt/local/avr/include/avr/wdt.h ****     "out %[ccp_reg], %[ioreg_cen_mask]" "\n\t" \
 181:/opt/local/avr/include/avr/wdt.h ****     "sts %[wdt_reg], %[disable_mask]"   "\n\t" \
 182:/opt/local/avr/include/avr/wdt.h ****     "out %[rampd], __tmp_reg__"         "\n\t" \
 183:/opt/local/avr/include/avr/wdt.h ****     : \
 184:/opt/local/avr/include/avr/wdt.h ****     : [rampd]             "I" (_SFR_IO_ADDR(RAMPD)),    \
 185:/opt/local/avr/include/avr/wdt.h ****       [ccp_reg]           "I" (_SFR_IO_ADDR(CCP)),      \
 186:/opt/local/avr/include/avr/wdt.h ****       [ioreg_cen_mask]    "r" ((uint8_t)CCP_IOREG_gc),   \
 187:/opt/local/avr/include/avr/wdt.h ****       [wdt_reg]           "n" (_SFR_MEM_ADDR(WDT_CTRL)), \
 188:/opt/local/avr/include/avr/wdt.h ****       [disable_mask]      "r" ((uint8_t)((~WDT_ENABLE_bm) | WDT_CEN_bm)) \
 189:/opt/local/avr/include/avr/wdt.h ****     : "r0" \
 190:/opt/local/avr/include/avr/wdt.h **** );
 191:/opt/local/avr/include/avr/wdt.h **** 
 192:/opt/local/avr/include/avr/wdt.h **** #elif defined(__AVR_TINY__)
 193:/opt/local/avr/include/avr/wdt.h **** 
 194:/opt/local/avr/include/avr/wdt.h **** #define wdt_enable(value) \
 195:/opt/local/avr/include/avr/wdt.h **** __asm__ __volatile__ ( \
 196:/opt/local/avr/include/avr/wdt.h ****     "in __tmp_reg__,__SREG__" "\n\t"  \
 197:/opt/local/avr/include/avr/wdt.h ****     "cli" "\n\t"  \
 198:/opt/local/avr/include/avr/wdt.h ****     "wdr" "\n\t"  \
 199:/opt/local/avr/include/avr/wdt.h ****     "out %[CCPADDRESS],%[SIGNATURE]" "\n\t"  \
 200:/opt/local/avr/include/avr/wdt.h ****     "out %[WDTREG],%[WDVALUE]" "\n\t"  \
 201:/opt/local/avr/include/avr/wdt.h ****     "out __SREG__,__tmp_reg__" "\n\t"  \
 202:/opt/local/avr/include/avr/wdt.h ****     : /* no outputs */  \
 203:/opt/local/avr/include/avr/wdt.h ****     : [CCPADDRESS] "I" (_SFR_IO_ADDR(CCP)),  \
 204:/opt/local/avr/include/avr/wdt.h ****       [SIGNATURE] "r" ((uint8_t)0xD8), \
 205:/opt/local/avr/include/avr/wdt.h ****       [WDTREG] "I" (_SFR_IO_ADDR(_WD_CONTROL_REG)), \
 206:/opt/local/avr/include/avr/wdt.h ****       [WDVALUE] "r" ((uint8_t)((value & 0x08 ? _WD_PS3_MASK : 0x00) \
 207:/opt/local/avr/include/avr/wdt.h ****       | _BV(WDE) | (value & 0x07) )) \
 208:/opt/local/avr/include/avr/wdt.h ****     : "r16" \
 209:/opt/local/avr/include/avr/wdt.h **** )
 210:/opt/local/avr/include/avr/wdt.h **** 
 211:/opt/local/avr/include/avr/wdt.h **** #define wdt_disable() \
 212:/opt/local/avr/include/avr/wdt.h **** do { \
 213:/opt/local/avr/include/avr/wdt.h **** uint8_t temp_wd; \
 214:/opt/local/avr/include/avr/wdt.h **** __asm__ __volatile__ ( \
 215:/opt/local/avr/include/avr/wdt.h ****     "in __tmp_reg__,__SREG__" "\n\t"  \
 216:/opt/local/avr/include/avr/wdt.h ****     "cli" "\n\t"  \
 217:/opt/local/avr/include/avr/wdt.h ****     "wdr" "\n\t"  \
 218:/opt/local/avr/include/avr/wdt.h ****     "out %[CCPADDRESS],%[SIGNATURE]" "\n\t"  \
 219:/opt/local/avr/include/avr/wdt.h ****     "in  %[TEMP_WD],%[WDTREG]" "\n\t" \
 220:/opt/local/avr/include/avr/wdt.h ****     "cbr %[TEMP_WD],%[WDVALUE]" "\n\t" \
 221:/opt/local/avr/include/avr/wdt.h ****     "out %[WDTREG],%[TEMP_WD]" "\n\t" \
 222:/opt/local/avr/include/avr/wdt.h ****     "out __SREG__,__tmp_reg__" "\n\t" \
 223:/opt/local/avr/include/avr/wdt.h ****     : /*no output */ \
 224:/opt/local/avr/include/avr/wdt.h ****     : [CCPADDRESS] "I" (_SFR_IO_ADDR(CCP)), \
 225:/opt/local/avr/include/avr/wdt.h ****       [SIGNATURE] "r" ((uint8_t)0xD8), \
 226:/opt/local/avr/include/avr/wdt.h ****       [WDTREG] "I" (_SFR_IO_ADDR(_WD_CONTROL_REG)), \
 227:/opt/local/avr/include/avr/wdt.h ****       [TEMP_WD] "d" (temp_wd), \
 228:/opt/local/avr/include/avr/wdt.h ****       [WDVALUE] "n" (1 << WDE) \
 229:/opt/local/avr/include/avr/wdt.h ****     : "r16" \
 230:/opt/local/avr/include/avr/wdt.h **** ); \
 231:/opt/local/avr/include/avr/wdt.h **** }while(0)
 232:/opt/local/avr/include/avr/wdt.h **** 
 233:/opt/local/avr/include/avr/wdt.h **** #elif defined(CCP)
 234:/opt/local/avr/include/avr/wdt.h **** 
 235:/opt/local/avr/include/avr/wdt.h **** static __inline__
 236:/opt/local/avr/include/avr/wdt.h **** __attribute__ ((__always_inline__))
 237:/opt/local/avr/include/avr/wdt.h **** void wdt_enable (const uint8_t value)
 238:/opt/local/avr/include/avr/wdt.h **** {
 239:/opt/local/avr/include/avr/wdt.h **** 	if (!_SFR_IO_REG_P (CCP) && !_SFR_IO_REG_P (_WD_CONTROL_REG))
 240:/opt/local/avr/include/avr/wdt.h **** 	{
 241:/opt/local/avr/include/avr/wdt.h **** 		__asm__ __volatile__ (
 242:/opt/local/avr/include/avr/wdt.h **** 			"in __tmp_reg__,__SREG__" "\n\t"
 243:/opt/local/avr/include/avr/wdt.h **** 			"cli" "\n\t"
 244:/opt/local/avr/include/avr/wdt.h **** 			"wdr" "\n\t"
 245:/opt/local/avr/include/avr/wdt.h **** 			"sts %[CCPADDRESS],%[SIGNATURE]" "\n\t"
 246:/opt/local/avr/include/avr/wdt.h **** 			"sts %[WDTREG],%[WDVALUE]" "\n\t"
 247:/opt/local/avr/include/avr/wdt.h **** 			"out __SREG__,__tmp_reg__" "\n\t"
 248:/opt/local/avr/include/avr/wdt.h **** 			: /* no outputs */
 249:/opt/local/avr/include/avr/wdt.h **** 			: [CCPADDRESS] "n" (_SFR_MEM_ADDR(CCP)),
 250:/opt/local/avr/include/avr/wdt.h **** 			[SIGNATURE] "r" ((uint8_t)0xD8),
 251:/opt/local/avr/include/avr/wdt.h **** 			[WDTREG] "n" (_SFR_MEM_ADDR(_WD_CONTROL_REG)),
 252:/opt/local/avr/include/avr/wdt.h **** 			[WDVALUE] "r" ((uint8_t)((value & 0x08 ? _WD_PS3_MASK : 0x00)
 253:/opt/local/avr/include/avr/wdt.h **** 				| _BV(WDE) | (value & 0x07) ))
 254:/opt/local/avr/include/avr/wdt.h **** 			: "r0"
 255:/opt/local/avr/include/avr/wdt.h **** 			);
 256:/opt/local/avr/include/avr/wdt.h **** 	}
 257:/opt/local/avr/include/avr/wdt.h **** 	else if (!_SFR_IO_REG_P (CCP) && _SFR_IO_REG_P (_WD_CONTROL_REG))
 258:/opt/local/avr/include/avr/wdt.h **** 	{
 259:/opt/local/avr/include/avr/wdt.h **** 		__asm__ __volatile__ (
 260:/opt/local/avr/include/avr/wdt.h **** 			"in __tmp_reg__,__SREG__" "\n\t"
 261:/opt/local/avr/include/avr/wdt.h **** 			"cli" "\n\t"
 262:/opt/local/avr/include/avr/wdt.h **** 			"wdr" "\n\t"
 263:/opt/local/avr/include/avr/wdt.h **** 			"sts %[CCPADDRESS],%[SIGNATURE]" "\n\t"
 264:/opt/local/avr/include/avr/wdt.h **** 			"out %[WDTREG],%[WDVALUE]" "\n\t"
 265:/opt/local/avr/include/avr/wdt.h **** 			"out __SREG__,__tmp_reg__" "\n\t"
 266:/opt/local/avr/include/avr/wdt.h **** 			: /* no outputs */
 267:/opt/local/avr/include/avr/wdt.h **** 			: [CCPADDRESS] "n" (_SFR_MEM_ADDR(CCP)),
 268:/opt/local/avr/include/avr/wdt.h **** 			[SIGNATURE] "r" ((uint8_t)0xD8),
 269:/opt/local/avr/include/avr/wdt.h **** 			[WDTREG] "I" (_SFR_IO_ADDR(_WD_CONTROL_REG)),
 270:/opt/local/avr/include/avr/wdt.h **** 			[WDVALUE] "r" ((uint8_t)((value & 0x08 ? _WD_PS3_MASK : 0x00)
 271:/opt/local/avr/include/avr/wdt.h **** 				| _BV(WDE) | (value & 0x07) ))
 272:/opt/local/avr/include/avr/wdt.h **** 			: "r0"
 273:/opt/local/avr/include/avr/wdt.h **** 			);
 274:/opt/local/avr/include/avr/wdt.h **** 	}
 275:/opt/local/avr/include/avr/wdt.h **** 	else if (_SFR_IO_REG_P (CCP) && !_SFR_IO_REG_P (_WD_CONTROL_REG))
 276:/opt/local/avr/include/avr/wdt.h **** 	{
 277:/opt/local/avr/include/avr/wdt.h **** 		__asm__ __volatile__ (
 278:/opt/local/avr/include/avr/wdt.h **** 			"in __tmp_reg__,__SREG__" "\n\t"
 279:/opt/local/avr/include/avr/wdt.h **** 			"cli" "\n\t"
 280:/opt/local/avr/include/avr/wdt.h **** 			"wdr" "\n\t"
 281:/opt/local/avr/include/avr/wdt.h **** 			"out %[CCPADDRESS],%[SIGNATURE]" "\n\t"
 282:/opt/local/avr/include/avr/wdt.h **** 			"sts %[WDTREG],%[WDVALUE]" "\n\t"
 283:/opt/local/avr/include/avr/wdt.h **** 			"out __SREG__,__tmp_reg__" "\n\t"
 284:/opt/local/avr/include/avr/wdt.h **** 			: /* no outputs */
 285:/opt/local/avr/include/avr/wdt.h **** 			: [CCPADDRESS] "I" (_SFR_IO_ADDR(CCP)),
 286:/opt/local/avr/include/avr/wdt.h **** 			[SIGNATURE] "r" ((uint8_t)0xD8),
 287:/opt/local/avr/include/avr/wdt.h **** 			[WDTREG] "n" (_SFR_MEM_ADDR(_WD_CONTROL_REG)),
 288:/opt/local/avr/include/avr/wdt.h **** 			[WDVALUE] "r" ((uint8_t)((value & 0x08 ? _WD_PS3_MASK : 0x00)
 289:/opt/local/avr/include/avr/wdt.h **** 				| _BV(WDE) | (value & 0x07) ))
 290:/opt/local/avr/include/avr/wdt.h **** 			: "r0"
 291:/opt/local/avr/include/avr/wdt.h **** 			);
 292:/opt/local/avr/include/avr/wdt.h **** 	}
 293:/opt/local/avr/include/avr/wdt.h **** 	else
 294:/opt/local/avr/include/avr/wdt.h ****  	{
 295:/opt/local/avr/include/avr/wdt.h **** 		__asm__ __volatile__ (
 296:/opt/local/avr/include/avr/wdt.h **** 			"in __tmp_reg__,__SREG__" "\n\t"
 297:/opt/local/avr/include/avr/wdt.h **** 			"cli" "\n\t"
 298:/opt/local/avr/include/avr/wdt.h **** 			"wdr" "\n\t"
 299:/opt/local/avr/include/avr/wdt.h **** 			"out %[CCPADDRESS],%[SIGNATURE]" "\n\t"
 300:/opt/local/avr/include/avr/wdt.h **** 			"out %[WDTREG],%[WDVALUE]" "\n\t"
 301:/opt/local/avr/include/avr/wdt.h **** 			"out __SREG__,__tmp_reg__" "\n\t"
 302:/opt/local/avr/include/avr/wdt.h **** 			: /* no outputs */
 303:/opt/local/avr/include/avr/wdt.h **** 			: [CCPADDRESS] "I" (_SFR_IO_ADDR(CCP)),
 304:/opt/local/avr/include/avr/wdt.h **** 			[SIGNATURE] "r" ((uint8_t)0xD8),
 305:/opt/local/avr/include/avr/wdt.h **** 			[WDTREG] "I" (_SFR_IO_ADDR(_WD_CONTROL_REG)),
 306:/opt/local/avr/include/avr/wdt.h **** 			[WDVALUE] "r" ((uint8_t)((value & 0x08 ? _WD_PS3_MASK : 0x00)
 307:/opt/local/avr/include/avr/wdt.h **** 				| _BV(WDE) | (value & 0x07) ))
 308:/opt/local/avr/include/avr/wdt.h **** 			: "r0"
 309:/opt/local/avr/include/avr/wdt.h **** 			);
 310:/opt/local/avr/include/avr/wdt.h **** 	}
 311:/opt/local/avr/include/avr/wdt.h **** }
 312:/opt/local/avr/include/avr/wdt.h **** 
 313:/opt/local/avr/include/avr/wdt.h **** static __inline__
 314:/opt/local/avr/include/avr/wdt.h **** __attribute__ ((__always_inline__))
 315:/opt/local/avr/include/avr/wdt.h **** void wdt_disable (void)
 316:/opt/local/avr/include/avr/wdt.h **** {
 317:/opt/local/avr/include/avr/wdt.h **** 	if (!_SFR_IO_REG_P (CCP) && !_SFR_IO_REG_P(_WD_CONTROL_REG))
 318:/opt/local/avr/include/avr/wdt.h **** 	{
 319:/opt/local/avr/include/avr/wdt.h ****         uint8_t temp_wd;
 320:/opt/local/avr/include/avr/wdt.h ****         __asm__ __volatile__ (
 321:/opt/local/avr/include/avr/wdt.h **** 				"in __tmp_reg__,__SREG__" "\n\t"
 322:/opt/local/avr/include/avr/wdt.h **** 				"cli" "\n\t"
 323:/opt/local/avr/include/avr/wdt.h **** 				"wdr" "\n\t"
 324:/opt/local/avr/include/avr/wdt.h **** 				"sts %[CCPADDRESS],%[SIGNATURE]" "\n\t"
 325:/opt/local/avr/include/avr/wdt.h **** 				"lds %[TEMP_WD],%[WDTREG]" "\n\t"
 326:/opt/local/avr/include/avr/wdt.h **** 				"cbr %[TEMP_WD],%[WDVALUE]" "\n\t"
 327:/opt/local/avr/include/avr/wdt.h **** 				"sts %[WDTREG],%[TEMP_WD]" "\n\t"
 328:/opt/local/avr/include/avr/wdt.h **** 				"out __SREG__,__tmp_reg__" "\n\t"
 329:/opt/local/avr/include/avr/wdt.h **** 				: /*no output */
 330:/opt/local/avr/include/avr/wdt.h **** 				: [CCPADDRESS] "n" (_SFR_MEM_ADDR(CCP)),
 331:/opt/local/avr/include/avr/wdt.h **** 				[SIGNATURE] "r" ((uint8_t)0xD8),
 332:/opt/local/avr/include/avr/wdt.h **** 				[WDTREG] "n" (_SFR_MEM_ADDR(_WD_CONTROL_REG)),
 333:/opt/local/avr/include/avr/wdt.h **** 				[TEMP_WD] "d" (temp_wd),
 334:/opt/local/avr/include/avr/wdt.h **** 				[WDVALUE] "n" (1 << WDE)
 335:/opt/local/avr/include/avr/wdt.h **** 				: "r0"
 336:/opt/local/avr/include/avr/wdt.h **** 				);
 337:/opt/local/avr/include/avr/wdt.h **** 	}
 338:/opt/local/avr/include/avr/wdt.h **** 	else if (!_SFR_IO_REG_P (CCP) && _SFR_IO_REG_P(_WD_CONTROL_REG))
 339:/opt/local/avr/include/avr/wdt.h **** 	{
 340:/opt/local/avr/include/avr/wdt.h ****         uint8_t temp_wd;
 341:/opt/local/avr/include/avr/wdt.h ****         __asm__ __volatile__ (
 342:/opt/local/avr/include/avr/wdt.h **** 				"in __tmp_reg__,__SREG__" "\n\t"
 343:/opt/local/avr/include/avr/wdt.h **** 				"cli" "\n\t"
 344:/opt/local/avr/include/avr/wdt.h **** 				"wdr" "\n\t"
 345:/opt/local/avr/include/avr/wdt.h **** 				"sts %[CCPADDRESS],%[SIGNATURE]" "\n\t"
 346:/opt/local/avr/include/avr/wdt.h **** 				"in %[TEMP_WD],%[WDTREG]" "\n\t"
 347:/opt/local/avr/include/avr/wdt.h **** 				"cbr %[TEMP_WD],%[WDVALUE]" "\n\t"
 348:/opt/local/avr/include/avr/wdt.h **** 				"out %[WDTREG],%[TEMP_WD]" "\n\t"
 349:/opt/local/avr/include/avr/wdt.h **** 				"out __SREG__,__tmp_reg__" "\n\t"
 350:/opt/local/avr/include/avr/wdt.h **** 				: /*no output */
 351:/opt/local/avr/include/avr/wdt.h **** 				: [CCPADDRESS] "n" (_SFR_MEM_ADDR(CCP)),
 352:/opt/local/avr/include/avr/wdt.h **** 				[SIGNATURE] "r" ((uint8_t)0xD8),
 353:/opt/local/avr/include/avr/wdt.h **** 				[WDTREG] "I" (_SFR_IO_ADDR(_WD_CONTROL_REG)),
 354:/opt/local/avr/include/avr/wdt.h **** 				[TEMP_WD] "d" (temp_wd),
 355:/opt/local/avr/include/avr/wdt.h **** 				[WDVALUE] "n" (1 << WDE)
 356:/opt/local/avr/include/avr/wdt.h **** 				: "r0"
 357:/opt/local/avr/include/avr/wdt.h **** 				);
 358:/opt/local/avr/include/avr/wdt.h **** 	}
 359:/opt/local/avr/include/avr/wdt.h **** 	else if (_SFR_IO_REG_P (CCP) && !_SFR_IO_REG_P(_WD_CONTROL_REG))
 360:/opt/local/avr/include/avr/wdt.h **** 	{
 361:/opt/local/avr/include/avr/wdt.h ****         uint8_t temp_wd;
 362:/opt/local/avr/include/avr/wdt.h ****         __asm__ __volatile__ (
 363:/opt/local/avr/include/avr/wdt.h **** 				"in __tmp_reg__,__SREG__" "\n\t"
 364:/opt/local/avr/include/avr/wdt.h **** 				"cli" "\n\t"
 365:/opt/local/avr/include/avr/wdt.h **** 				"wdr" "\n\t"
 366:/opt/local/avr/include/avr/wdt.h **** 				"out %[CCPADDRESS],%[SIGNATURE]" "\n\t"
 367:/opt/local/avr/include/avr/wdt.h **** 				"lds %[TEMP_WD],%[WDTREG]" "\n\t"
 368:/opt/local/avr/include/avr/wdt.h **** 				"cbr %[TEMP_WD],%[WDVALUE]" "\n\t"
 369:/opt/local/avr/include/avr/wdt.h **** 				"sts %[WDTREG],%[TEMP_WD]" "\n\t"
 370:/opt/local/avr/include/avr/wdt.h **** 				"out __SREG__,__tmp_reg__" "\n\t"
 371:/opt/local/avr/include/avr/wdt.h **** 				: /*no output */
 372:/opt/local/avr/include/avr/wdt.h **** 				: [CCPADDRESS] "I" (_SFR_IO_ADDR(CCP)),
 373:/opt/local/avr/include/avr/wdt.h **** 				[SIGNATURE] "r" ((uint8_t)0xD8),
 374:/opt/local/avr/include/avr/wdt.h **** 				[WDTREG] "n" (_SFR_MEM_ADDR(_WD_CONTROL_REG)),
 375:/opt/local/avr/include/avr/wdt.h **** 				[TEMP_WD] "d" (temp_wd),
 376:/opt/local/avr/include/avr/wdt.h **** 				[WDVALUE] "n" (1 << WDE)
 377:/opt/local/avr/include/avr/wdt.h **** 				: "r0"
 378:/opt/local/avr/include/avr/wdt.h **** 				);
 379:/opt/local/avr/include/avr/wdt.h **** 	}
 380:/opt/local/avr/include/avr/wdt.h **** 	else
 381:/opt/local/avr/include/avr/wdt.h **** 	{
 382:/opt/local/avr/include/avr/wdt.h ****         uint8_t temp_wd;
 383:/opt/local/avr/include/avr/wdt.h ****         __asm__ __volatile__ (
 384:/opt/local/avr/include/avr/wdt.h **** 				"in __tmp_reg__,__SREG__" "\n\t"
 385:/opt/local/avr/include/avr/wdt.h **** 				"cli" "\n\t"
 386:/opt/local/avr/include/avr/wdt.h **** 				"wdr" "\n\t"
 387:/opt/local/avr/include/avr/wdt.h **** 				"out %[CCPADDRESS],%[SIGNATURE]" "\n\t"
 388:/opt/local/avr/include/avr/wdt.h **** 				"in %[TEMP_WD],%[WDTREG]" "\n\t"
 389:/opt/local/avr/include/avr/wdt.h **** 				"cbr %[TEMP_WD],%[WDVALUE]" "\n\t"
 390:/opt/local/avr/include/avr/wdt.h **** 				"out %[WDTREG],%[TEMP_WD]" "\n\t"
 391:/opt/local/avr/include/avr/wdt.h **** 				"out __SREG__,__tmp_reg__" "\n\t"
 392:/opt/local/avr/include/avr/wdt.h **** 				: /*no output */
 393:/opt/local/avr/include/avr/wdt.h **** 				: [CCPADDRESS] "I" (_SFR_IO_ADDR(CCP)),
 394:/opt/local/avr/include/avr/wdt.h **** 				[SIGNATURE] "r" ((uint8_t)0xD8),
 395:/opt/local/avr/include/avr/wdt.h **** 				[WDTREG] "I" (_SFR_IO_ADDR(_WD_CONTROL_REG)),
 396:/opt/local/avr/include/avr/wdt.h **** 				[TEMP_WD] "d" (temp_wd),
 397:/opt/local/avr/include/avr/wdt.h **** 				[WDVALUE] "n" (1 << WDE)
 398:/opt/local/avr/include/avr/wdt.h **** 				: "r0"
 399:/opt/local/avr/include/avr/wdt.h **** 				);
 400:/opt/local/avr/include/avr/wdt.h **** 	}
 401:/opt/local/avr/include/avr/wdt.h **** }
 402:/opt/local/avr/include/avr/wdt.h **** 
 403:/opt/local/avr/include/avr/wdt.h **** #else
 404:/opt/local/avr/include/avr/wdt.h **** 
 405:/opt/local/avr/include/avr/wdt.h **** static __inline__
 406:/opt/local/avr/include/avr/wdt.h **** __attribute__ ((__always_inline__))
 407:/opt/local/avr/include/avr/wdt.h **** void wdt_enable (const uint8_t value)
 408:/opt/local/avr/include/avr/wdt.h **** {
 409:/opt/local/avr/include/avr/wdt.h **** 	if (_SFR_IO_REG_P (_WD_CONTROL_REG))
 410:/opt/local/avr/include/avr/wdt.h **** 	{
 411:/opt/local/avr/include/avr/wdt.h **** 		__asm__ __volatile__ (
 412:/opt/local/avr/include/avr/wdt.h **** 				"in __tmp_reg__,__SREG__" "\n\t"
 413:/opt/local/avr/include/avr/wdt.h **** 				"cli" "\n\t"
 414:/opt/local/avr/include/avr/wdt.h **** 				"wdr" "\n\t"
 415:/opt/local/avr/include/avr/wdt.h **** 				"out %0, %1" "\n\t"
 416:/opt/local/avr/include/avr/wdt.h **** 				"out __SREG__,__tmp_reg__" "\n\t"
 417:/opt/local/avr/include/avr/wdt.h **** 				"out %0, %2" "\n \t"
 418:/opt/local/avr/include/avr/wdt.h **** 				: /* no outputs */
 419:/opt/local/avr/include/avr/wdt.h **** 				: "I" (_SFR_IO_ADDR(_WD_CONTROL_REG)),
 420:/opt/local/avr/include/avr/wdt.h **** 				"r" ((uint8_t)(_BV(_WD_CHANGE_BIT) | _BV(WDE))),
 421:/opt/local/avr/include/avr/wdt.h **** 				"r" ((uint8_t) ((value & 0x08 ? _WD_PS3_MASK : 0x00) |
 422:/opt/local/avr/include/avr/wdt.h **** 						_BV(WDE) | (value & 0x07)) )
 423:/opt/local/avr/include/avr/wdt.h **** 				: "r0"
 424:/opt/local/avr/include/avr/wdt.h **** 		);
 425:/opt/local/avr/include/avr/wdt.h **** 	}
 426:/opt/local/avr/include/avr/wdt.h **** 	else
 427:/opt/local/avr/include/avr/wdt.h **** 	{
 428:/opt/local/avr/include/avr/wdt.h **** 		__asm__ __volatile__ (
 429:/opt/local/avr/include/avr/wdt.h **** 				"in __tmp_reg__,__SREG__" "\n\t"
 430:/opt/local/avr/include/avr/wdt.h **** 				"cli" "\n\t"
 431:/opt/local/avr/include/avr/wdt.h **** 				"wdr" "\n\t"
 432:/opt/local/avr/include/avr/wdt.h **** 				"sts %0, %1" "\n\t"
 433:/opt/local/avr/include/avr/wdt.h **** 				"out __SREG__,__tmp_reg__" "\n\t"
 434:/opt/local/avr/include/avr/wdt.h **** 				"sts %0, %2" "\n \t"
 435:/opt/local/avr/include/avr/wdt.h **** 				: /* no outputs */
 436:/opt/local/avr/include/avr/wdt.h **** 				: "n" (_SFR_MEM_ADDR(_WD_CONTROL_REG)),
 437:/opt/local/avr/include/avr/wdt.h **** 				"r" ((uint8_t)(_BV(_WD_CHANGE_BIT) | _BV(WDE))),
 438:/opt/local/avr/include/avr/wdt.h **** 				"r" ((uint8_t) ((value & 0x08 ? _WD_PS3_MASK : 0x00) |
 439:/opt/local/avr/include/avr/wdt.h **** 						_BV(WDE) | (value & 0x07)) )
 440:/opt/local/avr/include/avr/wdt.h **** 				: "r0"
 441:/opt/local/avr/include/avr/wdt.h **** 		);
 442:/opt/local/avr/include/avr/wdt.h **** 	}
 443:/opt/local/avr/include/avr/wdt.h **** }
 444:/opt/local/avr/include/avr/wdt.h **** 
 445:/opt/local/avr/include/avr/wdt.h **** static __inline__
 446:/opt/local/avr/include/avr/wdt.h **** __attribute__ ((__always_inline__))
 447:/opt/local/avr/include/avr/wdt.h **** void wdt_disable (void)
 448:/opt/local/avr/include/avr/wdt.h **** {
 449:/opt/local/avr/include/avr/wdt.h **** 	if (_SFR_IO_REG_P (_WD_CONTROL_REG))
 450:/opt/local/avr/include/avr/wdt.h **** 	{
 451:/opt/local/avr/include/avr/wdt.h ****         uint8_t register temp_reg;
 452:/opt/local/avr/include/avr/wdt.h **** 		__asm__ __volatile__ (
 453:/opt/local/avr/include/avr/wdt.h **** 				"in __tmp_reg__,__SREG__"    "\n\t"
 454:/opt/local/avr/include/avr/wdt.h **** 				"cli"                        "\n\t"
 455:/opt/local/avr/include/avr/wdt.h **** 				"wdr"                        "\n\t"
 456:/opt/local/avr/include/avr/wdt.h **** 				"in  %[TEMPREG],%[WDTREG]"   "\n\t"
 457:/opt/local/avr/include/avr/wdt.h **** 				"ori %[TEMPREG],%[WDCE_WDE]" "\n\t"
 458:/opt/local/avr/include/avr/wdt.h **** 				"out %[WDTREG],%[TEMPREG]"   "\n\t"
 459:/opt/local/avr/include/avr/wdt.h **** 				"out %[WDTREG],__zero_reg__" "\n\t"
 460:/opt/local/avr/include/avr/wdt.h **** 				"out __SREG__,__tmp_reg__"   "\n\t"
 461:/opt/local/avr/include/avr/wdt.h **** 				: [TEMPREG] "=d" (temp_reg)
 462:/opt/local/avr/include/avr/wdt.h **** 				: [WDTREG]  "I"  (_SFR_IO_ADDR(_WD_CONTROL_REG)),
 463:/opt/local/avr/include/avr/wdt.h **** 				[WDCE_WDE]  "n"  ((uint8_t)(_BV(_WD_CHANGE_BIT) | _BV(WDE)))
 464:/opt/local/avr/include/avr/wdt.h **** 				: "r0"
 465:/opt/local/avr/include/avr/wdt.h **** 		);
 466:/opt/local/avr/include/avr/wdt.h **** 	}
 467:/opt/local/avr/include/avr/wdt.h **** 	else
 468:/opt/local/avr/include/avr/wdt.h **** 	{
 469:/opt/local/avr/include/avr/wdt.h ****         uint8_t register temp_reg;
 470:/opt/local/avr/include/avr/wdt.h **** 		__asm__ __volatile__ (
 1304               		.loc 5 470 0
 1305               	/* #APP */
 1306               	 ;  470 "/opt/local/avr/include/avr/wdt.h" 1
 1307 0006 0FB6      		in __tmp_reg__,__SREG__
 1308 0008 F894      		cli
 1309 000a A895      		wdr
 1310 000c 8091 6000 		lds r24,96
 1311 0010 8861      		ori r24,24
 1312 0012 8093 6000 		sts 96,r24
 1313 0016 1092 6000 		sts 96,__zero_reg__
 1314 001a 0FBE      		out __SREG__,__tmp_reg__
 1315               		
 1316               	 ;  0 "" 2
 1317               	.LVL93:
 1318               	/* #NOAPP */
 1319               	.LBE318:
 1320               	.LBE317:
 1321               	.LBB319:
 1322               	.LBB320:
 1323               		.file 6 "/opt/local/avr/include/avr/power.h"
   1:/opt/local/avr/include/avr/power.h **** /* Copyright (c) 2006, 2007, 2008  Eric B. Weddington
   2:/opt/local/avr/include/avr/power.h ****    Copyright (c) 2011 Frdric Nadeau
   3:/opt/local/avr/include/avr/power.h ****    All rights reserved.
   4:/opt/local/avr/include/avr/power.h **** 
   5:/opt/local/avr/include/avr/power.h ****    Redistribution and use in source and binary forms, with or without
   6:/opt/local/avr/include/avr/power.h ****    modification, are permitted provided that the following conditions are met:
   7:/opt/local/avr/include/avr/power.h **** 
   8:/opt/local/avr/include/avr/power.h ****    * Redistributions of source code must retain the above copyright
   9:/opt/local/avr/include/avr/power.h ****      notice, this list of conditions and the following disclaimer.
  10:/opt/local/avr/include/avr/power.h ****    * Redistributions in binary form must reproduce the above copyright
  11:/opt/local/avr/include/avr/power.h ****      notice, this list of conditions and the following disclaimer in
  12:/opt/local/avr/include/avr/power.h ****      the documentation and/or other materials provided with the
  13:/opt/local/avr/include/avr/power.h ****      distribution.
  14:/opt/local/avr/include/avr/power.h ****    * Neither the name of the copyright holders nor the names of
  15:/opt/local/avr/include/avr/power.h ****      contributors may be used to endorse or promote products derived
  16:/opt/local/avr/include/avr/power.h ****      from this software without specific prior written permission.
  17:/opt/local/avr/include/avr/power.h **** 
  18:/opt/local/avr/include/avr/power.h ****   THIS SOFTWARE IS PROVIDED BY THE COPYRIGHT HOLDERS AND CONTRIBUTORS "AS IS"
  19:/opt/local/avr/include/avr/power.h ****   AND ANY EXPRESS OR IMPLIED WARRANTIES, INCLUDING, BUT NOT LIMITED TO, THE
  20:/opt/local/avr/include/avr/power.h ****   IMPLIED WARRANTIES OF MERCHANTABILITY AND FITNESS FOR A PARTICULAR PURPOSE
  21:/opt/local/avr/include/avr/power.h ****   ARE DISCLAIMED. IN NO EVENT SHALL THE COPYRIGHT OWNER OR CONTRIBUTORS BE
  22:/opt/local/avr/include/avr/power.h ****   LIABLE FOR ANY DIRECT, INDIRECT, INCIDENTAL, SPECIAL, EXEMPLARY, OR
  23:/opt/local/avr/include/avr/power.h ****   CONSEQUENTIAL DAMAGES (INCLUDING, BUT NOT LIMITED TO, PROCUREMENT OF
  24:/opt/local/avr/include/avr/power.h ****   SUBSTITUTE GOODS OR SERVICES; LOSS OF USE, DATA, OR PROFITS; OR BUSINESS
  25:/opt/local/avr/include/avr/power.h ****   INTERRUPTION) HOWEVER CAUSED AND ON ANY THEORY OF LIABILITY, WHETHER IN
  26:/opt/local/avr/include/avr/power.h ****   CONTRACT, STRICT LIABILITY, OR TORT (INCLUDING NEGLIGENCE OR OTHERWISE)
  27:/opt/local/avr/include/avr/power.h ****   ARISING IN ANY WAY OUT OF THE USE OF THIS SOFTWARE, EVEN IF ADVISED OF THE
  28:/opt/local/avr/include/avr/power.h ****   POSSIBILITY OF SUCH DAMAGE. */
  29:/opt/local/avr/include/avr/power.h **** 
  30:/opt/local/avr/include/avr/power.h **** /* $Id: power.h 2503 2016-02-07 22:59:47Z joerg_wunsch $ */
  31:/opt/local/avr/include/avr/power.h **** 
  32:/opt/local/avr/include/avr/power.h **** #ifndef _AVR_POWER_H_
  33:/opt/local/avr/include/avr/power.h **** #define _AVR_POWER_H_   1
  34:/opt/local/avr/include/avr/power.h **** 
  35:/opt/local/avr/include/avr/power.h **** #include <avr/io.h>
  36:/opt/local/avr/include/avr/power.h **** #include <stdint.h>
  37:/opt/local/avr/include/avr/power.h **** 
  38:/opt/local/avr/include/avr/power.h **** 
  39:/opt/local/avr/include/avr/power.h **** /** \file */
  40:/opt/local/avr/include/avr/power.h **** /** \defgroup avr_power <avr/power.h>: Power Reduction Management
  41:/opt/local/avr/include/avr/power.h **** 
  42:/opt/local/avr/include/avr/power.h **** \code #include <avr/power.h>\endcode
  43:/opt/local/avr/include/avr/power.h **** 
  44:/opt/local/avr/include/avr/power.h **** Many AVRs contain a Power Reduction Register (PRR) or Registers (PRRx) that 
  45:/opt/local/avr/include/avr/power.h **** allow you to reduce power consumption by disabling or enabling various on-board 
  46:/opt/local/avr/include/avr/power.h **** peripherals as needed. Some devices have the XTAL Divide Control Register
  47:/opt/local/avr/include/avr/power.h **** (XDIV) which offer similar functionality as System Clock Prescale
  48:/opt/local/avr/include/avr/power.h **** Register (CLKPR).
  49:/opt/local/avr/include/avr/power.h **** 
  50:/opt/local/avr/include/avr/power.h **** There are many macros in this header file that provide an easy interface
  51:/opt/local/avr/include/avr/power.h **** to enable or disable on-board peripherals to reduce power. See the table below.
  52:/opt/local/avr/include/avr/power.h **** 
  53:/opt/local/avr/include/avr/power.h **** \note Not all AVR devices have a Power Reduction Register (for example
  54:/opt/local/avr/include/avr/power.h **** the ATmega8). On those devices without a Power Reduction Register, the
  55:/opt/local/avr/include/avr/power.h **** power reduction macros are not available..
  56:/opt/local/avr/include/avr/power.h **** 
  57:/opt/local/avr/include/avr/power.h **** \note Not all AVR devices contain the same peripherals (for example, the LCD
  58:/opt/local/avr/include/avr/power.h **** interface), or they will be named differently (for example, USART and 
  59:/opt/local/avr/include/avr/power.h **** USART0). Please consult your device's datasheet, or the header file, to 
  60:/opt/local/avr/include/avr/power.h **** find out which macros are applicable to your device.
  61:/opt/local/avr/include/avr/power.h **** 
  62:/opt/local/avr/include/avr/power.h **** \note For device using the XTAL Divide Control Register (XDIV), when prescaler
  63:/opt/local/avr/include/avr/power.h **** is used, Timer/Counter0 can only be used in asynchronous mode. Keep in mind
  64:/opt/local/avr/include/avr/power.h **** that Timer/Counter0 source shall be less than th of peripheral clock.
  65:/opt/local/avr/include/avr/power.h **** Therefore, when using a typical 32.768 kHz crystal, one shall not scale
  66:/opt/local/avr/include/avr/power.h **** the clock below 131.072 kHz.
  67:/opt/local/avr/include/avr/power.h **** 
  68:/opt/local/avr/include/avr/power.h **** */
  69:/opt/local/avr/include/avr/power.h **** 
  70:/opt/local/avr/include/avr/power.h **** 
  71:/opt/local/avr/include/avr/power.h **** /** \addtogroup avr_power
  72:/opt/local/avr/include/avr/power.h **** 
  73:/opt/local/avr/include/avr/power.h **** \anchor avr_powermacros
  74:/opt/local/avr/include/avr/power.h **** <small>
  75:/opt/local/avr/include/avr/power.h **** <center>
  76:/opt/local/avr/include/avr/power.h **** <table border="3">
  77:/opt/local/avr/include/avr/power.h ****   <tr>
  78:/opt/local/avr/include/avr/power.h ****     <td width="10%"><strong>Power Macro</strong></td>
  79:/opt/local/avr/include/avr/power.h ****     <td width="15%"><strong>Description</strong></td>
  80:/opt/local/avr/include/avr/power.h ****   </tr>
  81:/opt/local/avr/include/avr/power.h **** 
  82:/opt/local/avr/include/avr/power.h ****   <tr>
  83:/opt/local/avr/include/avr/power.h ****     <td>power_aca_disable()</td>
  84:/opt/local/avr/include/avr/power.h ****     <td>Disable the Analog Comparator on PortA.</td>
  85:/opt/local/avr/include/avr/power.h ****   </tr>
  86:/opt/local/avr/include/avr/power.h **** 
  87:/opt/local/avr/include/avr/power.h ****   <tr>
  88:/opt/local/avr/include/avr/power.h ****     <td>power_aca_enable()</td>
  89:/opt/local/avr/include/avr/power.h ****     <td>Enable the Analog Comparator on PortA.</td>
  90:/opt/local/avr/include/avr/power.h ****   </tr>
  91:/opt/local/avr/include/avr/power.h **** 
  92:/opt/local/avr/include/avr/power.h ****   <tr>
  93:/opt/local/avr/include/avr/power.h ****     <td>power_adc_enable()</td>
  94:/opt/local/avr/include/avr/power.h ****     <td>Enable the Analog to Digital Converter module.</td>
  95:/opt/local/avr/include/avr/power.h ****   </tr>
  96:/opt/local/avr/include/avr/power.h **** 
  97:/opt/local/avr/include/avr/power.h ****   <tr>
  98:/opt/local/avr/include/avr/power.h ****     <td>power_adc_disable()</td>
  99:/opt/local/avr/include/avr/power.h ****     <td>Disable the Analog to Digital Converter module.</td>
 100:/opt/local/avr/include/avr/power.h ****   </tr>
 101:/opt/local/avr/include/avr/power.h **** 
 102:/opt/local/avr/include/avr/power.h ****   <tr>
 103:/opt/local/avr/include/avr/power.h ****     <td>power_adca_disable()</td>
 104:/opt/local/avr/include/avr/power.h ****     <td>Disable the Analog to Digital Converter module on PortA</td>
 105:/opt/local/avr/include/avr/power.h ****   </tr>
 106:/opt/local/avr/include/avr/power.h **** 
 107:/opt/local/avr/include/avr/power.h ****   <tr>
 108:/opt/local/avr/include/avr/power.h ****     <td>power_adca_enable()</td>
 109:/opt/local/avr/include/avr/power.h ****     <td>Enable the Analog to Digital Converter module on PortA</td>
 110:/opt/local/avr/include/avr/power.h ****   </tr>
 111:/opt/local/avr/include/avr/power.h **** 
 112:/opt/local/avr/include/avr/power.h ****   <tr>
 113:/opt/local/avr/include/avr/power.h ****     <td>power_evsys_disable()</td>
 114:/opt/local/avr/include/avr/power.h ****     <td>Disable the EVSYS module</td>
 115:/opt/local/avr/include/avr/power.h ****   </tr>
 116:/opt/local/avr/include/avr/power.h **** 
 117:/opt/local/avr/include/avr/power.h ****   <tr>
 118:/opt/local/avr/include/avr/power.h ****     <td>power_evsys_enable()</td>
 119:/opt/local/avr/include/avr/power.h ****     <td>Enable the EVSYS module</td>
 120:/opt/local/avr/include/avr/power.h ****   </tr>
 121:/opt/local/avr/include/avr/power.h **** 
 122:/opt/local/avr/include/avr/power.h ****   <tr>
 123:/opt/local/avr/include/avr/power.h ****     <td>power_hiresc_disable()</td>
 124:/opt/local/avr/include/avr/power.h ****     <td>Disable the HIRES module on PortC</td>
 125:/opt/local/avr/include/avr/power.h ****   </tr>
 126:/opt/local/avr/include/avr/power.h **** 
 127:/opt/local/avr/include/avr/power.h ****   <tr>
 128:/opt/local/avr/include/avr/power.h ****     <td>power_hiresc_enable()</td>
 129:/opt/local/avr/include/avr/power.h ****     <td>Enable the HIRES module on PortC</td>
 130:/opt/local/avr/include/avr/power.h ****   </tr>
 131:/opt/local/avr/include/avr/power.h **** 
 132:/opt/local/avr/include/avr/power.h ****    <tr>
 133:/opt/local/avr/include/avr/power.h ****     <td>power_lcd_enable()</td>
 134:/opt/local/avr/include/avr/power.h ****     <td>Enable the LCD module.</td>
 135:/opt/local/avr/include/avr/power.h ****   </tr>
 136:/opt/local/avr/include/avr/power.h **** 
 137:/opt/local/avr/include/avr/power.h ****   <tr>
 138:/opt/local/avr/include/avr/power.h ****     <td>power_lcd_disable().</td>
 139:/opt/local/avr/include/avr/power.h ****     <td>Disable the LCD module.</td>
 140:/opt/local/avr/include/avr/power.h ****   </tr>
 141:/opt/local/avr/include/avr/power.h **** 
 142:/opt/local/avr/include/avr/power.h ****   <tr>
 143:/opt/local/avr/include/avr/power.h ****     <td>power_pga_enable()</td>
 144:/opt/local/avr/include/avr/power.h ****     <td>Enable the Programmable Gain Amplifier module.</td>
 145:/opt/local/avr/include/avr/power.h ****   </tr>
 146:/opt/local/avr/include/avr/power.h **** 
 147:/opt/local/avr/include/avr/power.h ****   <tr>
 148:/opt/local/avr/include/avr/power.h ****     <td>power_pga_disable()</td>
 149:/opt/local/avr/include/avr/power.h ****     <td>Disable the Programmable Gain Amplifier module.</td>
 150:/opt/local/avr/include/avr/power.h ****   </tr>
 151:/opt/local/avr/include/avr/power.h ****   
 152:/opt/local/avr/include/avr/power.h ****   <tr>
 153:/opt/local/avr/include/avr/power.h ****     <td>power_pscr_enable()</td>
 154:/opt/local/avr/include/avr/power.h ****     <td>Enable the Reduced Power Stage Controller module.</td>
 155:/opt/local/avr/include/avr/power.h ****   </tr>
 156:/opt/local/avr/include/avr/power.h **** 
 157:/opt/local/avr/include/avr/power.h ****   <tr>
 158:/opt/local/avr/include/avr/power.h ****     <td>power_pscr_disable()</td>
 159:/opt/local/avr/include/avr/power.h ****     <td>Disable the Reduced Power Stage Controller module.</td>
 160:/opt/local/avr/include/avr/power.h ****   </tr>
 161:/opt/local/avr/include/avr/power.h **** 
 162:/opt/local/avr/include/avr/power.h ****   <tr>
 163:/opt/local/avr/include/avr/power.h ****     <td>power_psc0_enable()</td>
 164:/opt/local/avr/include/avr/power.h ****     <td>Enable the Power Stage Controller 0 module.</td>
 165:/opt/local/avr/include/avr/power.h ****   </tr>
 166:/opt/local/avr/include/avr/power.h **** 
 167:/opt/local/avr/include/avr/power.h ****   <tr>
 168:/opt/local/avr/include/avr/power.h ****     <td>power_psc0_disable()</td>
 169:/opt/local/avr/include/avr/power.h ****     <td>Disable the Power Stage Controller 0 module.</td>
 170:/opt/local/avr/include/avr/power.h ****   </tr>
 171:/opt/local/avr/include/avr/power.h **** 
 172:/opt/local/avr/include/avr/power.h ****   <tr>
 173:/opt/local/avr/include/avr/power.h ****     <td>power_psc1_enable()</td>
 174:/opt/local/avr/include/avr/power.h ****     <td>Enable the Power Stage Controller 1 module.</td>
 175:/opt/local/avr/include/avr/power.h ****   </tr>
 176:/opt/local/avr/include/avr/power.h **** 
 177:/opt/local/avr/include/avr/power.h ****   <tr>
 178:/opt/local/avr/include/avr/power.h ****     <td>power_psc1_disable()</td>
 179:/opt/local/avr/include/avr/power.h ****     <td>Disable the Power Stage Controller 1 module.</td>
 180:/opt/local/avr/include/avr/power.h ****   </tr>
 181:/opt/local/avr/include/avr/power.h **** 
 182:/opt/local/avr/include/avr/power.h ****   <tr>
 183:/opt/local/avr/include/avr/power.h ****     <td>power_psc2_enable()</td>
 184:/opt/local/avr/include/avr/power.h ****     <td>Enable the Power Stage Controller 2 module.</td>
 185:/opt/local/avr/include/avr/power.h ****   </tr>
 186:/opt/local/avr/include/avr/power.h **** 
 187:/opt/local/avr/include/avr/power.h ****   <tr>
 188:/opt/local/avr/include/avr/power.h ****     <td>power_psc2_disable()</td>
 189:/opt/local/avr/include/avr/power.h ****     <td>Disable the Power Stage Controller 2 module.</td>
 190:/opt/local/avr/include/avr/power.h ****   </tr>
 191:/opt/local/avr/include/avr/power.h **** 
 192:/opt/local/avr/include/avr/power.h ****   <tr>
 193:/opt/local/avr/include/avr/power.h ****     <td>power_ram0_enable()</td>
 194:/opt/local/avr/include/avr/power.h ****     <td>Enable the SRAM block 0 .</td>
 195:/opt/local/avr/include/avr/power.h ****   </tr>
 196:/opt/local/avr/include/avr/power.h **** 
 197:/opt/local/avr/include/avr/power.h ****   <tr>
 198:/opt/local/avr/include/avr/power.h ****     <td>power_ram0_disable()</td>
 199:/opt/local/avr/include/avr/power.h ****     <td>Disable the SRAM block 0. </td>
 200:/opt/local/avr/include/avr/power.h ****   </tr>
 201:/opt/local/avr/include/avr/power.h **** 
 202:/opt/local/avr/include/avr/power.h ****   <tr>
 203:/opt/local/avr/include/avr/power.h ****     <td>power_ram1_enable()</td>
 204:/opt/local/avr/include/avr/power.h ****     <td>Enable the SRAM block 1 .</td>
 205:/opt/local/avr/include/avr/power.h ****   </tr>
 206:/opt/local/avr/include/avr/power.h **** 
 207:/opt/local/avr/include/avr/power.h ****   <tr>
 208:/opt/local/avr/include/avr/power.h ****     <td>power_ram1_disable()</td>
 209:/opt/local/avr/include/avr/power.h ****     <td>Disable the SRAM block 1. </td>
 210:/opt/local/avr/include/avr/power.h ****   </tr>
 211:/opt/local/avr/include/avr/power.h **** 
 212:/opt/local/avr/include/avr/power.h ****   <tr>
 213:/opt/local/avr/include/avr/power.h ****     <td>power_ram2_enable()</td>
 214:/opt/local/avr/include/avr/power.h ****     <td>Enable the SRAM block 2 .</td>
 215:/opt/local/avr/include/avr/power.h ****   </tr>
 216:/opt/local/avr/include/avr/power.h **** 
 217:/opt/local/avr/include/avr/power.h ****   <tr>
 218:/opt/local/avr/include/avr/power.h ****     <td>power_ram2_disable()</td>
 219:/opt/local/avr/include/avr/power.h ****     <td>Disable the SRAM block 2. </td>
 220:/opt/local/avr/include/avr/power.h ****   </tr>
 221:/opt/local/avr/include/avr/power.h **** 
 222:/opt/local/avr/include/avr/power.h ****   <tr>
 223:/opt/local/avr/include/avr/power.h ****     <td>power_ram3_enable()</td>
 224:/opt/local/avr/include/avr/power.h ****     <td>Enable the SRAM block 3 .</td>
 225:/opt/local/avr/include/avr/power.h ****   </tr>
 226:/opt/local/avr/include/avr/power.h **** 
 227:/opt/local/avr/include/avr/power.h ****   <tr>
 228:/opt/local/avr/include/avr/power.h ****     <td>power_ram3_disable()</td>
 229:/opt/local/avr/include/avr/power.h ****     <td>Disable the SRAM block 3. </td>
 230:/opt/local/avr/include/avr/power.h ****   </tr>
 231:/opt/local/avr/include/avr/power.h **** 
 232:/opt/local/avr/include/avr/power.h ****   <tr>
 233:/opt/local/avr/include/avr/power.h ****     <td>power_rtc_disable()</td>
 234:/opt/local/avr/include/avr/power.h ****     <td>Disable the RTC module</td>
 235:/opt/local/avr/include/avr/power.h ****   </tr>
 236:/opt/local/avr/include/avr/power.h **** 
 237:/opt/local/avr/include/avr/power.h ****   <tr>
 238:/opt/local/avr/include/avr/power.h ****     <td>power_rtc_enable()</td>
 239:/opt/local/avr/include/avr/power.h ****     <td>Enable the RTC module</td>
 240:/opt/local/avr/include/avr/power.h ****   </tr>
 241:/opt/local/avr/include/avr/power.h **** 
 242:/opt/local/avr/include/avr/power.h ****   <tr>
 243:/opt/local/avr/include/avr/power.h ****     <td>power_spi_enable()</td>
 244:/opt/local/avr/include/avr/power.h ****     <td>Enable the Serial Peripheral Interface module.</td>
 245:/opt/local/avr/include/avr/power.h ****   </tr>
 246:/opt/local/avr/include/avr/power.h **** 
 247:/opt/local/avr/include/avr/power.h ****   <tr>
 248:/opt/local/avr/include/avr/power.h ****     <td>power_spi_disable()</td>
 249:/opt/local/avr/include/avr/power.h ****     <td>Disable the Serial Peripheral Interface module.</td>
 250:/opt/local/avr/include/avr/power.h ****   </tr>
 251:/opt/local/avr/include/avr/power.h **** 
 252:/opt/local/avr/include/avr/power.h ****   <tr>
 253:/opt/local/avr/include/avr/power.h ****     <td>power_spic_disable()</td>
 254:/opt/local/avr/include/avr/power.h ****     <td>Disable the SPI module on PortC</td>
 255:/opt/local/avr/include/avr/power.h ****   </tr>
 256:/opt/local/avr/include/avr/power.h **** 
 257:/opt/local/avr/include/avr/power.h ****   <tr>
 258:/opt/local/avr/include/avr/power.h ****     <td>power_spic_enable()</td>
 259:/opt/local/avr/include/avr/power.h ****     <td>Enable the SPI module on PortC</td>
 260:/opt/local/avr/include/avr/power.h ****   </tr>
 261:/opt/local/avr/include/avr/power.h **** 
 262:/opt/local/avr/include/avr/power.h ****   <tr>
 263:/opt/local/avr/include/avr/power.h ****     <td>power_spid_disable()</td>
 264:/opt/local/avr/include/avr/power.h ****     <td>Disable the SPI module on PortD</td>
 265:/opt/local/avr/include/avr/power.h ****   </tr>
 266:/opt/local/avr/include/avr/power.h **** 
 267:/opt/local/avr/include/avr/power.h ****   <tr>
 268:/opt/local/avr/include/avr/power.h ****     <td>power_spid_enable()</td>
 269:/opt/local/avr/include/avr/power.h ****     <td>Enable the SPI module on PortD</td>
 270:/opt/local/avr/include/avr/power.h ****   </tr>
 271:/opt/local/avr/include/avr/power.h **** 
 272:/opt/local/avr/include/avr/power.h ****   <tr>
 273:/opt/local/avr/include/avr/power.h ****     <td>power_tc0c_disable()</td>
 274:/opt/local/avr/include/avr/power.h ****     <td>Disable the TC0 module on PortC</td>
 275:/opt/local/avr/include/avr/power.h ****   </tr>
 276:/opt/local/avr/include/avr/power.h **** 
 277:/opt/local/avr/include/avr/power.h ****   <tr>
 278:/opt/local/avr/include/avr/power.h ****     <td>power_tc0c_enable()</td>
 279:/opt/local/avr/include/avr/power.h ****     <td>Enable the TC0 module on PortC</td>
 280:/opt/local/avr/include/avr/power.h ****   </tr>
 281:/opt/local/avr/include/avr/power.h **** 
 282:/opt/local/avr/include/avr/power.h ****   <tr>
 283:/opt/local/avr/include/avr/power.h ****     <td>power_tc0d_disable()</td>
 284:/opt/local/avr/include/avr/power.h ****     <td>Disable the TC0 module on PortD</td>
 285:/opt/local/avr/include/avr/power.h ****   </tr>
 286:/opt/local/avr/include/avr/power.h **** 
 287:/opt/local/avr/include/avr/power.h ****   <tr>
 288:/opt/local/avr/include/avr/power.h ****     <td>power_tc0d_enable()</td>
 289:/opt/local/avr/include/avr/power.h ****     <td>Enable the TC0 module on PortD</td>
 290:/opt/local/avr/include/avr/power.h ****   </tr>
 291:/opt/local/avr/include/avr/power.h **** 
 292:/opt/local/avr/include/avr/power.h ****   <tr>
 293:/opt/local/avr/include/avr/power.h ****     <td>power_tc0e_disable()</td>
 294:/opt/local/avr/include/avr/power.h ****     <td>Disable the TC0 module on PortE</td>
 295:/opt/local/avr/include/avr/power.h ****   </tr>
 296:/opt/local/avr/include/avr/power.h **** 
 297:/opt/local/avr/include/avr/power.h ****   <tr>
 298:/opt/local/avr/include/avr/power.h ****     <td>power_tc0e_enable()</td>
 299:/opt/local/avr/include/avr/power.h ****     <td>Enable the TC0 module on PortE</td>
 300:/opt/local/avr/include/avr/power.h ****   </tr>
 301:/opt/local/avr/include/avr/power.h **** 
 302:/opt/local/avr/include/avr/power.h ****   <tr>
 303:/opt/local/avr/include/avr/power.h ****     <td>power_tc0f_disable()</td>
 304:/opt/local/avr/include/avr/power.h ****     <td>Disable the TC0 module on PortF</td>
 305:/opt/local/avr/include/avr/power.h ****   </tr>
 306:/opt/local/avr/include/avr/power.h **** 
 307:/opt/local/avr/include/avr/power.h ****   <tr>
 308:/opt/local/avr/include/avr/power.h ****     <td>power_tc0f_enable()</td>
 309:/opt/local/avr/include/avr/power.h ****     <td>Enable the TC0 module on PortF</td>
 310:/opt/local/avr/include/avr/power.h ****   </tr>
 311:/opt/local/avr/include/avr/power.h **** 
 312:/opt/local/avr/include/avr/power.h ****   <tr>
 313:/opt/local/avr/include/avr/power.h ****     <td>power_tc1c_disable()</td>
 314:/opt/local/avr/include/avr/power.h ****     <td>Disable the TC1 module on PortC</td>
 315:/opt/local/avr/include/avr/power.h ****   </tr>
 316:/opt/local/avr/include/avr/power.h **** 
 317:/opt/local/avr/include/avr/power.h ****   <tr>
 318:/opt/local/avr/include/avr/power.h ****     <td>power_tc1c_enable()</td>
 319:/opt/local/avr/include/avr/power.h ****     <td>Enable the TC1 module on PortC</td>
 320:/opt/local/avr/include/avr/power.h ****   </tr>
 321:/opt/local/avr/include/avr/power.h **** 
 322:/opt/local/avr/include/avr/power.h ****   <tr>
 323:/opt/local/avr/include/avr/power.h ****     <td>power_twic_disable()</td>
 324:/opt/local/avr/include/avr/power.h ****     <td>Disable the Two Wire Interface module on PortC</td>
 325:/opt/local/avr/include/avr/power.h ****   </tr>
 326:/opt/local/avr/include/avr/power.h **** 
 327:/opt/local/avr/include/avr/power.h ****   <tr>
 328:/opt/local/avr/include/avr/power.h ****     <td>power_twic_enable()</td>
 329:/opt/local/avr/include/avr/power.h ****     <td>Enable the Two Wire Interface module on PortC</td>
 330:/opt/local/avr/include/avr/power.h ****   </tr>
 331:/opt/local/avr/include/avr/power.h **** 
 332:/opt/local/avr/include/avr/power.h ****   <tr>
 333:/opt/local/avr/include/avr/power.h ****     <td>power_twie_disable()</td>
 334:/opt/local/avr/include/avr/power.h ****     <td>Disable the Two Wire Interface module on PortE</td>
 335:/opt/local/avr/include/avr/power.h ****   </tr>
 336:/opt/local/avr/include/avr/power.h **** 
 337:/opt/local/avr/include/avr/power.h ****   <tr>
 338:/opt/local/avr/include/avr/power.h ****     <td>power_twie_enable()</td>
 339:/opt/local/avr/include/avr/power.h ****     <td>Enable the Two Wire Interface module on PortE</td>
 340:/opt/local/avr/include/avr/power.h ****   </tr>
 341:/opt/local/avr/include/avr/power.h **** 
 342:/opt/local/avr/include/avr/power.h ****   <tr>
 343:/opt/local/avr/include/avr/power.h ****     <td>power_timer0_enable()</td>
 344:/opt/local/avr/include/avr/power.h ****     <td>Enable the Timer 0 module.</td>
 345:/opt/local/avr/include/avr/power.h ****   </tr>
 346:/opt/local/avr/include/avr/power.h **** 
 347:/opt/local/avr/include/avr/power.h ****   <tr>
 348:/opt/local/avr/include/avr/power.h ****     <td>power_timer0_disable()</td>
 349:/opt/local/avr/include/avr/power.h ****     <td>Disable the Timer 0 module.</td>
 350:/opt/local/avr/include/avr/power.h ****   </tr>
 351:/opt/local/avr/include/avr/power.h **** 
 352:/opt/local/avr/include/avr/power.h ****   <tr>
 353:/opt/local/avr/include/avr/power.h ****     <td>power_timer1_enable()</td>
 354:/opt/local/avr/include/avr/power.h ****     <td>Enable the Timer 1 module.</td>
 355:/opt/local/avr/include/avr/power.h ****   </tr>
 356:/opt/local/avr/include/avr/power.h **** 
 357:/opt/local/avr/include/avr/power.h ****   <tr>
 358:/opt/local/avr/include/avr/power.h ****     <td>power_timer1_disable()</td>
 359:/opt/local/avr/include/avr/power.h ****     <td>Disable the Timer 1 module.</td>
 360:/opt/local/avr/include/avr/power.h ****   </tr>
 361:/opt/local/avr/include/avr/power.h **** 
 362:/opt/local/avr/include/avr/power.h ****   <tr>
 363:/opt/local/avr/include/avr/power.h ****     <td>power_timer2_enable()</td>
 364:/opt/local/avr/include/avr/power.h ****     <td>Enable the Timer 2 module.</td>
 365:/opt/local/avr/include/avr/power.h ****   </tr>
 366:/opt/local/avr/include/avr/power.h **** 
 367:/opt/local/avr/include/avr/power.h ****   <tr>
 368:/opt/local/avr/include/avr/power.h ****     <td>power_timer2_disable()</td>
 369:/opt/local/avr/include/avr/power.h ****     <td>Disable the Timer 2 module.</td>
 370:/opt/local/avr/include/avr/power.h ****   </tr>
 371:/opt/local/avr/include/avr/power.h **** 
 372:/opt/local/avr/include/avr/power.h ****   <tr>
 373:/opt/local/avr/include/avr/power.h ****     <td>power_timer3_enable()</td>
 374:/opt/local/avr/include/avr/power.h ****     <td>Enable the Timer 3 module.</td>
 375:/opt/local/avr/include/avr/power.h ****   </tr>
 376:/opt/local/avr/include/avr/power.h **** 
 377:/opt/local/avr/include/avr/power.h ****   <tr>
 378:/opt/local/avr/include/avr/power.h ****     <td>power_timer3_disable()</td>
 379:/opt/local/avr/include/avr/power.h ****     <td>Disable the Timer 3 module.</td>
 380:/opt/local/avr/include/avr/power.h ****   </tr>
 381:/opt/local/avr/include/avr/power.h **** 
 382:/opt/local/avr/include/avr/power.h ****   <tr>
 383:/opt/local/avr/include/avr/power.h ****     <td>power_timer4_enable()</td>
 384:/opt/local/avr/include/avr/power.h ****     <td>Enable the Timer 4 module.</td>
 385:/opt/local/avr/include/avr/power.h ****   </tr>
 386:/opt/local/avr/include/avr/power.h **** 
 387:/opt/local/avr/include/avr/power.h ****   <tr>
 388:/opt/local/avr/include/avr/power.h ****     <td>power_timer4_disable()</td>
 389:/opt/local/avr/include/avr/power.h ****     <td>Disable the Timer 4 module.</td>
 390:/opt/local/avr/include/avr/power.h ****   </tr>
 391:/opt/local/avr/include/avr/power.h **** 
 392:/opt/local/avr/include/avr/power.h ****   <tr>
 393:/opt/local/avr/include/avr/power.h ****     <td>power_timer5_enable()</td>
 394:/opt/local/avr/include/avr/power.h ****     <td>Enable the Timer 5 module.</td>
 395:/opt/local/avr/include/avr/power.h ****   </tr>
 396:/opt/local/avr/include/avr/power.h **** 
 397:/opt/local/avr/include/avr/power.h ****   <tr>
 398:/opt/local/avr/include/avr/power.h ****     <td>power_timer5_disable()</td>
 399:/opt/local/avr/include/avr/power.h ****     <td>Disable the Timer 5 module.</td>
 400:/opt/local/avr/include/avr/power.h ****   </tr>
 401:/opt/local/avr/include/avr/power.h **** 
 402:/opt/local/avr/include/avr/power.h ****   <tr>
 403:/opt/local/avr/include/avr/power.h ****     <td>power_twi_enable()</td>
 404:/opt/local/avr/include/avr/power.h ****     <td>Enable the Two Wire Interface module.</td>
 405:/opt/local/avr/include/avr/power.h ****   </tr>
 406:/opt/local/avr/include/avr/power.h **** 
 407:/opt/local/avr/include/avr/power.h ****   <tr>
 408:/opt/local/avr/include/avr/power.h ****     <td>power_twi_disable()</td>
 409:/opt/local/avr/include/avr/power.h ****     <td>Disable the Two Wire Interface module.</td>
 410:/opt/local/avr/include/avr/power.h ****   </tr>
 411:/opt/local/avr/include/avr/power.h **** 
 412:/opt/local/avr/include/avr/power.h ****   <tr>
 413:/opt/local/avr/include/avr/power.h ****     <td>power_usart_enable()</td>
 414:/opt/local/avr/include/avr/power.h ****     <td>Enable the USART module.</td>
 415:/opt/local/avr/include/avr/power.h ****   </tr>
 416:/opt/local/avr/include/avr/power.h **** 
 417:/opt/local/avr/include/avr/power.h ****   <tr>
 418:/opt/local/avr/include/avr/power.h ****     <td>power_usart_disable()</td>
 419:/opt/local/avr/include/avr/power.h ****     <td>Disable the USART module.</td>
 420:/opt/local/avr/include/avr/power.h ****   </tr>
 421:/opt/local/avr/include/avr/power.h **** 
 422:/opt/local/avr/include/avr/power.h ****   <tr>
 423:/opt/local/avr/include/avr/power.h ****     <td>power_usart0_enable()</td>
 424:/opt/local/avr/include/avr/power.h ****     <td>Enable the USART 0 module.</td>
 425:/opt/local/avr/include/avr/power.h ****   </tr>
 426:/opt/local/avr/include/avr/power.h **** 
 427:/opt/local/avr/include/avr/power.h ****   <tr>
 428:/opt/local/avr/include/avr/power.h ****     <td>power_usart0_disable()</td>
 429:/opt/local/avr/include/avr/power.h ****     <td>Disable the USART 0 module.</td>
 430:/opt/local/avr/include/avr/power.h ****   </tr>
 431:/opt/local/avr/include/avr/power.h **** 
 432:/opt/local/avr/include/avr/power.h ****   <tr>
 433:/opt/local/avr/include/avr/power.h ****     <td>power_usart1_enable()</td>
 434:/opt/local/avr/include/avr/power.h ****     <td>Enable the USART 1 module.</td>
 435:/opt/local/avr/include/avr/power.h ****   </tr>
 436:/opt/local/avr/include/avr/power.h **** 
 437:/opt/local/avr/include/avr/power.h ****   <tr>
 438:/opt/local/avr/include/avr/power.h ****     <td>power_usart1_disable()</td>
 439:/opt/local/avr/include/avr/power.h ****     <td>Disable the USART 1 module.</td>
 440:/opt/local/avr/include/avr/power.h ****   </tr>
 441:/opt/local/avr/include/avr/power.h **** 
 442:/opt/local/avr/include/avr/power.h ****   <tr>
 443:/opt/local/avr/include/avr/power.h ****     <td>power_usart2_enable()</td>
 444:/opt/local/avr/include/avr/power.h ****     <td>Enable the USART 2 module.</td>
 445:/opt/local/avr/include/avr/power.h ****   </tr>
 446:/opt/local/avr/include/avr/power.h **** 
 447:/opt/local/avr/include/avr/power.h ****   <tr>
 448:/opt/local/avr/include/avr/power.h ****     <td>power_usart2_disable()</td>
 449:/opt/local/avr/include/avr/power.h ****     <td>Disable the USART 2 module.</td>
 450:/opt/local/avr/include/avr/power.h ****   </tr>
 451:/opt/local/avr/include/avr/power.h **** 
 452:/opt/local/avr/include/avr/power.h ****   <tr>
 453:/opt/local/avr/include/avr/power.h ****     <td>power_usart3_enable()</td>
 454:/opt/local/avr/include/avr/power.h ****     <td>Enable the USART 3 module.</td>
 455:/opt/local/avr/include/avr/power.h ****   </tr>
 456:/opt/local/avr/include/avr/power.h **** 
 457:/opt/local/avr/include/avr/power.h ****   <tr>
 458:/opt/local/avr/include/avr/power.h ****     <td>power_usart3_disable()</td>
 459:/opt/local/avr/include/avr/power.h ****     <td>Disable the USART 3 module.</td>
 460:/opt/local/avr/include/avr/power.h ****   </tr>
 461:/opt/local/avr/include/avr/power.h **** 
 462:/opt/local/avr/include/avr/power.h ****   <tr>
 463:/opt/local/avr/include/avr/power.h ****     <td>power_usartc0_disable()</td>
 464:/opt/local/avr/include/avr/power.h ****     <td> Disable the USART0 module on PortC</td>
 465:/opt/local/avr/include/avr/power.h ****   </tr>
 466:/opt/local/avr/include/avr/power.h **** 
 467:/opt/local/avr/include/avr/power.h ****   <tr>
 468:/opt/local/avr/include/avr/power.h ****     <td>power_usartc0_enable()</td>
 469:/opt/local/avr/include/avr/power.h ****     <td> Enable the USART0 module on PortC</td>
 470:/opt/local/avr/include/avr/power.h ****   </tr>
 471:/opt/local/avr/include/avr/power.h **** 
 472:/opt/local/avr/include/avr/power.h ****   <tr>
 473:/opt/local/avr/include/avr/power.h ****     <td>power_usartd0_disable()</td>
 474:/opt/local/avr/include/avr/power.h ****     <td> Disable the USART0 module on PortD</td>
 475:/opt/local/avr/include/avr/power.h ****   </tr>
 476:/opt/local/avr/include/avr/power.h **** 
 477:/opt/local/avr/include/avr/power.h ****   <tr>
 478:/opt/local/avr/include/avr/power.h ****     <td>power_usartd0_enable()</td>
 479:/opt/local/avr/include/avr/power.h ****     <td> Enable the USART0 module on PortD</td>
 480:/opt/local/avr/include/avr/power.h ****   </tr>
 481:/opt/local/avr/include/avr/power.h **** 
 482:/opt/local/avr/include/avr/power.h ****   <tr>
 483:/opt/local/avr/include/avr/power.h ****     <td>power_usarte0_disable()</td>
 484:/opt/local/avr/include/avr/power.h ****     <td> Disable the USART0 module on PortE</td>
 485:/opt/local/avr/include/avr/power.h ****   </tr>
 486:/opt/local/avr/include/avr/power.h **** 
 487:/opt/local/avr/include/avr/power.h ****   <tr>
 488:/opt/local/avr/include/avr/power.h ****     <td>power_usarte0_enable()</td>
 489:/opt/local/avr/include/avr/power.h ****     <td> Enable the USART0 module on PortE</td>
 490:/opt/local/avr/include/avr/power.h ****   </tr>
 491:/opt/local/avr/include/avr/power.h **** 
 492:/opt/local/avr/include/avr/power.h ****   <tr>
 493:/opt/local/avr/include/avr/power.h ****     <td>power_usartf0_disable()</td>
 494:/opt/local/avr/include/avr/power.h ****     <td> Disable the USART0 module on PortF</td>
 495:/opt/local/avr/include/avr/power.h ****   </tr>
 496:/opt/local/avr/include/avr/power.h **** 
 497:/opt/local/avr/include/avr/power.h ****   <tr>
 498:/opt/local/avr/include/avr/power.h ****     <td>power_usartf0_enable()</td>
 499:/opt/local/avr/include/avr/power.h ****     <td> Enable the USART0 module on PortF</td>
 500:/opt/local/avr/include/avr/power.h ****   </tr>
 501:/opt/local/avr/include/avr/power.h **** 
 502:/opt/local/avr/include/avr/power.h ****   <tr>
 503:/opt/local/avr/include/avr/power.h ****     <td>power_usb_enable()</td>
 504:/opt/local/avr/include/avr/power.h ****     <td>Enable the USB module.</td>
 505:/opt/local/avr/include/avr/power.h ****   </tr>
 506:/opt/local/avr/include/avr/power.h **** 
 507:/opt/local/avr/include/avr/power.h ****   <tr>
 508:/opt/local/avr/include/avr/power.h ****     <td>power_usb_disable()</td>
 509:/opt/local/avr/include/avr/power.h ****     <td>Disable the USB module.</td>
 510:/opt/local/avr/include/avr/power.h ****   </tr>
 511:/opt/local/avr/include/avr/power.h **** 
 512:/opt/local/avr/include/avr/power.h ****   <tr>
 513:/opt/local/avr/include/avr/power.h ****     <td>power_usi_enable()</td>
 514:/opt/local/avr/include/avr/power.h ****     <td>Enable the Universal Serial Interface module.</td>
 515:/opt/local/avr/include/avr/power.h ****   </tr>
 516:/opt/local/avr/include/avr/power.h **** 
 517:/opt/local/avr/include/avr/power.h ****   <tr>
 518:/opt/local/avr/include/avr/power.h ****     <td>power_usi_disable()</td>
 519:/opt/local/avr/include/avr/power.h ****     <td>Disable the Universal Serial Interface module.</td>
 520:/opt/local/avr/include/avr/power.h ****   </tr>
 521:/opt/local/avr/include/avr/power.h **** 
 522:/opt/local/avr/include/avr/power.h ****   <tr>
 523:/opt/local/avr/include/avr/power.h ****     <td>power_vadc_enable()</td>
 524:/opt/local/avr/include/avr/power.h ****     <td>Enable the Voltage ADC module.</td>
 525:/opt/local/avr/include/avr/power.h ****   </tr>
 526:/opt/local/avr/include/avr/power.h **** 
 527:/opt/local/avr/include/avr/power.h ****   <tr>
 528:/opt/local/avr/include/avr/power.h ****     <td>power_vadc_disable()</td>
 529:/opt/local/avr/include/avr/power.h ****     <td>Disable the Voltage ADC module.</td>
 530:/opt/local/avr/include/avr/power.h ****   </tr>
 531:/opt/local/avr/include/avr/power.h **** 
 532:/opt/local/avr/include/avr/power.h ****   <tr>
 533:/opt/local/avr/include/avr/power.h ****     <td>power_all_enable()</td>
 534:/opt/local/avr/include/avr/power.h ****     <td>Enable all modules.</td>
 535:/opt/local/avr/include/avr/power.h ****   </tr>
 536:/opt/local/avr/include/avr/power.h **** 
 537:/opt/local/avr/include/avr/power.h ****   <tr>
 538:/opt/local/avr/include/avr/power.h ****     <td>power_all_disable()</td>
 539:/opt/local/avr/include/avr/power.h ****     <td>Disable all modules.</td>
 540:/opt/local/avr/include/avr/power.h ****   </tr>
 541:/opt/local/avr/include/avr/power.h **** </table>
 542:/opt/local/avr/include/avr/power.h **** </center>
 543:/opt/local/avr/include/avr/power.h **** </small>
 544:/opt/local/avr/include/avr/power.h **** 
 545:/opt/local/avr/include/avr/power.h **** @} */
 546:/opt/local/avr/include/avr/power.h **** 
 547:/opt/local/avr/include/avr/power.h **** #if defined(__AVR_HAVE_PRR_PRADC)
 548:/opt/local/avr/include/avr/power.h **** #define power_adc_enable()      (PRR &= (uint8_t)~(1 << PRADC))
 549:/opt/local/avr/include/avr/power.h **** #define power_adc_disable()     (PRR |= (uint8_t)(1 << PRADC))
 550:/opt/local/avr/include/avr/power.h **** #endif
 551:/opt/local/avr/include/avr/power.h **** 
 552:/opt/local/avr/include/avr/power.h **** #if defined(__AVR_HAVE_PRR_PRCAN)
 553:/opt/local/avr/include/avr/power.h **** #define power_can_enable()      (PRR &= (uint8_t)~(1 << PRCAN))
 554:/opt/local/avr/include/avr/power.h **** #define power_can_disable()     (PRR |= (uint8_t)(1 << PRCAN))
 555:/opt/local/avr/include/avr/power.h **** #endif
 556:/opt/local/avr/include/avr/power.h **** 
 557:/opt/local/avr/include/avr/power.h **** #if defined(__AVR_HAVE_PRR_PRLCD)
 558:/opt/local/avr/include/avr/power.h **** #define power_lcd_enable()      (PRR &= (uint8_t)~(1 << PRLCD))
 559:/opt/local/avr/include/avr/power.h **** #define power_lcd_disable()     (PRR |= (uint8_t)(1 << PRLCD))
 560:/opt/local/avr/include/avr/power.h **** #endif
 561:/opt/local/avr/include/avr/power.h **** 
 562:/opt/local/avr/include/avr/power.h **** #if defined(__AVR_HAVE_PRR_PRLIN)
 563:/opt/local/avr/include/avr/power.h **** #define power_lin_enable()      (PRR &= (uint8_t)~(1 << PRLIN))
 564:/opt/local/avr/include/avr/power.h **** #define power_lin_disable()     (PRR |= (uint8_t)(1 << PRLIN))
 565:/opt/local/avr/include/avr/power.h **** #endif
 566:/opt/local/avr/include/avr/power.h **** 
 567:/opt/local/avr/include/avr/power.h **** #if defined(__AVR_HAVE_PRR_PRPSC)
 568:/opt/local/avr/include/avr/power.h **** #define power_psc_enable()      (PRR &= (uint8_t)~(1 << PRPSC))
 569:/opt/local/avr/include/avr/power.h **** #define power_psc_disable()     (PRR |= (uint8_t)(1 << PRPSC))
 570:/opt/local/avr/include/avr/power.h **** #endif
 571:/opt/local/avr/include/avr/power.h **** 
 572:/opt/local/avr/include/avr/power.h **** #if defined(__AVR_HAVE_PRR_PRPSC0)
 573:/opt/local/avr/include/avr/power.h **** #define power_psc0_enable()     (PRR &= (uint8_t)~(1 << PRPSC0))
 574:/opt/local/avr/include/avr/power.h **** #define power_psc0_disable()    (PRR |= (uint8_t)(1 << PRPSC0))
 575:/opt/local/avr/include/avr/power.h **** #endif
 576:/opt/local/avr/include/avr/power.h **** 
 577:/opt/local/avr/include/avr/power.h **** #if defined(__AVR_HAVE_PRR_PRPSC1)
 578:/opt/local/avr/include/avr/power.h **** #define power_psc1_enable()     (PRR &= (uint8_t)~(1 << PRPSC1))
 579:/opt/local/avr/include/avr/power.h **** #define power_psc1_disable()    (PRR |= (uint8_t)(1 << PRPSC1))
 580:/opt/local/avr/include/avr/power.h **** #endif
 581:/opt/local/avr/include/avr/power.h **** 
 582:/opt/local/avr/include/avr/power.h **** #if defined(__AVR_HAVE_PRR_PRPSC2)
 583:/opt/local/avr/include/avr/power.h **** #define power_psc2_enable()     (PRR &= (uint8_t)~(1 << PRPSC2))
 584:/opt/local/avr/include/avr/power.h **** #define power_psc2_disable()    (PRR |= (uint8_t)(1 << PRPSC2))
 585:/opt/local/avr/include/avr/power.h **** #endif
 586:/opt/local/avr/include/avr/power.h **** 
 587:/opt/local/avr/include/avr/power.h **** #if defined(__AVR_HAVE_PRR_PRSCR)
 588:/opt/local/avr/include/avr/power.h **** #define power_pscr_enable()     (PRR &= (uint8_t)~(1 << PRPSCR))
 589:/opt/local/avr/include/avr/power.h **** #define power_pscr_disable()    (PRR |= (uint8_t)(1 << PRPSCR))
 590:/opt/local/avr/include/avr/power.h **** #endif
 591:/opt/local/avr/include/avr/power.h **** 
 592:/opt/local/avr/include/avr/power.h **** #if defined(__AVR_HAVE_PRR_PRSPI)
 593:/opt/local/avr/include/avr/power.h **** #define power_spi_enable()      (PRR &= (uint8_t)~(1 << PRSPI))
 594:/opt/local/avr/include/avr/power.h **** #define power_spi_disable()     (PRR |= (uint8_t)(1 << PRSPI))
 595:/opt/local/avr/include/avr/power.h **** #endif
 596:/opt/local/avr/include/avr/power.h **** 
 597:/opt/local/avr/include/avr/power.h **** #if defined(__AVR_HAVE_PRR_PRTIM0)
 598:/opt/local/avr/include/avr/power.h **** #define power_timer0_enable()   (PRR &= (uint8_t)~(1 << PRTIM0))
 599:/opt/local/avr/include/avr/power.h **** #define power_timer0_disable()  (PRR |= (uint8_t)(1 << PRTIM0))
 600:/opt/local/avr/include/avr/power.h **** #endif
 601:/opt/local/avr/include/avr/power.h **** 
 602:/opt/local/avr/include/avr/power.h **** #if defined(__AVR_HAVE_PRR_PRTIM1)
 603:/opt/local/avr/include/avr/power.h **** #define power_timer1_enable()   (PRR &= (uint8_t)~(1 << PRTIM1))
 604:/opt/local/avr/include/avr/power.h **** #define power_timer1_disable()  (PRR |= (uint8_t)(1 << PRTIM1))
 605:/opt/local/avr/include/avr/power.h **** #endif
 606:/opt/local/avr/include/avr/power.h **** 
 607:/opt/local/avr/include/avr/power.h **** #if defined(__AVR_HAVE_PRR_PRTIM2)
 608:/opt/local/avr/include/avr/power.h **** #define power_timer2_enable()   (PRR &= (uint8_t)~(1 << PRTIM2))
 609:/opt/local/avr/include/avr/power.h **** #define power_timer2_disable()  (PRR |= (uint8_t)(1 << PRTIM2))
 610:/opt/local/avr/include/avr/power.h **** #endif
 611:/opt/local/avr/include/avr/power.h **** 
 612:/opt/local/avr/include/avr/power.h **** #if defined(__AVR_HAVE_PRR_PRTWI)
 613:/opt/local/avr/include/avr/power.h **** #define power_twi_enable()      (PRR &= (uint8_t)~(1 << PRTWI))
 614:/opt/local/avr/include/avr/power.h **** #define power_twi_disable()     (PRR |= (uint8_t)(1 << PRTWI))
 615:/opt/local/avr/include/avr/power.h **** #endif
 616:/opt/local/avr/include/avr/power.h **** 
 617:/opt/local/avr/include/avr/power.h **** #if defined(__AVR_HAVE_PRR_PRUSART)
 618:/opt/local/avr/include/avr/power.h **** #define power_usart_enable()    (PRR &= (uint8_t)~(1 << PRUSART))
 619:/opt/local/avr/include/avr/power.h **** #define power_usart_disable()   (PRR |= (uint8_t)(1 << PRUSART))
 620:/opt/local/avr/include/avr/power.h **** #endif
 621:/opt/local/avr/include/avr/power.h **** 
 622:/opt/local/avr/include/avr/power.h **** #if defined(__AVR_HAVE_PRR_PRUSART0)
 623:/opt/local/avr/include/avr/power.h **** #define power_usart0_enable()   (PRR &= (uint8_t)~(1 << PRUSART0))
 624:/opt/local/avr/include/avr/power.h **** #define power_usart0_disable()  (PRR |= (uint8_t)(1 << PRUSART0))
 625:/opt/local/avr/include/avr/power.h **** #endif
 626:/opt/local/avr/include/avr/power.h **** 
 627:/opt/local/avr/include/avr/power.h **** #if defined(__AVR_HAVE_PRR_PRUSART1)
 628:/opt/local/avr/include/avr/power.h **** #define power_usart1_enable()   (PRR &= (uint8_t)~(1 << PRUSART1))
 629:/opt/local/avr/include/avr/power.h **** #define power_usart1_disable()  (PRR |= (uint8_t)(1 << PRUSART1))
 630:/opt/local/avr/include/avr/power.h **** #endif
 631:/opt/local/avr/include/avr/power.h **** 
 632:/opt/local/avr/include/avr/power.h **** #if defined(__AVR_HAVE_PRR_PRUSI)
 633:/opt/local/avr/include/avr/power.h **** #define power_usi_enable()      (PRR &= (uint8_t)~(1 << PRUSI))
 634:/opt/local/avr/include/avr/power.h **** #define power_usi_disable()     (PRR |= (uint8_t)(1 << PRUSI))
 635:/opt/local/avr/include/avr/power.h **** #endif
 636:/opt/local/avr/include/avr/power.h **** 
 637:/opt/local/avr/include/avr/power.h **** #if defined(__AVR_HAVE_PRR0_PRADC)
 638:/opt/local/avr/include/avr/power.h **** #define power_adc_enable()      (PRR0 &= (uint8_t)~(1 << PRADC))
 639:/opt/local/avr/include/avr/power.h **** #define power_adc_disable()     (PRR0 |= (uint8_t)(1 << PRADC))
 640:/opt/local/avr/include/avr/power.h **** #endif
 641:/opt/local/avr/include/avr/power.h **** 
 642:/opt/local/avr/include/avr/power.h **** #if defined(__AVR_HAVE_PRR0_PRC0)
 643:/opt/local/avr/include/avr/power.h **** #define power_clock_output_enable()     (PRR0 &= (uint8_t)~(1 << PRCO))
 644:/opt/local/avr/include/avr/power.h **** #define power_clock_output_disable()    (PRR0 |= (uint8_t)(1 << PRCO))
 645:/opt/local/avr/include/avr/power.h **** #endif
 646:/opt/local/avr/include/avr/power.h **** 
 647:/opt/local/avr/include/avr/power.h **** #if defined(__AVR_HAVE_PRR0_PRCRC)
 648:/opt/local/avr/include/avr/power.h **** #define power_crc_enable()              (PRR0 &= (uint8_t)~(1 << PRCRC))
 649:/opt/local/avr/include/avr/power.h **** #define power_crc_disable()             (PRR0 |= (uint8_t)(1 << PRCRC))
 650:/opt/local/avr/include/avr/power.h **** #endif
 651:/opt/local/avr/include/avr/power.h **** 
 652:/opt/local/avr/include/avr/power.h **** #if defined(__AVR_HAVE_PRR0_PRCU)
 653:/opt/local/avr/include/avr/power.h **** #define power_crypto_enable()           (PRR0 &= (uint8_t)~(1 << PRCU))
 654:/opt/local/avr/include/avr/power.h **** #define power_crypto_disable()          (PRR0 |= (uint8_t)(1 << PRCU))
 655:/opt/local/avr/include/avr/power.h **** #endif
 656:/opt/local/avr/include/avr/power.h **** 
 657:/opt/local/avr/include/avr/power.h **** #if defined(__AVR_HAVE_PRR0_PRDS)
 658:/opt/local/avr/include/avr/power.h **** #define power_irdriver_enable()         (PRR0 &= (uint8_t)~(1 << PRDS))
 659:/opt/local/avr/include/avr/power.h **** #define power_irdriver_disable()        (PRR0 |= (uint8_t)(1 << PRDS))
 660:/opt/local/avr/include/avr/power.h **** #endif
 661:/opt/local/avr/include/avr/power.h **** 
 662:/opt/local/avr/include/avr/power.h **** #if defined(__AVR_HAVE_PRR0_PRLFR)
 663:/opt/local/avr/include/avr/power.h **** #define power_lfreceiver_enable()       (PRR0 &= (uint8_t)~(1 << PRLFR))            
 664:/opt/local/avr/include/avr/power.h **** #define power_lfreceiver_disable()      (PRR0 |= (uint8_t)(1 << PRLFR))            
 665:/opt/local/avr/include/avr/power.h **** #endif
 666:/opt/local/avr/include/avr/power.h **** 
 667:/opt/local/avr/include/avr/power.h **** #if defined(__AVR_HAVE_PRR0_PRLIN)
 668:/opt/local/avr/include/avr/power.h **** #define power_lin_enable()              (PRR0 &= (uint8_t)~(1 << PRLIN))
 669:/opt/local/avr/include/avr/power.h **** #define power_lin_disable()             (PRR0 |= (uint8_t)(1 << PRLIN))
 670:/opt/local/avr/include/avr/power.h **** #endif
 671:/opt/local/avr/include/avr/power.h **** 
 672:/opt/local/avr/include/avr/power.h **** #if defined(__AVR_HAVE_PRR0_PRPGA)
 673:/opt/local/avr/include/avr/power.h **** #define power_pga_enable()              (PRR0 &= (uint8_t)~(1 << PRPGA))
 674:/opt/local/avr/include/avr/power.h **** #define power_pga_disable()             (PRR0 |= (uint8_t)(1 << PRPGA))
 675:/opt/local/avr/include/avr/power.h **** #endif
 676:/opt/local/avr/include/avr/power.h **** 
 677:/opt/local/avr/include/avr/power.h **** #if defined(__AVR_HAVE_PRR0_PRRXDC)
 678:/opt/local/avr/include/avr/power.h **** #define power_receive_dsp_control_enable()  (PRR0 &= (uint8_t)~(1 << PRRXDC))
 679:/opt/local/avr/include/avr/power.h **** #define power_receive_dsp_control_disable() (PRR0 |= (uint8_t)(1 << PRRXDC))
 680:/opt/local/avr/include/avr/power.h **** #endif
 681:/opt/local/avr/include/avr/power.h **** 
 682:/opt/local/avr/include/avr/power.h **** #if defined(__AVR_HAVE_PRR0_PRSPI)
 683:/opt/local/avr/include/avr/power.h **** #define power_spi_enable()              (PRR0 &= (uint8_t)~(1 << PRSPI))
 684:/opt/local/avr/include/avr/power.h **** #define power_spi_disable()             (PRR0 |= (uint8_t)(1 << PRSPI))
 685:/opt/local/avr/include/avr/power.h **** #endif
 686:/opt/local/avr/include/avr/power.h **** 
 687:/opt/local/avr/include/avr/power.h **** #if defined(__AVR_HAVE_PRR0_PRT0)
 688:/opt/local/avr/include/avr/power.h **** #define power_timer0_enable()           (PRR0 &= (uint8_t)~(1 << PRT0))
 689:/opt/local/avr/include/avr/power.h **** #define power_timer0_disable()          (PRR0 |= (uint8_t)(1 << PRT0))
 690:/opt/local/avr/include/avr/power.h **** #endif
 691:/opt/local/avr/include/avr/power.h **** 
 692:/opt/local/avr/include/avr/power.h **** #if defined(__AVR_HAVE_PRR0_PRTIM0)
 693:/opt/local/avr/include/avr/power.h **** #define power_timer0_enable()           (PRR0 &= (uint8_t)~(1 << PRTIM0))
 694:/opt/local/avr/include/avr/power.h **** #define power_timer0_disable()          (PRR0 |= (uint8_t)(1 << PRTIM0))
 695:/opt/local/avr/include/avr/power.h **** #endif
 696:/opt/local/avr/include/avr/power.h **** 
 697:/opt/local/avr/include/avr/power.h **** #if defined(__AVR_HAVE_PRR0_PRT1)
 698:/opt/local/avr/include/avr/power.h **** #define power_timer1_enable()           (PRR0 &= (uint8_t)~(1 << PRT1))
 699:/opt/local/avr/include/avr/power.h **** #define power_timer1_disable()          (PRR0 |= (uint8_t)(1 << PRT1))
 700:/opt/local/avr/include/avr/power.h **** #endif
 701:/opt/local/avr/include/avr/power.h **** 
 702:/opt/local/avr/include/avr/power.h **** #if defined(__AVR_HAVE_PRR0_PRTIM1)
 703:/opt/local/avr/include/avr/power.h **** #define power_timer1_enable()           (PRR0 &= (uint8_t)~(1 << PRTIM1))
 704:/opt/local/avr/include/avr/power.h **** #define power_timer1_disable()          (PRR0 |= (uint8_t)(1 << PRTIM1))
 705:/opt/local/avr/include/avr/power.h **** #endif
 706:/opt/local/avr/include/avr/power.h **** 
 707:/opt/local/avr/include/avr/power.h **** #if defined(__AVR_HAVE_PRR0_PRT2)
 708:/opt/local/avr/include/avr/power.h **** #define power_timer2_enable()           (PRR0 &= (uint8_t)~(1 << PRT2))
 709:/opt/local/avr/include/avr/power.h **** #define power_timer2_disable()          (PRR0 |= (uint8_t)(1 << PRT2))
 710:/opt/local/avr/include/avr/power.h **** #endif
 711:/opt/local/avr/include/avr/power.h **** 
 712:/opt/local/avr/include/avr/power.h **** #if defined(__AVR_HAVE_PRR0_PRTIM2)
 713:/opt/local/avr/include/avr/power.h **** #define power_timer2_enable()           (PRR0 &= (uint8_t)~(1 << PRTIM2))
 714:/opt/local/avr/include/avr/power.h **** #define power_timer2_disable()          (PRR0 |= (uint8_t)(1 << PRTIM2))
 715:/opt/local/avr/include/avr/power.h **** #endif
 716:/opt/local/avr/include/avr/power.h **** 
 717:/opt/local/avr/include/avr/power.h **** #if defined(__AVR_HAVE_PRR0_PRT3)
 718:/opt/local/avr/include/avr/power.h **** #define power_timer3_enable()           (PRR0 &= (uint8_t)~(1 << PRT3))
 719:/opt/local/avr/include/avr/power.h **** #define power_timer3_disable()          (PRR0 |= (uint8_t)(1 << PRT3))
 720:/opt/local/avr/include/avr/power.h **** #endif
 721:/opt/local/avr/include/avr/power.h **** 
 722:/opt/local/avr/include/avr/power.h **** #if defined(__AVR_HAVE_PRR0_PRTM)
 723:/opt/local/avr/include/avr/power.h **** #define power_timermodulator_enable()   (PRR0 &= (uint8_t)~(1 << PRTM))
 724:/opt/local/avr/include/avr/power.h **** #define power_timermodulator_disable()  (PRR0 |= (uint8_t)(1 << PRTM))
 725:/opt/local/avr/include/avr/power.h **** #endif
 726:/opt/local/avr/include/avr/power.h **** 
 727:/opt/local/avr/include/avr/power.h **** #if defined(__AVR_HAVE_PRR0_PRTWI)
 728:/opt/local/avr/include/avr/power.h **** #define power_twi_enable()              (PRR0 &= (uint8_t)~(1 << PRTWI))
 729:/opt/local/avr/include/avr/power.h **** #define power_twi_disable()             (PRR0 |= (uint8_t)(1 << PRTWI))
 730:/opt/local/avr/include/avr/power.h **** #endif
 731:/opt/local/avr/include/avr/power.h **** 
 732:/opt/local/avr/include/avr/power.h **** #if defined(__AVR_HAVE_PRR0_PRTXDC)
 733:/opt/local/avr/include/avr/power.h **** #define power_transmit_dsp_control_enable()   (PRR0 &= (uint8_t)~(1 << PRTXDC))
 734:/opt/local/avr/include/avr/power.h **** #define power_transmit_dsp_control_disable()  (PRR0 |= (uint8_t)(1 << PRTXDC))
 735:/opt/local/avr/include/avr/power.h **** #endif
 736:/opt/local/avr/include/avr/power.h **** 
 737:/opt/local/avr/include/avr/power.h **** #if defined(__AVR_HAVE_PRR0_PRUSART0)
 738:/opt/local/avr/include/avr/power.h **** #define power_usart0_enable()           (PRR0 &= (uint8_t)~(1 << PRUSART0))
 739:/opt/local/avr/include/avr/power.h **** #define power_usart0_disable()          (PRR0 |= (uint8_t)(1 << PRUSART0))
 740:/opt/local/avr/include/avr/power.h **** #endif
 741:/opt/local/avr/include/avr/power.h **** 
 742:/opt/local/avr/include/avr/power.h **** #if defined(__AVR_HAVE_PRR0_PRUSART1)
 743:/opt/local/avr/include/avr/power.h **** #define power_usart1_enable()           (PRR0 &= (uint8_t)~(1 << PRUSART1))
 744:/opt/local/avr/include/avr/power.h **** #define power_usart1_disable()          (PRR0 |= (uint8_t)(1 << PRUSART1))
 745:/opt/local/avr/include/avr/power.h **** #endif
 746:/opt/local/avr/include/avr/power.h **** 
 747:/opt/local/avr/include/avr/power.h **** #if defined(__AVR_HAVE_PRR0_PRVADC)
 748:/opt/local/avr/include/avr/power.h **** #define power_vadc_enable()             (PRR0 &= (uint8_t)~(1 << PRVADC))
 749:/opt/local/avr/include/avr/power.h **** #define power_vadc_disable()            (PRR0 |= (uint8_t)(1 << PRVADC))
 750:/opt/local/avr/include/avr/power.h **** #endif
 751:/opt/local/avr/include/avr/power.h **** 
 752:/opt/local/avr/include/avr/power.h **** #if defined(__AVR_HAVE_PRR0_PRVM)
 753:/opt/local/avr/include/avr/power.h **** #define power_voltage_monitor_enable()  (PRR0 &= (uint8_t)~(1 << PRVM))
 754:/opt/local/avr/include/avr/power.h **** #define power_voltage_monitor_disable() (PRR0 |= (uint8_t)(1 << PRVM))
 755:/opt/local/avr/include/avr/power.h **** #endif
 756:/opt/local/avr/include/avr/power.h **** 
 757:/opt/local/avr/include/avr/power.h **** #if defined(__AVR_HAVE_PRR0_PRVRM)
 758:/opt/local/avr/include/avr/power.h **** #define power_vrm_enable()              (PRR0 &= (uint8_t)~(1 << PRVRM))
 759:/opt/local/avr/include/avr/power.h **** #define power_vrm_disable()             (PRR0 |= (uint8_t)(1 << PRVRM))
 760:/opt/local/avr/include/avr/power.h **** #endif
 761:/opt/local/avr/include/avr/power.h **** 
 762:/opt/local/avr/include/avr/power.h **** #if defined(__AVR_HAVE_PRR1_PRAES)
 763:/opt/local/avr/include/avr/power.h **** #define power_aes_enable()              (PRR1 &= (uint8_t)~(1 << PRAES))
 764:/opt/local/avr/include/avr/power.h **** #define power_aes_disable()             (PRR1 |= (uint8_t)(1 << PRAES))
 765:/opt/local/avr/include/avr/power.h **** #endif
 766:/opt/local/avr/include/avr/power.h **** 
 767:/opt/local/avr/include/avr/power.h **** #if defined(__AVR_HAVE_PRR1_PRCI)
 768:/opt/local/avr/include/avr/power.h **** #define power_cinterface_enable()       (PRR1 &= (uint8_t)~(1 << PRCI))
 769:/opt/local/avr/include/avr/power.h **** #define power_cinterface_disable()      (PRR1 |= (uint8_t)(1 << PRCI))
 770:/opt/local/avr/include/avr/power.h **** #endif
 771:/opt/local/avr/include/avr/power.h **** 
 772:/opt/local/avr/include/avr/power.h **** #if defined(__AVR_HAVE_PRR1_PRHSSPI)
 773:/opt/local/avr/include/avr/power.h **** #define power_hsspi_enable()            (PRR1 &= (uint8_t)~(1 << PRHSSPI))
 774:/opt/local/avr/include/avr/power.h **** #define power_hsspi_disable()           (PRR1 |= (uint8_t)(1 << PRHSSPI))
 775:/opt/local/avr/include/avr/power.h **** #endif
 776:/opt/local/avr/include/avr/power.h **** 
 777:/opt/local/avr/include/avr/power.h **** #if defined(__AVR_HAVE_PRR1_PRKB)
 778:/opt/local/avr/include/avr/power.h **** #define power_kb_enable()               (PRR1 &= (uint8_t)~(1 << PRKB))
 779:/opt/local/avr/include/avr/power.h **** #define power_kb_disable()              (PRR1 |= (uint8_t)(1 << PRKB))
 780:/opt/local/avr/include/avr/power.h **** #endif
 781:/opt/local/avr/include/avr/power.h **** 
 782:/opt/local/avr/include/avr/power.h **** #if defined(__AVR_HAVE_PRR1_PRLFR)
 783:/opt/local/avr/include/avr/power.h **** #define power_lfreceiver_enable()       (PRR1 &= (uint8_t)~(1 << PRLFR))            
 784:/opt/local/avr/include/avr/power.h **** #define power_lfreceiver_disable()      (PRR1 |= (uint8_t)(1 << PRLFR))            
 785:/opt/local/avr/include/avr/power.h **** #endif
 786:/opt/local/avr/include/avr/power.h **** 
 787:/opt/local/avr/include/avr/power.h **** #if defined(__AVR_HAVE_PRR1_PRSCI)
 788:/opt/local/avr/include/avr/power.h **** #define power_sci_enable()              (PRR1 &= (uint8_t)~(1 << PRSCI))
 789:/opt/local/avr/include/avr/power.h **** #define power_sci_disable()             (PRR1 |= (uint8_t)(1 << PRSCI))
 790:/opt/local/avr/include/avr/power.h **** #endif
 791:/opt/local/avr/include/avr/power.h **** 
 792:/opt/local/avr/include/avr/power.h **** #if defined(__AVR_HAVE_PRR1_PRT1)
 793:/opt/local/avr/include/avr/power.h **** #define power_timer1_enable()           (PRR1 &= (uint8_t)~(1 << PRT1))
 794:/opt/local/avr/include/avr/power.h **** #define power_timer1_disable()          (PRR1 |= (uint8_t)(1 << PRT1))
 795:/opt/local/avr/include/avr/power.h **** #endif
 796:/opt/local/avr/include/avr/power.h **** 
 797:/opt/local/avr/include/avr/power.h **** #if defined(__AVR_HAVE_PRR1_PRT2)
 798:/opt/local/avr/include/avr/power.h **** #define power_timer2_enable()           (PRR1 &= (uint8_t)~(1 << PRT2))
 799:/opt/local/avr/include/avr/power.h **** #define power_timer2_disable()          (PRR1 |= (uint8_t)(1 << PRT2))
 800:/opt/local/avr/include/avr/power.h **** #endif
 801:/opt/local/avr/include/avr/power.h **** 
 802:/opt/local/avr/include/avr/power.h **** #if defined(__AVR_HAVE_PRR1_PRT3)
 803:/opt/local/avr/include/avr/power.h **** #define power_timer3_enable()           (PRR1 &= (uint8_t)~(1 << PRT3))
 804:/opt/local/avr/include/avr/power.h **** #define power_timer3_disable()          (PRR1 |= (uint8_t)(1 << PRT3))
 805:/opt/local/avr/include/avr/power.h **** #endif
 806:/opt/local/avr/include/avr/power.h **** 
 807:/opt/local/avr/include/avr/power.h **** #if defined(__AVR_HAVE_PRR1_PRT4)
 808:/opt/local/avr/include/avr/power.h **** #define power_timer4_enable()           (PRR1 &= (uint8_t)~(1 << PRT4))
 809:/opt/local/avr/include/avr/power.h **** #define power_timer4_disable()          (PRR1 |= (uint8_t)(1 << PRT4))
 810:/opt/local/avr/include/avr/power.h **** #endif
 811:/opt/local/avr/include/avr/power.h **** 
 812:/opt/local/avr/include/avr/power.h **** #if defined(__AVR_HAVE_PRR1_PRT5)
 813:/opt/local/avr/include/avr/power.h **** #define power_timer5_enable()           (PRR1 &= (uint8_t)~(1 << PRT5))
 814:/opt/local/avr/include/avr/power.h **** #define power_timer5_disable()          (PRR1 |= (uint8_t)(1 << PRT5))
 815:/opt/local/avr/include/avr/power.h **** #endif
 816:/opt/local/avr/include/avr/power.h **** 
 817:/opt/local/avr/include/avr/power.h **** #if defined(__AVR_HAVE_PRR1_PRTIM3)
 818:/opt/local/avr/include/avr/power.h **** #define power_timer3_enable()           (PRR1 &= (uint8_t)~(1 << PRTIM3))
 819:/opt/local/avr/include/avr/power.h **** #define power_timer3_disable()          (PRR1 |= (uint8_t)(1 << PRTIM3))
 820:/opt/local/avr/include/avr/power.h **** #endif
 821:/opt/local/avr/include/avr/power.h **** 
 822:/opt/local/avr/include/avr/power.h **** #if defined(__AVR_HAVE_PRR1_PRTIM4)
 823:/opt/local/avr/include/avr/power.h **** #define power_timer4_enable()           (PRR1 &= (uint8_t)~(1 << PRTIM4))
 824:/opt/local/avr/include/avr/power.h **** #define power_timer4_disable()          (PRR1 |= (uint8_t)(1 << PRTIM4))
 825:/opt/local/avr/include/avr/power.h **** #endif
 826:/opt/local/avr/include/avr/power.h **** 
 827:/opt/local/avr/include/avr/power.h **** #if defined(__AVR_HAVE_PRR1_PRTIM5)
 828:/opt/local/avr/include/avr/power.h **** #define power_timer5_enable()           (PRR1 &= (uint8_t)~(1 << PRTIM5))
 829:/opt/local/avr/include/avr/power.h **** #define power_timer5_disable()          (PRR1 |= (uint8_t)(1 << PRTIM5))
 830:/opt/local/avr/include/avr/power.h **** #endif
 831:/opt/local/avr/include/avr/power.h **** 
 832:/opt/local/avr/include/avr/power.h **** #if defined(__AVR_HAVE_PRR1_PRTRX24)
 833:/opt/local/avr/include/avr/power.h **** #define power_transceiver_enable()      (PRR1 &= (uint8_t)~(1 << PRTRX24))
 834:/opt/local/avr/include/avr/power.h **** #define power_transceiver_disable()     (PRR1 |= (uint8_t)(1 << PRTRX24))
 835:/opt/local/avr/include/avr/power.h **** #endif
 836:/opt/local/avr/include/avr/power.h **** 
 837:/opt/local/avr/include/avr/power.h **** #if defined(__AVR_HAVE_PRR1_PRUSART1)
 838:/opt/local/avr/include/avr/power.h **** #define power_usart1_enable()           (PRR1 &= (uint8_t)~(1 << PRUSART1))
 839:/opt/local/avr/include/avr/power.h **** #define power_usart1_disable()          (PRR1 |= (uint8_t)(1 << PRUSART1))
 840:/opt/local/avr/include/avr/power.h **** #endif
 841:/opt/local/avr/include/avr/power.h **** 
 842:/opt/local/avr/include/avr/power.h **** #if defined(__AVR_HAVE_PRR1_PRUSART2)
 843:/opt/local/avr/include/avr/power.h **** #define power_usart2_enable()           (PRR1 &= (uint8_t)~(1 << PRUSART2))
 844:/opt/local/avr/include/avr/power.h **** #define power_usart2_disable()          (PRR1 |= (uint8_t)(1 << PRUSART2))
 845:/opt/local/avr/include/avr/power.h **** #endif
 846:/opt/local/avr/include/avr/power.h **** 
 847:/opt/local/avr/include/avr/power.h **** #if defined(__AVR_HAVE_PRR1_PRUSB)
 848:/opt/local/avr/include/avr/power.h **** #define power_usb_enable()              (PRR1 &= (uint8_t)~(1 << PRUSB))
 849:/opt/local/avr/include/avr/power.h **** #define power_usb_disable()             (PRR1 |= (uint8_t)(1 << PRUSB))
 850:/opt/local/avr/include/avr/power.h **** #endif
 851:/opt/local/avr/include/avr/power.h **** 
 852:/opt/local/avr/include/avr/power.h **** #if defined(__AVR_HAVE_PRR1_PRUSBH)
 853:/opt/local/avr/include/avr/power.h **** #define power_usbh_enable()             (PRR1 &= (uint8_t)~(1 << PRUSBH))
 854:/opt/local/avr/include/avr/power.h **** #define power_usbh_disable()            (PRR1 |= (uint8_t)(1 << PRUSBH))
 855:/opt/local/avr/include/avr/power.h **** #endif
 856:/opt/local/avr/include/avr/power.h **** 
 857:/opt/local/avr/include/avr/power.h **** #if defined(__AVR_HAVE_PRR2_PRDF)
 858:/opt/local/avr/include/avr/power.h **** #define power_data_fifo_enable()        (PRR2 &= (uint8_t)~(1 << PRDF))
 859:/opt/local/avr/include/avr/power.h **** #define power_data_fifo_disable()       (PRR2 |= (uint8_t)(1 << PRDF))
 860:/opt/local/avr/include/avr/power.h **** #endif
 861:/opt/local/avr/include/avr/power.h **** 
 862:/opt/local/avr/include/avr/power.h **** #if defined(__AVR_HAVE_PRR2_PRIDS)
 863:/opt/local/avr/include/avr/power.h **** #define power_id_scan_enable()          (PRR2 &= (uint8_t)~(1 << PRIDS))
 864:/opt/local/avr/include/avr/power.h **** #define power_id_scan_disable()         (PRR2 |= (uint8_t)(1 << PRIDS))
 865:/opt/local/avr/include/avr/power.h **** #endif
 866:/opt/local/avr/include/avr/power.h **** 
 867:/opt/local/avr/include/avr/power.h **** #if defined(__AVR_HAVE_PRR2_PRRAM0)
 868:/opt/local/avr/include/avr/power.h **** #define power_ram0_enable()             (PRR2 &= (uint8_t)~(1 << PRRAM0))
 869:/opt/local/avr/include/avr/power.h **** #define power_ram0_disable()            (PRR2 |= (uint8_t)(1 << PRRAM0))
 870:/opt/local/avr/include/avr/power.h **** #endif
 871:/opt/local/avr/include/avr/power.h **** 
 872:/opt/local/avr/include/avr/power.h **** #if defined(__AVR_HAVE_PRR2_PRRAM1)
 873:/opt/local/avr/include/avr/power.h **** #define power_ram1_enable()             (PRR2 &= (uint8_t)~(1 << PRRAM1))
 874:/opt/local/avr/include/avr/power.h **** #define power_ram1_disable()            (PRR2 |= (uint8_t)(1 << PRRAM1))
 875:/opt/local/avr/include/avr/power.h **** #endif
 876:/opt/local/avr/include/avr/power.h **** 
 877:/opt/local/avr/include/avr/power.h **** #if defined(__AVR_HAVE_PRR2_PRRAM2)
 878:/opt/local/avr/include/avr/power.h **** #define power_ram2_enable()             (PRR2 &= (uint8_t)~(1 << PRRAM2))
 879:/opt/local/avr/include/avr/power.h **** #define power_ram2_disable()            (PRR2 |= (uint8_t)(1 << PRRAM2))
 880:/opt/local/avr/include/avr/power.h **** #endif
 881:/opt/local/avr/include/avr/power.h **** 
 882:/opt/local/avr/include/avr/power.h **** #if defined(__AVR_HAVE_PRR2_PRRAM3)
 883:/opt/local/avr/include/avr/power.h **** #define power_ram3_enable()             (PRR2 &= (uint8_t)~(1 << PRRAM3))
 884:/opt/local/avr/include/avr/power.h **** #define power_ram3_disable()            (PRR2 |= (uint8_t)(1 << PRRAM3))
 885:/opt/local/avr/include/avr/power.h **** #endif
 886:/opt/local/avr/include/avr/power.h **** 
 887:/opt/local/avr/include/avr/power.h **** #if defined(__AVR_HAVE_PRR2_PRRS)
 888:/opt/local/avr/include/avr/power.h **** #define power_rssi_buffer_enable()      (PRR2 &= (uint8_t)~(1 << PRRS))
 889:/opt/local/avr/include/avr/power.h **** #define power_rssi_buffer_disable()     (PRR2 |= (uint8_t)(1 << PRRS))
 890:/opt/local/avr/include/avr/power.h **** #endif
 891:/opt/local/avr/include/avr/power.h **** 
 892:/opt/local/avr/include/avr/power.h **** #if defined(__AVR_HAVE_PRR2_PRSF)
 893:/opt/local/avr/include/avr/power.h **** #define power_preamble_rssi_fifo_enable()       (PRR2 &= (uint8_t)~(1 << PRSF))
 894:/opt/local/avr/include/avr/power.h **** #define power_preamble_rssi_fifo_disable()      (PRR2 |= (uint8_t)(1 << PRSF))
 895:/opt/local/avr/include/avr/power.h **** #endif
 896:/opt/local/avr/include/avr/power.h **** 
 897:/opt/local/avr/include/avr/power.h **** #if defined(__AVR_HAVE_PRR2_PRSSM)
 898:/opt/local/avr/include/avr/power.h **** #define power_sequencer_state_machine_enable()  (PRR2 &= (uint8_t)~(1 << PRSSM))
 899:/opt/local/avr/include/avr/power.h **** #define power_sequencer_state_machine_disable() (PRR2 |= (uint8_t)(1 << PRSSM))
 900:/opt/local/avr/include/avr/power.h **** #endif
 901:/opt/local/avr/include/avr/power.h **** 
 902:/opt/local/avr/include/avr/power.h **** #if defined(__AVR_HAVE_PRR2_PRTM)
 903:/opt/local/avr/include/avr/power.h **** #define power_tx_modulator_enable()     (PRR2 &= (uint8_t)~(1 << PRTM))
 904:/opt/local/avr/include/avr/power.h **** #define power_tx_modulator_disable()    (PRR2 |= (uint8_t)(1 << PRTM))
 905:/opt/local/avr/include/avr/power.h **** #endif
 906:/opt/local/avr/include/avr/power.h **** 
 907:/opt/local/avr/include/avr/power.h **** #if defined(__AVR_HAVE_PRR2_PRXA)
 908:/opt/local/avr/include/avr/power.h **** #define power_rx_buffer_A_enable()      (PRR2 &= (uint8_t)~(1 << PRXA))
 909:/opt/local/avr/include/avr/power.h **** #define power_rx_buffer_A_disable()     (PRR2 |= (uint8_t)(1 << PRXA))
 910:/opt/local/avr/include/avr/power.h **** #endif
 911:/opt/local/avr/include/avr/power.h **** 
 912:/opt/local/avr/include/avr/power.h **** #if defined(__AVR_HAVE_PRR2_PRXB)
 913:/opt/local/avr/include/avr/power.h **** #define power_rx_buffer_B_enable()      (PRR2 &= (uint8_t)~(1 << PRXB))
 914:/opt/local/avr/include/avr/power.h **** #define power_rx_buffer_B_disable()     (PRR2 |= (uint8_t)(1 << PRXB))
 915:/opt/local/avr/include/avr/power.h **** #endif
 916:/opt/local/avr/include/avr/power.h **** 
 917:/opt/local/avr/include/avr/power.h **** #if defined(__AVR_HAVE_PRGEN_AES)
 918:/opt/local/avr/include/avr/power.h **** #define power_aes_enable()              (PR_PRGEN &= (uint8_t)~(PR_AES_bm))
 919:/opt/local/avr/include/avr/power.h **** #define power_aes_disable()             (PR_PRGEN |= (uint8_t)PR_AES_bm)
 920:/opt/local/avr/include/avr/power.h **** #endif
 921:/opt/local/avr/include/avr/power.h **** 
 922:/opt/local/avr/include/avr/power.h **** #if defined(__AVR_HAVE_PRGEN_DMA)
 923:/opt/local/avr/include/avr/power.h **** #define power_dma_enable()              (PR_PRGEN &= (uint8_t)~(PR_DMA_bm))
 924:/opt/local/avr/include/avr/power.h **** #define power_dma_disable()             (PR_PRGEN |= (uint8_t)PR_DMA_bm)
 925:/opt/local/avr/include/avr/power.h **** #endif
 926:/opt/local/avr/include/avr/power.h **** 
 927:/opt/local/avr/include/avr/power.h **** #if defined(__AVR_HAVE_PRGEN_EBI)
 928:/opt/local/avr/include/avr/power.h **** #define power_ebi_enable()              (PR_PRGEN &= (uint8_t)~(PR_EBI_bm))
 929:/opt/local/avr/include/avr/power.h **** #define power_ebi_disable()             (PR_PRGEN |= (uint8_t)PR_EBI_bm)
 930:/opt/local/avr/include/avr/power.h **** #endif
 931:/opt/local/avr/include/avr/power.h **** 
 932:/opt/local/avr/include/avr/power.h **** #if defined(__AVR_HAVE_PRGEN_EDMA)
 933:/opt/local/avr/include/avr/power.h **** #define power_edma_enable()             (PR_PRGEN &= (uint8_t)~(PR_EDMA_bm))
 934:/opt/local/avr/include/avr/power.h **** #define power_edma_disable()            (PR_PRGEN |= (uint8_t)PR_EDMA_bm)
 935:/opt/local/avr/include/avr/power.h **** #endif
 936:/opt/local/avr/include/avr/power.h **** 
 937:/opt/local/avr/include/avr/power.h **** #if defined(__AVR_HAVE_PRGEN_EVSYS)
 938:/opt/local/avr/include/avr/power.h **** #define power_evsys_enable()            (PR_PRGEN &= (uint8_t)~(PR_EVSYS_bm))
 939:/opt/local/avr/include/avr/power.h **** #define power_evsys_disable()           (PR_PRGEN |= (uint8_t)PR_EVSYS_bm)
 940:/opt/local/avr/include/avr/power.h **** #endif
 941:/opt/local/avr/include/avr/power.h **** 
 942:/opt/local/avr/include/avr/power.h **** #if defined(__AVR_HAVE_PRGEN_LCD)
 943:/opt/local/avr/include/avr/power.h **** #define power_lcd_enable()              (PR_PRGEN &= (uint8_t)~(PR_LCD_bm))
 944:/opt/local/avr/include/avr/power.h **** #define power_lcd_disable()             (PR_PRGEN |= (uint8_t)PR_LCD_bm)
 945:/opt/local/avr/include/avr/power.h **** #endif
 946:/opt/local/avr/include/avr/power.h **** 
 947:/opt/local/avr/include/avr/power.h **** #if defined(__AVR_HAVE_PRGEN_RTC)
 948:/opt/local/avr/include/avr/power.h **** #define power_rtc_enable()              (PR_PRGEN &= (uint8_t)~(PR_RTC_bm))
 949:/opt/local/avr/include/avr/power.h **** #define power_rtc_disable()             (PR_PRGEN |= (uint8_t)PR_RTC_bm)
 950:/opt/local/avr/include/avr/power.h **** #endif
 951:/opt/local/avr/include/avr/power.h **** 
 952:/opt/local/avr/include/avr/power.h **** #if defined(__AVR_HAVE_PRGEN_USB)
 953:/opt/local/avr/include/avr/power.h **** #define power_usb_enable()              (PR_PRGEN &= (uint8_t)~(PR_USB_bm))
 954:/opt/local/avr/include/avr/power.h **** #define power_usb_disable()             (PR_PRGEN &= (uint8_t)(PR_USB_bm))
 955:/opt/local/avr/include/avr/power.h **** #endif
 956:/opt/local/avr/include/avr/power.h **** 
 957:/opt/local/avr/include/avr/power.h **** #if defined(__AVR_HAVE_PRGEN_XCL)
 958:/opt/local/avr/include/avr/power.h **** #define power_xcl_enable()              (PR_PRGEN &= (uint8_t)~(PR_XCL_bm))
 959:/opt/local/avr/include/avr/power.h **** #define power_xcl_disable()             (PR_PRGEN |= (uint8_t)PR_XCL_bm)
 960:/opt/local/avr/include/avr/power.h **** #endif
 961:/opt/local/avr/include/avr/power.h **** 
 962:/opt/local/avr/include/avr/power.h **** #if defined(__AVR_HAVE_PRPA_AC)
 963:/opt/local/avr/include/avr/power.h **** #define power_aca_enable()      (PR_PRPA &= (uint8_t)~(PR_AC_bm))
 964:/opt/local/avr/include/avr/power.h **** #define power_aca_disable()     (PR_PRPA |= (uint8_t)PR_AC_bm)
 965:/opt/local/avr/include/avr/power.h **** #endif
 966:/opt/local/avr/include/avr/power.h **** 
 967:/opt/local/avr/include/avr/power.h **** #if defined(__AVR_HAVE_PRPA_ADC)
 968:/opt/local/avr/include/avr/power.h **** #define power_adca_enable()     (PR_PRPA &= (uint8_t)~(PR_ADC_bm))
 969:/opt/local/avr/include/avr/power.h **** #define power_adca_disable()    (PR_PRPA |= (uint8_t)PR_ADC_bm)
 970:/opt/local/avr/include/avr/power.h **** #endif
 971:/opt/local/avr/include/avr/power.h **** 
 972:/opt/local/avr/include/avr/power.h **** #if defined(__AVR_HAVE_PRPA_DAC)
 973:/opt/local/avr/include/avr/power.h **** #define power_daca_enable()     (PR_PRPA &= (uint8_t)~(PR_DAC_bm))
 974:/opt/local/avr/include/avr/power.h **** #define power_daca_disable()    (PR_PRPA |= (uint8_t)PR_DAC_bm)
 975:/opt/local/avr/include/avr/power.h **** #endif
 976:/opt/local/avr/include/avr/power.h **** 
 977:/opt/local/avr/include/avr/power.h **** #if defined(__AVR_HAVE_PRPB_AC)
 978:/opt/local/avr/include/avr/power.h **** #define power_acb_enable()      (PR_PRPB &= (uint8_t)~(PR_AC_bm))
 979:/opt/local/avr/include/avr/power.h **** #define power_acb_disable()     (PR_PRPB |= (uint8_t)PR_AC_bm)
 980:/opt/local/avr/include/avr/power.h **** #endif
 981:/opt/local/avr/include/avr/power.h **** 
 982:/opt/local/avr/include/avr/power.h **** #if defined(__AVR_HAVE_PRPB_ADC)
 983:/opt/local/avr/include/avr/power.h **** #define power_adcb_enable()     (PR_PRPB &= (uint8_t)~(PR_ADC_bm))
 984:/opt/local/avr/include/avr/power.h **** #define power_adcb_disable()    (PR_PRPB |= (uint8_t)PR_ADC_bm)
 985:/opt/local/avr/include/avr/power.h **** #endif
 986:/opt/local/avr/include/avr/power.h **** 
 987:/opt/local/avr/include/avr/power.h **** #if defined(__AVR_HAVE_PRPB_DAC)
 988:/opt/local/avr/include/avr/power.h **** #define power_dacb_enable()     (PR_PRPB &= (uint8_t)~(PR_DAC_bm))
 989:/opt/local/avr/include/avr/power.h **** #define power_dacb_disable()    (PR_PRPB |= (uint8_t)PR_DAC_bm)
 990:/opt/local/avr/include/avr/power.h **** #endif
 991:/opt/local/avr/include/avr/power.h **** 
 992:/opt/local/avr/include/avr/power.h **** #if defined(__AVR_HAVE_PRPC_HIRES)
 993:/opt/local/avr/include/avr/power.h **** #define power_hiresc_enable()   (PR_PRPC &= (uint8_t)~(PR_HIRES_bm))
 994:/opt/local/avr/include/avr/power.h **** #define power_hiresc_disable()  (PR_PRPC |= (uint8_t)PR_HIRES_bm)
 995:/opt/local/avr/include/avr/power.h **** #endif
 996:/opt/local/avr/include/avr/power.h **** 
 997:/opt/local/avr/include/avr/power.h **** #if defined(__AVR_HAVE_PRPC_SPI)
 998:/opt/local/avr/include/avr/power.h **** #define power_spic_enable()     (PR_PRPC &= (uint8_t)~(PR_SPI_bm))
 999:/opt/local/avr/include/avr/power.h **** #define power_spic_disable()    (PR_PRPC |= (uint8_t)PR_SPI_bm)
1000:/opt/local/avr/include/avr/power.h **** #endif
1001:/opt/local/avr/include/avr/power.h **** 
1002:/opt/local/avr/include/avr/power.h **** #if defined(__AVR_HAVE_PRPC_TC0)
1003:/opt/local/avr/include/avr/power.h **** #define power_tc0c_enable()     (PR_PRPC &= (uint8_t)~(PR_TC0_bm))
1004:/opt/local/avr/include/avr/power.h **** #define power_tc0c_disable()    (PR_PRPC |= (uint8_t)PR_TC0_bm)
1005:/opt/local/avr/include/avr/power.h **** #endif
1006:/opt/local/avr/include/avr/power.h **** 
1007:/opt/local/avr/include/avr/power.h **** #if defined(__AVR_HAVE_PRPC_TC1)
1008:/opt/local/avr/include/avr/power.h **** #define power_tc1c_enable()     (PR_PRPC &= (uint8_t)~(PR_TC1_bm))
1009:/opt/local/avr/include/avr/power.h **** #define power_tc1c_disable()    (PR_PRPC |= (uint8_t)PR_TC1_bm)
1010:/opt/local/avr/include/avr/power.h **** #endif
1011:/opt/local/avr/include/avr/power.h **** 
1012:/opt/local/avr/include/avr/power.h **** #if defined(__AVR_HAVE_PRPC_TC4)
1013:/opt/local/avr/include/avr/power.h **** #define power_tc4c_enable()     (PR_PRPC  &= (uint8_t)~(PR_TC4_bm))
1014:/opt/local/avr/include/avr/power.h **** #define power_tc4c_disable()    (PR_PRPC  |= (uint8_t)PR_TC4_bm)
1015:/opt/local/avr/include/avr/power.h **** #endif
1016:/opt/local/avr/include/avr/power.h **** 
1017:/opt/local/avr/include/avr/power.h **** #if defined(__AVR_HAVE_PRPC_TC5)
1018:/opt/local/avr/include/avr/power.h **** #define power_tc5c_enable()     (PR_PRPC  &= (uint8_t)~(PR_TC5_bm))
1019:/opt/local/avr/include/avr/power.h **** #define power_tc5c_disable()    (PR_PRPC  |= (uint8_t)PR_TC5_bm)
1020:/opt/local/avr/include/avr/power.h **** #endif
1021:/opt/local/avr/include/avr/power.h **** 
1022:/opt/local/avr/include/avr/power.h **** #if defined(__AVR_HAVE_PRPC_TWI)
1023:/opt/local/avr/include/avr/power.h **** #define power_twic_enable()     (PR_PRPC &= (uint8_t)~(PR_TWI_bm))
1024:/opt/local/avr/include/avr/power.h **** #define power_twic_disable()    (PR_PRPC |= (uint8_t)PR_TWI_bm)
1025:/opt/local/avr/include/avr/power.h **** #endif
1026:/opt/local/avr/include/avr/power.h **** 
1027:/opt/local/avr/include/avr/power.h **** #if defined(__AVR_HAVE_PRPC_USART0)
1028:/opt/local/avr/include/avr/power.h **** #define power_usartc0_enable()  (PR_PRPC &= (uint8_t)~(PR_USART0_bm))
1029:/opt/local/avr/include/avr/power.h **** #define power_usartc0_disable() (PR_PRPC |= (uint8_t)PR_USART0_bm)
1030:/opt/local/avr/include/avr/power.h **** #endif
1031:/opt/local/avr/include/avr/power.h **** 
1032:/opt/local/avr/include/avr/power.h **** #if defined(__AVR_HAVE_PRPC_USART1)
1033:/opt/local/avr/include/avr/power.h **** #define power_usartc1_enable()  (PR_PRPC &= (uint8_t)~(PR_USART1_bm))
1034:/opt/local/avr/include/avr/power.h **** #define power_usartc1_disable() (PR_PRPC |= (uint8_t)PR_USART1_bm)
1035:/opt/local/avr/include/avr/power.h **** #endif
1036:/opt/local/avr/include/avr/power.h **** 
1037:/opt/local/avr/include/avr/power.h **** #if defined(__AVR_HAVE_PRPD_HIRES)
1038:/opt/local/avr/include/avr/power.h **** #define power_hiresd_enable()   (PR_PRPD &= (uint8_t)~(PR_HIRES_bm))
1039:/opt/local/avr/include/avr/power.h **** #define power_hiresd_disable()  (PR_PRPD |= (uint8_t)PR_HIRES_bm)
1040:/opt/local/avr/include/avr/power.h **** #endif
1041:/opt/local/avr/include/avr/power.h **** 
1042:/opt/local/avr/include/avr/power.h **** #if defined(__AVR_HAVE_PRPD_SPI)
1043:/opt/local/avr/include/avr/power.h **** #define power_spid_enable()     (PR_PRPD &= (uint8_t)~(PR_SPI_bm))
1044:/opt/local/avr/include/avr/power.h **** #define power_spid_disable()    (PR_PRPD |= (uint8_t)PR_SPI_bm)
1045:/opt/local/avr/include/avr/power.h **** #endif
1046:/opt/local/avr/include/avr/power.h **** 
1047:/opt/local/avr/include/avr/power.h **** #if defined(__AVR_HAVE_PRPD_TC0)
1048:/opt/local/avr/include/avr/power.h **** #define power_tc0d_enable()     (PR_PRPD &= (uint8_t)~(PR_TC0_bm))
1049:/opt/local/avr/include/avr/power.h **** #define power_tc0d_disable()    (PR_PRPD |= (uint8_t)PR_TC0_bm)
1050:/opt/local/avr/include/avr/power.h **** #endif
1051:/opt/local/avr/include/avr/power.h **** 
1052:/opt/local/avr/include/avr/power.h **** #if defined(__AVR_HAVE_PRPD_TC1)
1053:/opt/local/avr/include/avr/power.h **** #define power_tc1d_enable()     (PR_PRPD &= (uint8_t)~(PR_TC1_bm))
1054:/opt/local/avr/include/avr/power.h **** #define power_tc1d_disable()    (PR_PRPD |= (uint8_t)PR_TC1_bm)
1055:/opt/local/avr/include/avr/power.h **** #endif
1056:/opt/local/avr/include/avr/power.h **** 
1057:/opt/local/avr/include/avr/power.h **** #if defined(__AVR_HAVE_PRPD_TC5)
1058:/opt/local/avr/include/avr/power.h **** #define power_tc5d_enable()     (PR_PRPD  &= (uint8_t)~(PR_TC5_bm))
1059:/opt/local/avr/include/avr/power.h **** #define power_tc5d_disable()    (PR_PRPD  |= (uint8_t)PR_TC5_bm)
1060:/opt/local/avr/include/avr/power.h **** #endif
1061:/opt/local/avr/include/avr/power.h **** 
1062:/opt/local/avr/include/avr/power.h **** #if defined(__AVR_HAVE_PRPD_TWI)
1063:/opt/local/avr/include/avr/power.h **** #define power_twid_enable()     (PR_PRPD &= (uint8_t)~(PR_TWI_bm))
1064:/opt/local/avr/include/avr/power.h **** #define power_twid_disable()    (PR_PRPD |= (uint8_t)PR_TWI_bm)
1065:/opt/local/avr/include/avr/power.h **** #endif
1066:/opt/local/avr/include/avr/power.h **** 
1067:/opt/local/avr/include/avr/power.h **** #if defined(__AVR_HAVE_PRPD_USART0)
1068:/opt/local/avr/include/avr/power.h **** #define power_usartd0_enable()  (PR_PRPD &= (uint8_t)~(PR_USART0_bm))
1069:/opt/local/avr/include/avr/power.h **** #define power_usartd0_disable() (PR_PRPD |= (uint8_t)PR_USART0_bm)
1070:/opt/local/avr/include/avr/power.h **** #endif
1071:/opt/local/avr/include/avr/power.h **** 
1072:/opt/local/avr/include/avr/power.h **** #if defined(__AVR_HAVE_PRPD_USART1)
1073:/opt/local/avr/include/avr/power.h **** #define power_usartd1_enable()  (PR_PRPD &= (uint8_t)~(PR_USART1_bm))
1074:/opt/local/avr/include/avr/power.h **** #define power_usartd1_disable() (PR_PRPD |= (uint8_t)PR_USART1_bm)
1075:/opt/local/avr/include/avr/power.h **** #endif
1076:/opt/local/avr/include/avr/power.h **** 
1077:/opt/local/avr/include/avr/power.h **** #if defined(__AVR_HAVE_PRPE_HIRES)
1078:/opt/local/avr/include/avr/power.h **** #define power_hirese_enable()   (PR_PRPE &= (uint8_t)~(PR_HIRES_bm))
1079:/opt/local/avr/include/avr/power.h **** #define power_hirese_disable()  (PR_PRPE |= (uint8_t)PR_HIRES_bm)
1080:/opt/local/avr/include/avr/power.h **** #endif
1081:/opt/local/avr/include/avr/power.h **** 
1082:/opt/local/avr/include/avr/power.h **** #if defined(__AVR_HAVE_PRPE_SPI)
1083:/opt/local/avr/include/avr/power.h **** #define power_spie_enable()     (PR_PRPE &= (uint8_t)~(PR_SPI_bm))
1084:/opt/local/avr/include/avr/power.h **** #define power_spie_disable()    (PR_PRPE |= (uint8_t)PR_SPI_bm)
1085:/opt/local/avr/include/avr/power.h **** #endif
1086:/opt/local/avr/include/avr/power.h **** 
1087:/opt/local/avr/include/avr/power.h **** #if defined(__AVR_HAVE_PRPE_TC0)
1088:/opt/local/avr/include/avr/power.h **** #define power_tc0e_enable()     (PR_PRPE &= (uint8_t)~(PR_TC0_bm))
1089:/opt/local/avr/include/avr/power.h **** #define power_tc0e_disable()    (PR_PRPE |= (uint8_t)PR_TC0_bm)
1090:/opt/local/avr/include/avr/power.h **** #endif
1091:/opt/local/avr/include/avr/power.h **** 
1092:/opt/local/avr/include/avr/power.h **** #if defined(__AVR_HAVE_PRPE_TC1)
1093:/opt/local/avr/include/avr/power.h **** #define power_tc1e_enable()     (PR_PRPE &= (uint8_t)~(PR_TC1_bm))
1094:/opt/local/avr/include/avr/power.h **** #define power_tc1e_disable()    (PR_PRPE |= (uint8_t)PR_TC1_bm)
1095:/opt/local/avr/include/avr/power.h **** #endif
1096:/opt/local/avr/include/avr/power.h **** 
1097:/opt/local/avr/include/avr/power.h **** #if defined(__AVR_HAVE_PRPE_TWI)
1098:/opt/local/avr/include/avr/power.h **** #define power_twie_enable()     (PR_PRPE &= (uint8_t)~(PR_TWI_bm))
1099:/opt/local/avr/include/avr/power.h **** #define power_twie_disable()    (PR_PRPE |= (uint8_t)PR_TWI_bm)
1100:/opt/local/avr/include/avr/power.h **** #endif
1101:/opt/local/avr/include/avr/power.h **** 
1102:/opt/local/avr/include/avr/power.h **** #if defined(__AVR_HAVE_PRPE_USART0)
1103:/opt/local/avr/include/avr/power.h **** #define power_usarte0_enable()  (PR_PRPE &= (uint8_t)~(PR_USART0_bm))
1104:/opt/local/avr/include/avr/power.h **** #define power_usarte0_disable() (PR_PRPE |= (uint8_t)PR_USART0_bm)
1105:/opt/local/avr/include/avr/power.h **** #endif
1106:/opt/local/avr/include/avr/power.h **** 
1107:/opt/local/avr/include/avr/power.h **** #if defined(__AVR_HAVE_PRPE_USART1)
1108:/opt/local/avr/include/avr/power.h **** #define power_usarte1_enable()  (PR_PRPE &= (uint8_t)~(PR_USART1_bm))
1109:/opt/local/avr/include/avr/power.h **** #define power_usarte1_disable() (PR_PRPE |= (uint8_t)PR_USART1_bm)
1110:/opt/local/avr/include/avr/power.h **** #endif
1111:/opt/local/avr/include/avr/power.h **** 
1112:/opt/local/avr/include/avr/power.h **** #if defined(__AVR_HAVE_PRPF_HIRES)
1113:/opt/local/avr/include/avr/power.h **** #define power_hiresf_enable()   (PR_PRPF &= (uint8_t)~(PR_HIRES_bm))
1114:/opt/local/avr/include/avr/power.h **** #define power_hiresf_disable()  (PR_PRPF |= (uint8_t)PR_HIRES_bm)
1115:/opt/local/avr/include/avr/power.h **** #endif
1116:/opt/local/avr/include/avr/power.h **** 
1117:/opt/local/avr/include/avr/power.h **** #if defined(__AVR_HAVE_PRPF_SPI)
1118:/opt/local/avr/include/avr/power.h **** #define power_spif_enable()     (PR_PRPF &= (uint8_t)~(PR_SPI_bm))
1119:/opt/local/avr/include/avr/power.h **** #define power_spif_disable()    (PR_PRPF |= (uint8_t)PR_SPI_bm)
1120:/opt/local/avr/include/avr/power.h **** #endif
1121:/opt/local/avr/include/avr/power.h **** 
1122:/opt/local/avr/include/avr/power.h **** #if defined(__AVR_HAVE_PRPF_TC0)
1123:/opt/local/avr/include/avr/power.h **** #define power_tc0f_enable()     (PR_PRPF &= (uint8_t)~(PR_TC0_bm))
1124:/opt/local/avr/include/avr/power.h **** #define power_tc0f_disable()    (PR_PRPF |= (uint8_t)PR_TC0_bm)
1125:/opt/local/avr/include/avr/power.h **** #endif
1126:/opt/local/avr/include/avr/power.h **** 
1127:/opt/local/avr/include/avr/power.h **** #if defined(__AVR_HAVE_PRPF_TC1)
1128:/opt/local/avr/include/avr/power.h **** #define power_tc1f_enable()     (PR_PRPF &= (uint8_t)~(PR_TC1_bm))
1129:/opt/local/avr/include/avr/power.h **** #define power_tc1f_disable()    (PR_PRPF |= (uint8_t)PR_TC1_bm)
1130:/opt/local/avr/include/avr/power.h **** #endif
1131:/opt/local/avr/include/avr/power.h **** 
1132:/opt/local/avr/include/avr/power.h **** #if defined(__AVR_HAVE_PRPF_TWI)
1133:/opt/local/avr/include/avr/power.h **** #define power_twif_enable()     (PR_PRPF &= (uint8_t)~(PR_TWI_bm))
1134:/opt/local/avr/include/avr/power.h **** #define power_twif_disable()    (PR_PRPF |= (uint8_t)PR_TWI_bm)
1135:/opt/local/avr/include/avr/power.h **** #endif
1136:/opt/local/avr/include/avr/power.h **** 
1137:/opt/local/avr/include/avr/power.h **** #if defined(__AVR_HAVE_PRPF_USART0)
1138:/opt/local/avr/include/avr/power.h **** #define power_usartf0_enable()  (PR_PRPF &= (uint8_t)~(PR_USART0_bm))
1139:/opt/local/avr/include/avr/power.h **** #define power_usartf0_disable() (PR_PRPF |= (uint8_t)PR_USART0_bm)
1140:/opt/local/avr/include/avr/power.h **** #endif
1141:/opt/local/avr/include/avr/power.h **** 
1142:/opt/local/avr/include/avr/power.h **** #if defined(__AVR_HAVE_PRPF_USART1)
1143:/opt/local/avr/include/avr/power.h **** #define power_usartf1_enable()  (PR_PRPF &= (uint8_t)~(PR_USART1_bm))
1144:/opt/local/avr/include/avr/power.h **** #define power_usartf1_disable() (PR_PRPF |= (uint8_t)PR_USART1_bm)
1145:/opt/local/avr/include/avr/power.h **** #endif
1146:/opt/local/avr/include/avr/power.h **** 
1147:/opt/local/avr/include/avr/power.h **** static __inline void
1148:/opt/local/avr/include/avr/power.h **** __attribute__ ((__always_inline__))
1149:/opt/local/avr/include/avr/power.h **** __power_all_enable()
1150:/opt/local/avr/include/avr/power.h **** {
1151:/opt/local/avr/include/avr/power.h **** #ifdef __AVR_HAVE_PRR
1152:/opt/local/avr/include/avr/power.h ****     PRR &= (uint8_t)~(__AVR_HAVE_PRR);
1153:/opt/local/avr/include/avr/power.h **** #endif
1154:/opt/local/avr/include/avr/power.h **** 
1155:/opt/local/avr/include/avr/power.h **** #ifdef __AVR_HAVE_PRR0
1156:/opt/local/avr/include/avr/power.h ****     PRR0 &= (uint8_t)~(__AVR_HAVE_PRR0);
1157:/opt/local/avr/include/avr/power.h **** #endif
1158:/opt/local/avr/include/avr/power.h **** 
1159:/opt/local/avr/include/avr/power.h **** #ifdef __AVR_HAVE_PRR1
1160:/opt/local/avr/include/avr/power.h ****     PRR1 &= (uint8_t)~(__AVR_HAVE_PRR1);
1161:/opt/local/avr/include/avr/power.h **** #endif
1162:/opt/local/avr/include/avr/power.h **** 
1163:/opt/local/avr/include/avr/power.h **** #ifdef __AVR_HAVE_PRR2
1164:/opt/local/avr/include/avr/power.h ****    PRR2 &= (uint8_t)~(__AVR_HAVE_PRR2);
1165:/opt/local/avr/include/avr/power.h **** #endif
1166:/opt/local/avr/include/avr/power.h **** 
1167:/opt/local/avr/include/avr/power.h **** #ifdef __AVR_HAVE_PRGEN
1168:/opt/local/avr/include/avr/power.h ****     PR_PRGEN &= (uint8_t)~(__AVR_HAVE_PRGEN);
1169:/opt/local/avr/include/avr/power.h **** #endif
1170:/opt/local/avr/include/avr/power.h **** 
1171:/opt/local/avr/include/avr/power.h **** #ifdef __AVR_HAVE_PRPA
1172:/opt/local/avr/include/avr/power.h ****     PR_PRPA &= (uint8_t)~(__AVR_HAVE_PRPA);
1173:/opt/local/avr/include/avr/power.h **** #endif
1174:/opt/local/avr/include/avr/power.h **** 
1175:/opt/local/avr/include/avr/power.h **** #ifdef __AVR_HAVE_PRPB
1176:/opt/local/avr/include/avr/power.h ****     PR_PRPB &= (uint8_t)~(__AVR_HAVE_PRPB);
1177:/opt/local/avr/include/avr/power.h **** #endif
1178:/opt/local/avr/include/avr/power.h **** 
1179:/opt/local/avr/include/avr/power.h **** #ifdef __AVR_HAVE_PRPC
1180:/opt/local/avr/include/avr/power.h ****     PR_PRPC &= (uint8_t)~(__AVR_HAVE_PRPC);
1181:/opt/local/avr/include/avr/power.h **** #endif
1182:/opt/local/avr/include/avr/power.h **** 
1183:/opt/local/avr/include/avr/power.h **** #ifdef __AVR_HAVE_PRPD
1184:/opt/local/avr/include/avr/power.h ****     PR_PRPD &= (uint8_t)~(__AVR_HAVE_PRPD);
1185:/opt/local/avr/include/avr/power.h **** #endif
1186:/opt/local/avr/include/avr/power.h **** 
1187:/opt/local/avr/include/avr/power.h **** #ifdef __AVR_HAVE_PRPE
1188:/opt/local/avr/include/avr/power.h ****     PR_PRPE &= (uint8_t)~(__AVR_HAVE_PRPE);
1189:/opt/local/avr/include/avr/power.h **** #endif
1190:/opt/local/avr/include/avr/power.h **** 
1191:/opt/local/avr/include/avr/power.h **** #ifdef __AVR_HAVE_PRPF
1192:/opt/local/avr/include/avr/power.h ****     PR_PRPF &= (uint8_t)~(__AVR_HAVE_PRPF);
1193:/opt/local/avr/include/avr/power.h **** #endif
1194:/opt/local/avr/include/avr/power.h **** }
1195:/opt/local/avr/include/avr/power.h **** 
1196:/opt/local/avr/include/avr/power.h **** static __inline void
1197:/opt/local/avr/include/avr/power.h **** __attribute__ ((__always_inline__))
1198:/opt/local/avr/include/avr/power.h **** __power_all_disable()
1199:/opt/local/avr/include/avr/power.h **** {
1200:/opt/local/avr/include/avr/power.h **** #ifdef __AVR_HAVE_PRR
1201:/opt/local/avr/include/avr/power.h ****     PRR |= (uint8_t)(__AVR_HAVE_PRR);
1202:/opt/local/avr/include/avr/power.h **** #endif
1203:/opt/local/avr/include/avr/power.h **** 
1204:/opt/local/avr/include/avr/power.h **** #ifdef __AVR_HAVE_PRR0
1205:/opt/local/avr/include/avr/power.h ****     PRR0 |= (uint8_t)(__AVR_HAVE_PRR0);
1206:/opt/local/avr/include/avr/power.h **** #endif
1207:/opt/local/avr/include/avr/power.h **** 
1208:/opt/local/avr/include/avr/power.h **** #ifdef __AVR_HAVE_PRR1
1209:/opt/local/avr/include/avr/power.h ****     PRR1 |= (uint8_t)(__AVR_HAVE_PRR1);
1210:/opt/local/avr/include/avr/power.h **** #endif
1211:/opt/local/avr/include/avr/power.h **** 
1212:/opt/local/avr/include/avr/power.h **** #ifdef __AVR_HAVE_PRR2
1213:/opt/local/avr/include/avr/power.h ****     PRR2 |= (uint8_t)(__AVR_HAVE_PRR2);
1214:/opt/local/avr/include/avr/power.h **** #endif
1215:/opt/local/avr/include/avr/power.h **** 
1216:/opt/local/avr/include/avr/power.h **** #ifdef __AVR_HAVE_PRGEN
1217:/opt/local/avr/include/avr/power.h ****     PR_PRGEN |= (uint8_t)(__AVR_HAVE_PRGEN);
1218:/opt/local/avr/include/avr/power.h **** #endif
1219:/opt/local/avr/include/avr/power.h **** 
1220:/opt/local/avr/include/avr/power.h **** #ifdef __AVR_HAVE_PRPA
1221:/opt/local/avr/include/avr/power.h ****     PR_PRPA |= (uint8_t)(__AVR_HAVE_PRPA);
1222:/opt/local/avr/include/avr/power.h **** #endif
1223:/opt/local/avr/include/avr/power.h **** 
1224:/opt/local/avr/include/avr/power.h **** #ifdef __AVR_HAVE_PRPB
1225:/opt/local/avr/include/avr/power.h ****     PR_PRPB |= (uint8_t)(__AVR_HAVE_PRPB);
1226:/opt/local/avr/include/avr/power.h **** #endif
1227:/opt/local/avr/include/avr/power.h **** 
1228:/opt/local/avr/include/avr/power.h **** #ifdef __AVR_HAVE_PRPC
1229:/opt/local/avr/include/avr/power.h ****     PR_PRPC |= (uint8_t)(__AVR_HAVE_PRPC);
1230:/opt/local/avr/include/avr/power.h **** #endif
1231:/opt/local/avr/include/avr/power.h **** 
1232:/opt/local/avr/include/avr/power.h **** #ifdef __AVR_HAVE_PRPD
1233:/opt/local/avr/include/avr/power.h ****     PR_PRPD |= (uint8_t)(__AVR_HAVE_PRPD);
1234:/opt/local/avr/include/avr/power.h **** #endif
1235:/opt/local/avr/include/avr/power.h **** 
1236:/opt/local/avr/include/avr/power.h **** #ifdef __AVR_HAVE_PRPE
1237:/opt/local/avr/include/avr/power.h ****     PR_PRPE |= (uint8_t)(__AVR_HAVE_PRPE);
1238:/opt/local/avr/include/avr/power.h **** #endif
1239:/opt/local/avr/include/avr/power.h **** 
1240:/opt/local/avr/include/avr/power.h **** #ifdef __AVR_HAVE_PRPF
1241:/opt/local/avr/include/avr/power.h ****     PR_PRPF |= (uint8_t)(__AVR_HAVE_PRPF);
1242:/opt/local/avr/include/avr/power.h **** #endif
1243:/opt/local/avr/include/avr/power.h **** }
1244:/opt/local/avr/include/avr/power.h **** 
1245:/opt/local/avr/include/avr/power.h **** #ifndef __DOXYGEN__
1246:/opt/local/avr/include/avr/power.h **** #ifndef power_all_enable
1247:/opt/local/avr/include/avr/power.h **** #define power_all_enable() __power_all_enable()
1248:/opt/local/avr/include/avr/power.h **** #endif
1249:/opt/local/avr/include/avr/power.h **** 
1250:/opt/local/avr/include/avr/power.h **** #ifndef power_all_disable
1251:/opt/local/avr/include/avr/power.h **** #define power_all_disable() __power_all_disable()
1252:/opt/local/avr/include/avr/power.h **** #endif
1253:/opt/local/avr/include/avr/power.h **** #endif	/* !__DOXYGEN__ */
1254:/opt/local/avr/include/avr/power.h **** 
1255:/opt/local/avr/include/avr/power.h **** 
1256:/opt/local/avr/include/avr/power.h **** #if defined(__AVR_AT90CAN32__) \
1257:/opt/local/avr/include/avr/power.h **** || defined(__AVR_AT90CAN64__) \
1258:/opt/local/avr/include/avr/power.h **** || defined(__AVR_AT90CAN128__) \
1259:/opt/local/avr/include/avr/power.h **** || defined(__AVR_AT90PWM1__) \
1260:/opt/local/avr/include/avr/power.h **** || defined(__AVR_AT90PWM2__) \
1261:/opt/local/avr/include/avr/power.h **** || defined(__AVR_AT90PWM2B__) \
1262:/opt/local/avr/include/avr/power.h **** || defined(__AVR_AT90PWM3__) \
1263:/opt/local/avr/include/avr/power.h **** || defined(__AVR_AT90PWM3B__) \
1264:/opt/local/avr/include/avr/power.h **** || defined(__AVR_AT90PWM81__) \
1265:/opt/local/avr/include/avr/power.h **** || defined(__AVR_AT90PWM161__) \
1266:/opt/local/avr/include/avr/power.h **** || defined(__AVR_AT90PWM216__) \
1267:/opt/local/avr/include/avr/power.h **** || defined(__AVR_AT90PWM316__) \
1268:/opt/local/avr/include/avr/power.h **** || defined(__AVR_AT90SCR100__) \
1269:/opt/local/avr/include/avr/power.h **** || defined(__AVR_AT90USB646__) \
1270:/opt/local/avr/include/avr/power.h **** || defined(__AVR_AT90USB647__) \
1271:/opt/local/avr/include/avr/power.h **** || defined(__AVR_AT90USB82__) \
1272:/opt/local/avr/include/avr/power.h **** || defined(__AVR_AT90USB1286__) \
1273:/opt/local/avr/include/avr/power.h **** || defined(__AVR_AT90USB1287__) \
1274:/opt/local/avr/include/avr/power.h **** || defined(__AVR_AT90USB162__) \
1275:/opt/local/avr/include/avr/power.h **** || defined(__AVR_ATA5505__) \
1276:/opt/local/avr/include/avr/power.h **** || defined(__AVR_ATA5272__) \
1277:/opt/local/avr/include/avr/power.h **** || defined(__AVR_ATmega1280__) \
1278:/opt/local/avr/include/avr/power.h **** || defined(__AVR_ATmega1281__) \
1279:/opt/local/avr/include/avr/power.h **** || defined(__AVR_ATmega1284__) \
1280:/opt/local/avr/include/avr/power.h **** || defined(__AVR_ATmega128RFA1__) \
1281:/opt/local/avr/include/avr/power.h **** || defined(__AVR_ATmega1284RFR2__) \
1282:/opt/local/avr/include/avr/power.h **** || defined(__AVR_ATmega128RFR2__) \
1283:/opt/local/avr/include/avr/power.h **** || defined(__AVR_ATmega1284P__) \
1284:/opt/local/avr/include/avr/power.h **** || defined(__AVR_ATmega162__) \
1285:/opt/local/avr/include/avr/power.h **** || defined(__AVR_ATmega164A__) \
1286:/opt/local/avr/include/avr/power.h **** || defined(__AVR_ATmega164P__) \
1287:/opt/local/avr/include/avr/power.h **** || defined(__AVR_ATmega164PA__) \
1288:/opt/local/avr/include/avr/power.h **** || defined(__AVR_ATmega165__) \
1289:/opt/local/avr/include/avr/power.h **** || defined(__AVR_ATmega165A__) \
1290:/opt/local/avr/include/avr/power.h **** || defined(__AVR_ATmega165P__) \
1291:/opt/local/avr/include/avr/power.h **** || defined(__AVR_ATmega165PA__) \
1292:/opt/local/avr/include/avr/power.h **** || defined(__AVR_ATmega168__) \
1293:/opt/local/avr/include/avr/power.h **** || defined(__AVR_ATmega168P__) \
1294:/opt/local/avr/include/avr/power.h **** || defined(__AVR_ATmega168PA__) \
1295:/opt/local/avr/include/avr/power.h **** || defined(__AVR_ATmega169__) \
1296:/opt/local/avr/include/avr/power.h **** || defined(__AVR_ATmega169A__) \
1297:/opt/local/avr/include/avr/power.h **** || defined(__AVR_ATmega169P__) \
1298:/opt/local/avr/include/avr/power.h **** || defined(__AVR_ATmega169PA__) \
1299:/opt/local/avr/include/avr/power.h **** || defined(__AVR_ATmega16U4__) \
1300:/opt/local/avr/include/avr/power.h **** || defined(__AVR_ATmega2560__) \
1301:/opt/local/avr/include/avr/power.h **** || defined(__AVR_ATmega2561__) \
1302:/opt/local/avr/include/avr/power.h **** || defined(__AVR_ATmega2564RFR2__) \
1303:/opt/local/avr/include/avr/power.h **** || defined(__AVR_ATmega256RFR2__) \
1304:/opt/local/avr/include/avr/power.h **** || defined(__AVR_ATmega324A__) \
1305:/opt/local/avr/include/avr/power.h **** || defined(__AVR_ATmega324P__) \
1306:/opt/local/avr/include/avr/power.h **** || defined(__AVR_ATmega325__) \
1307:/opt/local/avr/include/avr/power.h **** || defined(__AVR_ATmega325A__) \
1308:/opt/local/avr/include/avr/power.h **** || defined(__AVR_ATmega325PA__) \
1309:/opt/local/avr/include/avr/power.h **** || defined(__AVR_ATmega3250__) \
1310:/opt/local/avr/include/avr/power.h **** || defined(__AVR_ATmega3250A__) \
1311:/opt/local/avr/include/avr/power.h **** || defined(__AVR_ATmega3250PA__) \
1312:/opt/local/avr/include/avr/power.h **** || defined(__AVR_ATmega328__) \
1313:/opt/local/avr/include/avr/power.h **** || defined(__AVR_ATmega328P__) \
1314:/opt/local/avr/include/avr/power.h **** || defined(__AVR_ATmega329__) \
1315:/opt/local/avr/include/avr/power.h **** || defined(__AVR_ATmega329A__) \
1316:/opt/local/avr/include/avr/power.h **** || defined(__AVR_ATmega329P__) \
1317:/opt/local/avr/include/avr/power.h **** || defined(__AVR_ATmega329PA__) \
1318:/opt/local/avr/include/avr/power.h **** || defined(__AVR_ATmega3290__) \
1319:/opt/local/avr/include/avr/power.h **** || defined(__AVR_ATmega3290A__) \
1320:/opt/local/avr/include/avr/power.h **** || defined(__AVR_ATmega3290PA__) \
1321:/opt/local/avr/include/avr/power.h **** || defined(__AVR_ATmega32C1__) \
1322:/opt/local/avr/include/avr/power.h **** || defined(__AVR_ATmega32M1__) \
1323:/opt/local/avr/include/avr/power.h **** || defined(__AVR_ATmega32U2__) \
1324:/opt/local/avr/include/avr/power.h **** || defined(__AVR_ATmega32U4__) \
1325:/opt/local/avr/include/avr/power.h **** || defined(__AVR_ATmega32U6__) \
1326:/opt/local/avr/include/avr/power.h **** || defined(__AVR_ATmega48__) \
1327:/opt/local/avr/include/avr/power.h **** || defined(__AVR_ATmega48A__) \
1328:/opt/local/avr/include/avr/power.h **** || defined(__AVR_ATmega48PA__) \
1329:/opt/local/avr/include/avr/power.h **** || defined(__AVR_ATmega48P__) \
1330:/opt/local/avr/include/avr/power.h **** || defined(__AVR_ATmega640__) \
1331:/opt/local/avr/include/avr/power.h **** || defined(__AVR_ATmega649P__) \
1332:/opt/local/avr/include/avr/power.h **** || defined(__AVR_ATmega644__) \
1333:/opt/local/avr/include/avr/power.h **** || defined(__AVR_ATmega644A__) \
1334:/opt/local/avr/include/avr/power.h **** || defined(__AVR_ATmega644P__) \
1335:/opt/local/avr/include/avr/power.h **** || defined(__AVR_ATmega644PA__) \
1336:/opt/local/avr/include/avr/power.h **** || defined(__AVR_ATmega645__) \
1337:/opt/local/avr/include/avr/power.h **** || defined(__AVR_ATmega645A__) \
1338:/opt/local/avr/include/avr/power.h **** || defined(__AVR_ATmega645P__) \
1339:/opt/local/avr/include/avr/power.h **** || defined(__AVR_ATmega6450__) \
1340:/opt/local/avr/include/avr/power.h **** || defined(__AVR_ATmega6450A__) \
1341:/opt/local/avr/include/avr/power.h **** || defined(__AVR_ATmega6450P__) \
1342:/opt/local/avr/include/avr/power.h **** || defined(__AVR_ATmega649__) \
1343:/opt/local/avr/include/avr/power.h **** || defined(__AVR_ATmega649A__) \
1344:/opt/local/avr/include/avr/power.h **** || defined(__AVR_ATmega6490__) \
1345:/opt/local/avr/include/avr/power.h **** || defined(__AVR_ATmega6490A__) \
1346:/opt/local/avr/include/avr/power.h **** || defined(__AVR_ATmega6490P__) \
1347:/opt/local/avr/include/avr/power.h **** || defined(__AVR_ATmega644RFR2__) \
1348:/opt/local/avr/include/avr/power.h **** || defined(__AVR_ATmega64RFR2__) \
1349:/opt/local/avr/include/avr/power.h **** || defined(__AVR_ATmega88__) \
1350:/opt/local/avr/include/avr/power.h **** || defined(__AVR_ATmega88P__) \
1351:/opt/local/avr/include/avr/power.h **** || defined(__AVR_ATmega8U2__) \
1352:/opt/local/avr/include/avr/power.h **** || defined(__AVR_ATmega16U2__) \
1353:/opt/local/avr/include/avr/power.h **** || defined(__AVR_ATmega32U2__) \
1354:/opt/local/avr/include/avr/power.h **** || defined(__AVR_ATtiny48__) \
1355:/opt/local/avr/include/avr/power.h **** || defined(__AVR_ATtiny167__) \
1356:/opt/local/avr/include/avr/power.h **** || defined(__DOXYGEN__)
1357:/opt/local/avr/include/avr/power.h **** 
1358:/opt/local/avr/include/avr/power.h **** 
1359:/opt/local/avr/include/avr/power.h **** /** \addtogroup avr_power
1360:/opt/local/avr/include/avr/power.h **** 
1361:/opt/local/avr/include/avr/power.h **** Some of the newer AVRs contain a System Clock Prescale Register (CLKPR) that
1362:/opt/local/avr/include/avr/power.h **** allows you to decrease the system clock frequency and the power consumption
1363:/opt/local/avr/include/avr/power.h **** when the need for processing power is low.
1364:/opt/local/avr/include/avr/power.h **** On some earlier AVRs (ATmega103, ATmega64, ATmega128), similar
1365:/opt/local/avr/include/avr/power.h **** functionality can be achieved through the XTAL Divide Control Register.
1366:/opt/local/avr/include/avr/power.h **** Below are two macros and an enumerated type that can be used to
1367:/opt/local/avr/include/avr/power.h **** interface to the Clock Prescale Register or
1368:/opt/local/avr/include/avr/power.h **** XTAL Divide Control Register.
1369:/opt/local/avr/include/avr/power.h **** 
1370:/opt/local/avr/include/avr/power.h **** \note Not all AVR devices have a clock prescaler. On those devices
1371:/opt/local/avr/include/avr/power.h **** without a Clock Prescale Register or XTAL Divide Control Register, these
1372:/opt/local/avr/include/avr/power.h **** macros are not available.
1373:/opt/local/avr/include/avr/power.h **** */
1374:/opt/local/avr/include/avr/power.h **** 
1375:/opt/local/avr/include/avr/power.h **** 
1376:/opt/local/avr/include/avr/power.h **** /** \addtogroup avr_power
1377:/opt/local/avr/include/avr/power.h **** \code 
1378:/opt/local/avr/include/avr/power.h **** typedef enum
1379:/opt/local/avr/include/avr/power.h **** {
1380:/opt/local/avr/include/avr/power.h ****     clock_div_1 = 0,
1381:/opt/local/avr/include/avr/power.h ****     clock_div_2 = 1,
1382:/opt/local/avr/include/avr/power.h ****     clock_div_4 = 2,
1383:/opt/local/avr/include/avr/power.h ****     clock_div_8 = 3,
1384:/opt/local/avr/include/avr/power.h ****     clock_div_16 = 4,
1385:/opt/local/avr/include/avr/power.h ****     clock_div_32 = 5,
1386:/opt/local/avr/include/avr/power.h ****     clock_div_64 = 6,
1387:/opt/local/avr/include/avr/power.h ****     clock_div_128 = 7,
1388:/opt/local/avr/include/avr/power.h ****     clock_div_256 = 8,
1389:/opt/local/avr/include/avr/power.h ****     clock_div_1_rc = 15, // ATmega128RFA1 only
1390:/opt/local/avr/include/avr/power.h **** } clock_div_t;
1391:/opt/local/avr/include/avr/power.h **** \endcode
1392:/opt/local/avr/include/avr/power.h **** Clock prescaler setting enumerations for device using
1393:/opt/local/avr/include/avr/power.h **** System Clock Prescale Register.
1394:/opt/local/avr/include/avr/power.h **** 
1395:/opt/local/avr/include/avr/power.h **** \code
1396:/opt/local/avr/include/avr/power.h **** typedef enum
1397:/opt/local/avr/include/avr/power.h **** {
1398:/opt/local/avr/include/avr/power.h ****     clock_div_1 = 1,
1399:/opt/local/avr/include/avr/power.h ****     clock_div_2 = 2,
1400:/opt/local/avr/include/avr/power.h ****     clock_div_4 = 4,
1401:/opt/local/avr/include/avr/power.h ****     clock_div_8 = 8,
1402:/opt/local/avr/include/avr/power.h ****     clock_div_16 = 16,
1403:/opt/local/avr/include/avr/power.h ****     clock_div_32 = 32,
1404:/opt/local/avr/include/avr/power.h ****     clock_div_64 = 64,
1405:/opt/local/avr/include/avr/power.h ****     clock_div_128 = 128
1406:/opt/local/avr/include/avr/power.h **** } clock_div_t;
1407:/opt/local/avr/include/avr/power.h **** \endcode
1408:/opt/local/avr/include/avr/power.h **** Clock prescaler setting enumerations for device using
1409:/opt/local/avr/include/avr/power.h **** XTAL Divide Control Register.
1410:/opt/local/avr/include/avr/power.h **** 
1411:/opt/local/avr/include/avr/power.h **** */
1412:/opt/local/avr/include/avr/power.h **** #ifndef __DOXYGEN__
1413:/opt/local/avr/include/avr/power.h **** typedef enum
1414:/opt/local/avr/include/avr/power.h **** {
1415:/opt/local/avr/include/avr/power.h ****     clock_div_1 = 0,
1416:/opt/local/avr/include/avr/power.h ****     clock_div_2 = 1,
1417:/opt/local/avr/include/avr/power.h ****     clock_div_4 = 2,
1418:/opt/local/avr/include/avr/power.h ****     clock_div_8 = 3,
1419:/opt/local/avr/include/avr/power.h ****     clock_div_16 = 4,
1420:/opt/local/avr/include/avr/power.h ****     clock_div_32 = 5,
1421:/opt/local/avr/include/avr/power.h ****     clock_div_64 = 6,
1422:/opt/local/avr/include/avr/power.h ****     clock_div_128 = 7,
1423:/opt/local/avr/include/avr/power.h ****     clock_div_256 = 8
1424:/opt/local/avr/include/avr/power.h **** #if defined(__AVR_ATmega128RFA1__) \
1425:/opt/local/avr/include/avr/power.h **** || defined(__AVR_ATmega2564RFR2__) \
1426:/opt/local/avr/include/avr/power.h **** || defined(__AVR_ATmega1284RFR2__) \
1427:/opt/local/avr/include/avr/power.h **** || defined(__AVR_ATmega644RFR2__) \
1428:/opt/local/avr/include/avr/power.h **** || defined(__AVR_ATmega256RFR2__) \
1429:/opt/local/avr/include/avr/power.h **** || defined(__AVR_ATmega128RFR2__) \
1430:/opt/local/avr/include/avr/power.h **** || defined(__AVR_ATmega64RFR2__)
1431:/opt/local/avr/include/avr/power.h ****     , clock_div_1_rc = 15
1432:/opt/local/avr/include/avr/power.h **** #endif
1433:/opt/local/avr/include/avr/power.h **** } clock_div_t;
1434:/opt/local/avr/include/avr/power.h **** 
1435:/opt/local/avr/include/avr/power.h **** static __inline__ void clock_prescale_set(clock_div_t) __attribute__((__always_inline__));
1436:/opt/local/avr/include/avr/power.h **** #endif	/* !__DOXYGEN__ */
1437:/opt/local/avr/include/avr/power.h **** 
1438:/opt/local/avr/include/avr/power.h **** /**
1439:/opt/local/avr/include/avr/power.h ****    \ingroup avr_power
1440:/opt/local/avr/include/avr/power.h ****    \fn clock_prescale_set(clock_div_t x)
1441:/opt/local/avr/include/avr/power.h **** 
1442:/opt/local/avr/include/avr/power.h **** Set the clock prescaler register select bits, selecting a system clock
1443:/opt/local/avr/include/avr/power.h **** division setting. This function is inlined, even if compiler
1444:/opt/local/avr/include/avr/power.h **** optimizations are disabled.
1445:/opt/local/avr/include/avr/power.h **** 
1446:/opt/local/avr/include/avr/power.h **** The type of \c x is \c clock_div_t.
1447:/opt/local/avr/include/avr/power.h **** 
1448:/opt/local/avr/include/avr/power.h **** \note For device with XTAL Divide Control Register (XDIV), \c x can actually range
1449:/opt/local/avr/include/avr/power.h **** from 1 to 129. Thus, one does not need to use \c clock_div_t type as argument.
1450:/opt/local/avr/include/avr/power.h **** */
1451:/opt/local/avr/include/avr/power.h **** void clock_prescale_set(clock_div_t __x)
1452:/opt/local/avr/include/avr/power.h **** {
1453:/opt/local/avr/include/avr/power.h ****     uint8_t __tmp = _BV(CLKPCE);
1454:/opt/local/avr/include/avr/power.h ****     __asm__ __volatile__ (
 1324               		.loc 6 1454 0
 1325 001c 80E8      		ldi r24,lo8(-128)
 1326 001e 90E0      		ldi r25,0
 1327               	/* #APP */
 1328               	 ;  1454 "/opt/local/avr/include/avr/power.h" 1
 1329 0020 0FB6      		in __tmp_reg__,__SREG__
 1330 0022 F894      		cli
 1331 0024 8093 6100 		sts 97, r24
 1332 0028 9093 6100 		sts 97, r25
 1333 002c 0FBE      		out __SREG__, __tmp_reg__
 1334               	 ;  0 "" 2
 1335               	.LVL94:
 1336               	/* #NOAPP */
 1337               	.LBE320:
 1338               	.LBE319:
 1339               	.LBE316:
 1340               	.LBE315:
 634:/users/hunter/downloads/tmk_core/protocol/lufa/lufa.c ****     print("\r\ninit\n");
 1341               		.loc 1 634 0
 1342 002e 80E0      		ldi r24,lo8(gs(sendchar))
 1343 0030 90E0      		ldi r25,hi8(gs(sendchar))
 1344 0032 0E94 0000 		call print_set_sendchar
 1345               	.LVL95:
 635:/users/hunter/downloads/tmk_core/protocol/lufa/lufa.c **** 
 1346               		.loc 1 635 0
 1347 0036 80E0      		ldi r24,lo8(__c.4864)
 1348 0038 90E0      		ldi r25,hi8(__c.4864)
 1349 003a 0E94 0000 		call xputs
 1350               	.LVL96:
 637:/users/hunter/downloads/tmk_core/protocol/lufa/lufa.c ****     keyboard_setup();
 1351               		.loc 1 637 0
 1352 003e 0E94 0000 		call hook_early_init
 1353               	.LVL97:
 638:/users/hunter/downloads/tmk_core/protocol/lufa/lufa.c ****     setup_usb();
 1354               		.loc 1 638 0
 1355 0042 0E94 0000 		call keyboard_setup
 1356               	.LVL98:
 1357               	.LBB321:
 1358               	.LBB322:
 617:/users/hunter/downloads/tmk_core/protocol/lufa/lufa.c **** 
 1359               		.loc 1 617 0
 1360 0046 0E94 0000 		call USB_Disable
 1361               	.LVL99:
 619:/users/hunter/downloads/tmk_core/protocol/lufa/lufa.c **** 
 1362               		.loc 1 619 0
 1363 004a 0E94 0000 		call USB_Init
 1364               	.LVL100:
 1365               	.LBB323:
 1366               	.LBB324:
 1367               	.LBB325:
 1368               		.loc 4 113 0
 1369 004e 8091 E200 		lds r24,226
 1370 0052 8460      		ori r24,lo8(4)
 1371 0054 8093 E200 		sts 226,r24
 1372               	.LVL101:
 1373               	.LBE325:
 1374               	.LBE324:
 1375               	.LBE323:
 1376               	.LBE322:
 1377               	.LBE321:
 640:/users/hunter/downloads/tmk_core/protocol/lufa/lufa.c **** 
 1378               		.loc 1 640 0
 1379               	/* #APP */
 1380               	 ;  640 "/users/hunter/downloads/tmk_core/protocol/lufa/lufa.c" 1
 1381 0058 7894      		sei
 1382               	 ;  0 "" 2
 1383               	/* #NOAPP */
 1384               	.L132:
 643:/users/hunter/downloads/tmk_core/protocol/lufa/lufa.c **** #if defined(INTERRUPT_CONTROL_ENDPOINT)
 1385               		.loc 1 643 0 discriminator 1
 1386 005a 8091 0000 		lds r24,USB_DeviceState
 1387 005e 8430      		cpi r24,lo8(4)
 1388 0060 01F4      		brne .L132
 650:/users/hunter/downloads/tmk_core/protocol/lufa/lufa.c **** 
 1389               		.loc 1 650 0
 1390 0062 80E0      		ldi r24,lo8(__c.4869)
 1391 0064 90E0      		ldi r25,hi8(__c.4869)
 1392 0066 0E94 0000 		call xputs
 1393               	.LVL102:
 653:/users/hunter/downloads/tmk_core/protocol/lufa/lufa.c ****     host_set_driver(&lufa_driver);
 1394               		.loc 1 653 0
 1395 006a 0E94 0000 		call keyboard_init
 1396               	.LVL103:
 654:/users/hunter/downloads/tmk_core/protocol/lufa/lufa.c **** #ifdef SLEEP_LED_ENABLE
 1397               		.loc 1 654 0
 1398 006e 80E0      		ldi r24,lo8(lufa_driver)
 1399 0070 90E0      		ldi r25,hi8(lufa_driver)
 1400 0072 0E94 0000 		call host_set_driver
 1401               	.LVL104:
 659:/users/hunter/downloads/tmk_core/protocol/lufa/lufa.c ****     hook_late_init();
 1402               		.loc 1 659 0
 1403 0076 80E0      		ldi r24,lo8(__c.4871)
 1404 0078 90E0      		ldi r25,hi8(__c.4871)
 1405 007a 0E94 0000 		call xputs
 1406               	.LVL105:
 660:/users/hunter/downloads/tmk_core/protocol/lufa/lufa.c ****     while (1) {
 1407               		.loc 1 660 0
 1408 007e 0E94 0000 		call hook_late_init
 1409               	.LVL106:
 1410               	.L133:
 662:/users/hunter/downloads/tmk_core/protocol/lufa/lufa.c **** #ifdef LUFA_DEBUG
 1411               		.loc 1 662 0
 1412 0082 8091 0000 		lds r24,USB_DeviceState
 1413 0086 8530      		cpi r24,lo8(5)
 1414 0088 01F0      		breq .L134
 669:/users/hunter/downloads/tmk_core/protocol/lufa/lufa.c **** 
 1415               		.loc 1 669 0
 1416 008a 0E94 0000 		call keyboard_task
 1417               	.LVL107:
 662:/users/hunter/downloads/tmk_core/protocol/lufa/lufa.c **** #ifdef LUFA_DEBUG
 1418               		.loc 1 662 0
 1419 008e 00C0      		rjmp .L133
 1420               	.L134:
 666:/users/hunter/downloads/tmk_core/protocol/lufa/lufa.c ****         }
 1421               		.loc 1 666 0
 1422 0090 0E94 0000 		call hook_usb_suspend_loop
 1423               	.LVL108:
 1424 0094 00C0      		rjmp .L133
 1425               		.cfi_endproc
 1426               	.LFE125:
 1428               		.section	.text.hook_usb_wakeup,"ax",@progbits
 1429               		.weak	hook_usb_wakeup
 1431               	hook_usb_wakeup:
 1432               	.LFB130:
 711:/users/hunter/downloads/tmk_core/protocol/lufa/lufa.c **** 
 712:/users/hunter/downloads/tmk_core/protocol/lufa/lufa.c **** __attribute__((weak))
 713:/users/hunter/downloads/tmk_core/protocol/lufa/lufa.c **** void hook_usb_wakeup(void)
 714:/users/hunter/downloads/tmk_core/protocol/lufa/lufa.c **** {
 1433               		.loc 1 714 0
 1434               		.cfi_startproc
 1435               	/* prologue: function */
 1436               	/* frame size = 0 */
 1437               	/* stack size = 0 */
 1438               	.L__stack_usage = 0
 715:/users/hunter/downloads/tmk_core/protocol/lufa/lufa.c ****     suspend_wakeup_init();
 1439               		.loc 1 715 0
 1440 0000 0E94 0000 		call suspend_wakeup_init
 1441               	.LVL109:
 716:/users/hunter/downloads/tmk_core/protocol/lufa/lufa.c **** #ifdef SLEEP_LED_ENABLE
 717:/users/hunter/downloads/tmk_core/protocol/lufa/lufa.c ****     sleep_led_disable();
 718:/users/hunter/downloads/tmk_core/protocol/lufa/lufa.c **** #endif
 719:/users/hunter/downloads/tmk_core/protocol/lufa/lufa.c **** 
 720:/users/hunter/downloads/tmk_core/protocol/lufa/lufa.c ****     // Restore LED status
 721:/users/hunter/downloads/tmk_core/protocol/lufa/lufa.c ****     // BIOS/grub won't recognize/enumerate if led_set() takes long(around 40ms?)
 722:/users/hunter/downloads/tmk_core/protocol/lufa/lufa.c ****     // Converters fall into the case and miss wakeup event(timeout to reply?) in the end.
 723:/users/hunter/downloads/tmk_core/protocol/lufa/lufa.c ****     //led_set(host_keyboard_leds());
 724:/users/hunter/downloads/tmk_core/protocol/lufa/lufa.c ****     // Instead, restore stats and update at keyboard_task() in main loop
 725:/users/hunter/downloads/tmk_core/protocol/lufa/lufa.c ****     keyboard_led_stats = _led_stats;
 1442               		.loc 1 725 0
 1443 0004 8091 0000 		lds r24,_led_stats
 1444 0008 8093 0000 		sts keyboard_led_stats,r24
 1445               	/* epilogue start */
 726:/users/hunter/downloads/tmk_core/protocol/lufa/lufa.c **** }
 1446               		.loc 1 726 0
 1447 000c 0895      		ret
 1448               		.cfi_endproc
 1449               	.LFE130:
 1451               		.section	.text.EVENT_USB_Device_WakeUp,"ax",@progbits
 1452               	.global	EVENT_USB_Device_WakeUp
 1454               	EVENT_USB_Device_WakeUp:
 1455               	.LFB113:
 201:/users/hunter/downloads/tmk_core/protocol/lufa/lufa.c **** #ifdef LUFA_DEBUG
 1456               		.loc 1 201 0
 1457               		.cfi_startproc
 1458               	/* prologue: function */
 1459               	/* frame size = 0 */
 1460               	/* stack size = 0 */
 1461               	.L__stack_usage = 0
 205:/users/hunter/downloads/tmk_core/protocol/lufa/lufa.c **** }
 1462               		.loc 1 205 0
 1463 0000 0C94 0000 		jmp hook_usb_wakeup
 1464               	.LVL110:
 1465               		.cfi_endproc
 1466               	.LFE113:
 1468               		.section	.progmem.data.__c.4871,"a",@progbits
 1471               	__c.4871:
 1472 0000 4B65 7962 		.string	"Keyboard start.\n"
 1472      6F61 7264 
 1472      2073 7461 
 1472      7274 2E0A 
 1472      00
 1473               		.section	.progmem.data.__c.4869,"a",@progbits
 1476               	__c.4869:
 1477 0000 5553 4220 		.string	"USB configured.\n"
 1477      636F 6E66 
 1477      6967 7572 
 1477      6564 2E0A 
 1477      00
 1478               		.section	.progmem.data.__c.4864,"a",@progbits
 1481               	__c.4864:
 1482 0000 0D0A 696E 		.string	"\r\ninit\n"
 1482      6974 0A00 
 1483               		.section	.bss.timeouted.4841,"aw",@nobits
 1486               	timeouted.4841:
 1487 0000 00        		.zero	1
 1488               		.section	.bss.count.4779,"aw",@nobits
 1491               	count.4779:
 1492 0000 00        		.zero	1
 1493               		.section	.progmem.data.__c.4766,"a",@progbits
 1496               	__c.4766:
 1497 0000 5B44 5D00 		.string	"[D]"
 1498               		.section	.progmem.data.__c.4761,"a",@progbits
 1501               	__c.4761:
 1502 0000 5B43 5D00 		.string	"[C]"
 1503               		.section	.bss._led_stats,"aw",@nobits
 1506               	_led_stats:
 1507 0000 00        		.zero	1
 1508               		.section	.bss.console_flush,"aw",@nobits
 1511               	console_flush:
 1512 0000 00        		.zero	1
 1513               	.global	lufa_driver
 1514               		.section	.data.lufa_driver,"aw",@progbits
 1517               	lufa_driver:
 1518 0000 0000      		.word	gs(keyboard_leds)
 1519 0002 0000      		.word	gs(send_keyboard)
 1520 0004 0000      		.word	gs(send_mouse)
 1521 0006 0000      		.word	gs(send_system)
 1522 0008 0000      		.word	gs(send_consumer)
 1523               		.section	.bss.keyboard_report_sent,"aw",@nobits
 1526               	keyboard_report_sent:
 1527 0000 0000 0000 		.zero	8
 1527      0000 0000 
 1528               		.section	.bss.keyboard_led_stats,"aw",@nobits
 1531               	keyboard_led_stats:
 1532 0000 00        		.zero	1
 1533               	.global	keyboard_protocol
 1534               		.section	.data.keyboard_protocol,"aw",@progbits
 1537               	keyboard_protocol:
 1538 0000 01        		.byte	1
 1539               	.global	keyboard_idle
 1540               		.section	.bss.keyboard_idle,"aw",@nobits
 1543               	keyboard_idle:
 1544 0000 00        		.zero	1
 1545               		.text
 1546               	.Letext0:
 1547               		.file 7 "/opt/local/avr/include/stdint.h"
 1548               		.file 8 "/users/hunter/downloads/tmk_core/common/report.h"
 1549               		.file 9 "/users/hunter/downloads/tmk_core/common/host_driver.h"
 1550               		.file 10 "/users/hunter/downloads/tmk_core/common/host.h"
 1551               		.file 11 "/users/hunter/downloads/tmk_core/common/avr/xprintf.h"
 1552               		.file 12 "/users/hunter/downloads/tmk_core/common/debug.h"
 1553               		.file 13 "/users/hunter/downloads/tmk_core/protocol/lufa/LUFA-git/LUFA/Drivers/USB/Core/AVR8/../De
 1554               		.file 14 "/users/hunter/downloads/tmk_core/protocol/lufa/LUFA-git/LUFA/Drivers/USB/Core/AVR8/../St
 1555               		.file 15 "/users/hunter/downloads/tmk_core/protocol/lufa/LUFA-git/LUFA/Drivers/USB/Core/AVR8/../De
 1556               		.file 16 "/users/hunter/downloads/tmk_core/protocol/lufa/LUFA-git/LUFA/Drivers/USB/Core/USBTask.h"
 1557               		.file 17 "/users/hunter/downloads/tmk_core/protocol/lufa/LUFA-git/LUFA/Drivers/USB/Core/HostStanda
 1558               		.file 18 "/opt/local/avr/include/stdio.h"
 1559               		.file 19 "/users/hunter/downloads/tmk_core/protocol/lufa/LUFA-git/LUFA/Drivers/USB/Class/Device/..
 1560               		.file 20 "/users/hunter/downloads/tmk_core/protocol/lufa/lufa.h"
 1561               		.file 21 "/users/hunter/downloads/tmk_core/protocol/lufa/LUFA-git/LUFA/Drivers/USB/Core/AVR8/../AV
 1562               		.file 22 "/users/hunter/downloads/tmk_core/common/suspend.h"
 1563               		.file 23 "/users/hunter/downloads/tmk_core/common/led.h"
 1564               		.file 24 "/users/hunter/downloads/tmk_core/common/matrix.h"
 1565               		.file 25 "/users/hunter/downloads/tmk_core/common/action.h"
 1566               		.file 26 "/users/hunter/downloads/tmk_core/protocol/lufa/LUFA-git/LUFA/Drivers/USB/Core/AVR8/USBCo
 1567               		.file 27 "/users/hunter/downloads/tmk_core/common/print.h"
 1568               		.file 28 "/users/hunter/downloads/tmk_core/common/keyboard.h"
 1569               		.file 29 "/users/hunter/downloads/tmk_core/protocol/lufa/LUFA-git/LUFA/Drivers/USB/Core/AVR8/../AV
DEFINED SYMBOLS
                            *ABS*:0000000000000000 lufa.c
/var/folders/qj/kb_cqn1j20vbbrqdphlhjt3c0000gn/T//ccR77LU0.s:2      *ABS*:000000000000003e __SP_H__
/var/folders/qj/kb_cqn1j20vbbrqdphlhjt3c0000gn/T//ccR77LU0.s:3      *ABS*:000000000000003d __SP_L__
/var/folders/qj/kb_cqn1j20vbbrqdphlhjt3c0000gn/T//ccR77LU0.s:4      *ABS*:000000000000003f __SREG__
/var/folders/qj/kb_cqn1j20vbbrqdphlhjt3c0000gn/T//ccR77LU0.s:5      *ABS*:0000000000000000 __tmp_reg__
/var/folders/qj/kb_cqn1j20vbbrqdphlhjt3c0000gn/T//ccR77LU0.s:6      *ABS*:0000000000000001 __zero_reg__
/var/folders/qj/kb_cqn1j20vbbrqdphlhjt3c0000gn/T//ccR77LU0.s:12     .text.keyboard_leds:0000000000000000 keyboard_leds
/var/folders/qj/kb_cqn1j20vbbrqdphlhjt3c0000gn/T//ccR77LU0.s:1531   .bss.keyboard_led_stats:0000000000000000 keyboard_led_stats
/var/folders/qj/kb_cqn1j20vbbrqdphlhjt3c0000gn/T//ccR77LU0.s:30     .text.send_mouse:0000000000000000 send_mouse
/var/folders/qj/kb_cqn1j20vbbrqdphlhjt3c0000gn/T//ccR77LU0.s:48     .text.sendchar:0000000000000000 sendchar
/var/folders/qj/kb_cqn1j20vbbrqdphlhjt3c0000gn/T//ccR77LU0.s:1511   .bss.console_flush:0000000000000000 console_flush
/var/folders/qj/kb_cqn1j20vbbrqdphlhjt3c0000gn/T//ccR77LU0.s:1486   .bss.timeouted.4841:0000000000000000 timeouted.4841
/var/folders/qj/kb_cqn1j20vbbrqdphlhjt3c0000gn/T//ccR77LU0.s:292    .text.send_consumer:0000000000000000 send_consumer
/var/folders/qj/kb_cqn1j20vbbrqdphlhjt3c0000gn/T//ccR77LU0.s:408    .text.send_system:0000000000000000 send_system
/var/folders/qj/kb_cqn1j20vbbrqdphlhjt3c0000gn/T//ccR77LU0.s:524    .text.send_keyboard:0000000000000000 send_keyboard
/var/folders/qj/kb_cqn1j20vbbrqdphlhjt3c0000gn/T//ccR77LU0.s:1526   .bss.keyboard_report_sent:0000000000000000 keyboard_report_sent
/var/folders/qj/kb_cqn1j20vbbrqdphlhjt3c0000gn/T//ccR77LU0.s:636    .text.EVENT_USB_Device_Connect:0000000000000000 EVENT_USB_Device_Connect
/var/folders/qj/kb_cqn1j20vbbrqdphlhjt3c0000gn/T//ccR77LU0.s:1501   .progmem.data.__c.4761:0000000000000000 __c.4761
/var/folders/qj/kb_cqn1j20vbbrqdphlhjt3c0000gn/T//ccR77LU0.s:681    .text.EVENT_USB_Device_Disconnect:0000000000000000 EVENT_USB_Device_Disconnect
/var/folders/qj/kb_cqn1j20vbbrqdphlhjt3c0000gn/T//ccR77LU0.s:1496   .progmem.data.__c.4766:0000000000000000 __c.4766
/var/folders/qj/kb_cqn1j20vbbrqdphlhjt3c0000gn/T//ccR77LU0.s:705    .text.EVENT_USB_Device_Reset:0000000000000000 EVENT_USB_Device_Reset
/var/folders/qj/kb_cqn1j20vbbrqdphlhjt3c0000gn/T//ccR77LU0.s:722    .text.EVENT_USB_Device_StartOfFrame:0000000000000000 EVENT_USB_Device_StartOfFrame
/var/folders/qj/kb_cqn1j20vbbrqdphlhjt3c0000gn/T//ccR77LU0.s:1491   .bss.count.4779:0000000000000000 count.4779
/var/folders/qj/kb_cqn1j20vbbrqdphlhjt3c0000gn/T//ccR77LU0.s:877    .text.EVENT_USB_Device_ConfigurationChanged:0000000000000000 EVENT_USB_Device_ConfigurationChanged
/var/folders/qj/kb_cqn1j20vbbrqdphlhjt3c0000gn/T//ccR77LU0.s:911    .text.EVENT_USB_Device_ControlRequest:0000000000000000 EVENT_USB_Device_ControlRequest
/var/folders/qj/kb_cqn1j20vbbrqdphlhjt3c0000gn/T//ccR77LU0.s:1537   .data.keyboard_protocol:0000000000000000 keyboard_protocol
/var/folders/qj/kb_cqn1j20vbbrqdphlhjt3c0000gn/T//ccR77LU0.s:1543   .bss.keyboard_idle:0000000000000000 keyboard_idle
/var/folders/qj/kb_cqn1j20vbbrqdphlhjt3c0000gn/T//ccR77LU0.s:1176   .text.hook_early_init:0000000000000000 hook_early_init
/var/folders/qj/kb_cqn1j20vbbrqdphlhjt3c0000gn/T//ccR77LU0.s:1176   .text.hook_early_init:0000000000000000 hook_early_init.localalias.0
/var/folders/qj/kb_cqn1j20vbbrqdphlhjt3c0000gn/T//ccR77LU0.s:1194   .text.hook_late_init:0000000000000000 hook_late_init
/var/folders/qj/kb_cqn1j20vbbrqdphlhjt3c0000gn/T//ccR77LU0.s:1209   .text.hook_usb_suspend_entry:0000000000000000 hook_usb_suspend_entry
/var/folders/qj/kb_cqn1j20vbbrqdphlhjt3c0000gn/T//ccR77LU0.s:1506   .bss._led_stats:0000000000000000 _led_stats
/var/folders/qj/kb_cqn1j20vbbrqdphlhjt3c0000gn/T//ccR77LU0.s:1238   .text.EVENT_USB_Device_Suspend:0000000000000000 EVENT_USB_Device_Suspend
/var/folders/qj/kb_cqn1j20vbbrqdphlhjt3c0000gn/T//ccR77LU0.s:1255   .text.hook_usb_suspend_loop:0000000000000000 hook_usb_suspend_loop
/var/folders/qj/kb_cqn1j20vbbrqdphlhjt3c0000gn/T//ccR77LU0.s:1287   .text.startup.main:0000000000000000 main
/var/folders/qj/kb_cqn1j20vbbrqdphlhjt3c0000gn/T//ccR77LU0.s:1481   .progmem.data.__c.4864:0000000000000000 __c.4864
/var/folders/qj/kb_cqn1j20vbbrqdphlhjt3c0000gn/T//ccR77LU0.s:1476   .progmem.data.__c.4869:0000000000000000 __c.4869
/var/folders/qj/kb_cqn1j20vbbrqdphlhjt3c0000gn/T//ccR77LU0.s:1517   .data.lufa_driver:0000000000000000 lufa_driver
/var/folders/qj/kb_cqn1j20vbbrqdphlhjt3c0000gn/T//ccR77LU0.s:1471   .progmem.data.__c.4871:0000000000000000 __c.4871
/var/folders/qj/kb_cqn1j20vbbrqdphlhjt3c0000gn/T//ccR77LU0.s:1431   .text.hook_usb_wakeup:0000000000000000 hook_usb_wakeup
/var/folders/qj/kb_cqn1j20vbbrqdphlhjt3c0000gn/T//ccR77LU0.s:1454   .text.EVENT_USB_Device_WakeUp:0000000000000000 EVENT_USB_Device_WakeUp

UNDEFINED SYMBOLS
USB_DeviceState
Endpoint_Write_Stream_LE
xputs
USB_IsInitialized
USB_Disable
USB_Init
__udivmodqi4
Endpoint_ConfigureEndpoint_Prv
USB_ControlRequest
Endpoint_ClearStatusStage
Endpoint_Write_Control_Stream_LE
clear_keyboard
led_set
matrix_clear
suspend_power_down
USB_Device_RemoteWakeupEnabled
suspend_wakeup_condition
USB_Device_SendRemoteWakeup
print_set_sendchar
keyboard_setup
keyboard_init
host_set_driver
keyboard_task
suspend_wakeup_init
__do_copy_data
__do_clear_bss
